 client

 Timestamp is 40a75e19 (Sun May 16 22:27:05 2004)

 Preferred load address is 10000000

 Start         Length     Name                   Class
 0001:00000000 0004c24eH .text                   CODE
 0001:0004c250 00000df4H .text$x                 CODE
 0002:00000000 0000be5cH .rdata                  DATA
 0002:0000be60 00000044H .rdata$r                DATA
 0002:0000bea8 000011b0H .xdata$x                DATA
 0002:0000d060 00006bb1H .edata                  DATA
 0003:00000000 00000004H .CRT$XCA                DATA
 0003:00000004 00000070H .CRT$XCU                DATA
 0003:00000074 00000004H .CRT$XCZ                DATA
 0003:00000078 00000004H .CRT$XIA                DATA
 0003:0000007c 00000004H .CRT$XIZ                DATA
 0003:00000080 00004fb8H .data                   DATA
 0003:00005038 00044ce4H .bss                    DATA
 0004:00000000 0000008cH .idata$2                DATA
 0004:0000008c 00000014H .idata$3                DATA
 0004:000000a0 00000a50H .idata$4                DATA
 0004:00000af0 00000a50H .idata$5                DATA
 0004:00001540 000066b8H .idata$6                DATA

  Address         Publics by Value              Rva+Base     Lib:Object

 0001:00000000       ?EV_HLDM_PlayTextureSound@@YAMHPAUpmtrace_s@@PAM1H@Z 10001000 f   ev_hldm.obj
 0001:000002c6       ?EV_HLDM_DamageDecal@@YAPADPAUphysent_s@@@Z 100012c6 f   ev_hldm.obj
 0001:00000329       ?EV_HLDM_GunshotDecalTrace@@YAXPAUpmtrace_s@@PAD@Z 10001329 f   ev_hldm.obj
 0001:00000487       ?EV_HLDM_DecalGunshot@@YAXPAUpmtrace_s@@H@Z 10001487 f   ev_hldm.obj
 0001:000004b4       ?EV_HLDM_CheckTracer@@YAHHPAM000HHPAH@Z 100014b4 f   ev_hldm.obj
 0001:00000578       ?EV_HLDM_FireBullets@@YAXHPAM00H00MHHPAHMM@Z 10001578 f   ev_hldm.obj
 0001:000007e0       _EV_FireGlock1             100017e0 f   ev_hldm.obj
 0001:00000997       _EV_FireGlock2             10001997 f   ev_hldm.obj
 0001:00000b45       ??4?$Dar@D@vgui@@QAEAAV01@ABV01@@Z 10001b45 f i ev_hldm.obj
 0001:00000b57       ??4?$Dar@PAD@vgui@@QAEAAV01@ABV01@@Z 10001b57 f i ev_hldm.obj
 0001:00000b69       ??4?$Dar@H@vgui@@QAEAAV01@ABV01@@Z 10001b69 f i ev_hldm.obj
 0001:00000b7b       ??4?$Dar@PAVButton@vgui@@@vgui@@QAEAAV01@ABV01@@Z 10001b7b f i ev_hldm.obj
 0001:00000b8d       ??4?$Dar@PAVSurfaceBase@vgui@@@vgui@@QAEAAV01@ABV01@@Z 10001b8d f i ev_hldm.obj
 0001:00000b9f       ??4?$Dar@PAVInputSignal@vgui@@@vgui@@QAEAAV01@ABV01@@Z 10001b9f f i ev_hldm.obj
 0001:00000bb1       ??4?$Dar@PAVFocusChangeSignal@vgui@@@vgui@@QAEAAV01@ABV01@@Z 10001bb1 f i ev_hldm.obj
 0001:00000bc3       ??4?$Dar@PAVFrameSignal@vgui@@@vgui@@QAEAAV01@ABV01@@Z 10001bc3 f i ev_hldm.obj
 0001:00000bd5       ??4?$Dar@PAVActionSignal@vgui@@@vgui@@QAEAAV01@ABV01@@Z 10001bd5 f i ev_hldm.obj
 0001:00000be7       ??4?$Dar@PAVIntChangeSignal@vgui@@@vgui@@QAEAAV01@ABV01@@Z 10001be7 f i ev_hldm.obj
 0001:00000bf9       ??4?$Dar@PAVTickSignal@vgui@@@vgui@@QAEAAV01@ABV01@@Z 10001bf9 f i ev_hldm.obj
 0001:00000c0b       ??4?$Dar@PAV?$Dar@D@vgui@@@vgui@@QAEAAV01@ABV01@@Z 10001c0b f i ev_hldm.obj
 0001:00000c1d       ??4?$Dar@PAVFrame@vgui@@@vgui@@QAEAAV01@ABV01@@Z 10001c1d f i ev_hldm.obj
 0001:00000c2f       ??4?$Dar@PAVDesktopIcon@vgui@@@vgui@@QAEAAV01@ABV01@@Z 10001c2f f i ev_hldm.obj
 0001:00000c41       ??4?$Dar@PAVChangeSignal@vgui@@@vgui@@QAEAAV01@ABV01@@Z 10001c41 f i ev_hldm.obj
 0001:00000c53       ??4?$Dar@PAVPanel@vgui@@@vgui@@QAEAAV01@ABV01@@Z 10001c53 f i ev_hldm.obj
 0001:00000c65       ??4?$Dar@PAVLabel@vgui@@@vgui@@QAEAAV01@ABV01@@Z 10001c65 f i ev_hldm.obj
 0001:00000c77       ??4?$Dar@PAVRepaintSignal@vgui@@@vgui@@QAEAAV01@ABV01@@Z 10001c77 f i ev_hldm.obj
 0001:00000c89       ??0Scheme@vgui@@QAE@ABV01@@Z 10001c89 f i ev_hldm.obj
 0001:00000cc9       _EV_FireShotGunDouble      10001cc9 f   ev_hldm.obj
 0001:00000ecc       ??4Scheme@vgui@@QAEAAV01@ABV01@@Z 10001ecc f i ev_hldm.obj
 0001:00000f14       ??0Color@vgui@@QAE@ABV01@@Z 10001f14 f i ev_hldm.obj
 0001:00000f2f       ??4Color@vgui@@QAEAAV01@ABV01@@Z 10001f2f f i ev_hldm.obj
 0001:00000f5e       ??0Panel@vgui@@QAE@ABV01@@Z 10001f5e f i ev_hldm.obj
 0001:000010b6       ??4Panel@vgui@@QAEAAV01@ABV01@@Z 100020b6 f i ev_hldm.obj
 0001:00001286       _EV_FireShotGunSingle      10002286 f   ev_hldm.obj
 0001:0000147c       ??0Label@vgui@@QAE@XZ      1000247c f i ev_hldm.obj
 0001:000014a6       ??0Label@vgui@@QAE@ABV01@@Z 100024a6 f i ev_hldm.obj
 0001:00001515       ??4Label@vgui@@QAEAAV01@ABV01@@Z 10002515 f i ev_hldm.obj
 0001:0000157e       ??0Image@vgui@@QAE@ABV01@@Z 1000257e f i ev_hldm.obj
 0001:000015be       _EV_FireMP5                100025be f   ev_hldm.obj
 0001:000017da       ??4Image@vgui@@QAEAAV01@ABV01@@Z 100027da f i ev_hldm.obj
 0001:00001845       ??0Border@vgui@@QAE@ABV01@@Z 10002845 f i ev_hldm.obj
 0001:00001874       ??4Border@vgui@@QAEAAV01@ABV01@@Z 10002874 f i ev_hldm.obj
 0001:000018a6       ?setLineColor@LineBorder@vgui@@QAEXHHHH@Z 100028a6 f i ev_hldm.obj
 0001:000018ef       ??0LineBorder@vgui@@QAE@ABV01@@Z 100028ef f i ev_hldm.obj
 0001:00001937       ??4LineBorder@vgui@@QAEAAV01@ABV01@@Z 10002937 f i ev_hldm.obj
 0001:0000197e       ??0ImagePanel@vgui@@QAE@XZ 1000297e f i ev_hldm.obj
 0001:00001997       ??0ImagePanel@vgui@@QAE@ABV01@@Z 10002997 f i ev_hldm.obj
 0001:000019be       ??4ImagePanel@vgui@@QAEAAV01@ABV01@@Z 100029be f i ev_hldm.obj
 0001:000019df       ??0Bitmap@vgui@@QAE@ABV01@@Z 100029df f i ev_hldm.obj
 0001:00001a0c       ??4Bitmap@vgui@@QAEAAV01@ABV01@@Z 10002a0c f i ev_hldm.obj
 0001:00001a33       ??0BitmapTGA@vgui@@QAE@ABV01@@Z 10002a33 f i ev_hldm.obj
 0001:00001a4b       ??4BitmapTGA@vgui@@QAEAAV01@ABV01@@Z 10002a4b f i ev_hldm.obj
 0001:00001a5d       ??0InputSignal@vgui@@QAE@XZ 10002a5d f i ev_hldm.obj
 0001:00001a66       _EV_FireMP52               10002a66 f   ev_hldm.obj
 0001:00001b33       ??0InputSignal@vgui@@QAE@ABV01@@Z 10002b33 f i ev_hldm.obj
 0001:00001b3e       ??4InputSignal@vgui@@QAEAAV01@ABV01@@Z 10002b3e f i ev_hldm.obj
 0001:00001b43       ??0Button@vgui@@QAE@ABV01@@Z 10002b43 f i ev_hldm.obj
 0001:00001bc5       ??4Button@vgui@@QAEAAV01@ABV01@@Z 10002bc5 f i ev_hldm.obj
 0001:00001c41       _EV_FirePython             10002c41 f   ev_hldm.obj
 0001:00001dd0       _EV_SpinGauss              10002dd0 f   ev_hldm.obj
 0001:00001e27       ?EV_StopPreviousGauss@@YAXH@Z 10002e27 f   ev_hldm.obj
 0001:00001e4f       _EV_FireGauss              10002e4f f   ev_hldm.obj
 0001:00002776       ??_H@YGXPAXIHP6EX0@Z@Z     10003776 f i ev_hldm.obj
 0001:00002798       _EV_Crowbar                10003798 f   ev_hldm.obj
 0001:00002835       ?EV_BoltCallback@@YAXPAUtempent_s@@MM@Z 10003835 f   ev_hldm.obj
 0001:0000285c       _EV_FireCrossbow2          1000385c f   ev_hldm.obj
 0001:00002bdb       _EV_FireCrossbow           10003bdb f   ev_hldm.obj
 0001:00002cc5       _EV_FireRpg                10003cc5 f   ev_hldm.obj
 0001:00002d70       _EV_EgonFire               10003d70 f   ev_hldm.obj
 0001:0000303b       _EV_EgonStop               1000403b f   ev_hldm.obj
 0001:000030dc       _EV_HornetGunFire          100040dc f   ev_hldm.obj
 0001:000031aa       _EV_TripmineFire           100041aa f   ev_hldm.obj
 0001:000032cb       _EV_SnarkFire              100042cb f   ev_hldm.obj
 0001:00003433       _EV_TrainPitchAdjust       10004433 f   ev_hldm.obj
 0001:00003546       ?EV_TFC_IsAllyTeam@@YAHHH@Z 10004546 f   ev_hldm.obj
 0001:00003549       ??0?$Dar@D@vgui@@QAE@XZ    10004549 f i ev_hldm.obj
 0001:00003561       ??0?$Dar@D@vgui@@QAE@H@Z   10004561 f i ev_hldm.obj
 0001:0000357d       ?ensureCapacity@?$Dar@D@vgui@@QAEXH@Z 1000457d f i ev_hldm.obj
 0001:000035e5       ?setCount@?$Dar@D@vgui@@QAEXH@Z 100045e5 f i ev_hldm.obj
 0001:000035f7       ?getCount@?$Dar@D@vgui@@QAEHXZ 100045f7 f i ev_hldm.obj
 0001:000035fa       ?addElement@?$Dar@D@vgui@@QAEXD@Z 100045fa f i ev_hldm.obj
 0001:00003618       ?hasElement@?$Dar@D@vgui@@QAE_ND@Z 10004618 f i ev_hldm.obj
 0001:0000363c       ?putElement@?$Dar@D@vgui@@QAEXD@Z 1000463c f i ev_hldm.obj
 0001:00003671       ?insertElementAt@?$Dar@D@vgui@@QAEXDH@Z 10004671 f i ev_hldm.obj
 0001:000036da       ?setElementAt@?$Dar@D@vgui@@QAEXDH@Z 100046da f i ev_hldm.obj
 0001:000036f3       ?removeElementAt@?$Dar@D@vgui@@QAEXH@Z 100046f3 f i ev_hldm.obj
 0001:0000371c       ?removeElement@?$Dar@D@vgui@@QAEXD@Z 1000471c f i ev_hldm.obj
 0001:00003744       ?removeAll@?$Dar@D@vgui@@QAEXXZ 10004744 f i ev_hldm.obj
 0001:00003748       ??A?$Dar@D@vgui@@QAEDH@Z   10004748 f i ev_hldm.obj
 0001:00003761       ??0?$Dar@PAD@vgui@@QAE@XZ  10004761 f i ev_hldm.obj
 0001:00003779       ??0?$Dar@PAD@vgui@@QAE@H@Z 10004779 f i ev_hldm.obj
 0001:00003795       ?ensureCapacity@?$Dar@PAD@vgui@@QAEXH@Z 10004795 f i ev_hldm.obj
 0001:00003804       ?setCount@?$Dar@PAD@vgui@@QAEXH@Z 10004804 f i ev_hldm.obj
 0001:00003816       ?getCount@?$Dar@PAD@vgui@@QAEHXZ 10004816 f i ev_hldm.obj
 0001:00003819       ?addElement@?$Dar@PAD@vgui@@QAEXPAD@Z 10004819 f i ev_hldm.obj
 0001:00003837       ?hasElement@?$Dar@PAD@vgui@@QAE_NPAD@Z 10004837 f i ev_hldm.obj
 0001:0000385d       ?putElement@?$Dar@PAD@vgui@@QAEXPAD@Z 1000485d f i ev_hldm.obj
 0001:00003894       ?insertElementAt@?$Dar@PAD@vgui@@QAEXPADH@Z 10004894 f i ev_hldm.obj
 0001:000038ff       ?setElementAt@?$Dar@PAD@vgui@@QAEXPADH@Z 100048ff f i ev_hldm.obj
 0001:00003918       ?removeElementAt@?$Dar@PAD@vgui@@QAEXH@Z 10004918 f i ev_hldm.obj
 0001:00003944       ?removeElement@?$Dar@PAD@vgui@@QAEXPAD@Z 10004944 f i ev_hldm.obj
 0001:0000396e       ?removeAll@?$Dar@PAD@vgui@@QAEXXZ 1000496e f i ev_hldm.obj
 0001:00003972       ??A?$Dar@PAD@vgui@@QAEPADH@Z 10004972 f i ev_hldm.obj
 0001:0000398b       ??0?$Dar@H@vgui@@QAE@XZ    1000498b f i ev_hldm.obj
 0001:000039a3       ??0?$Dar@H@vgui@@QAE@H@Z   100049a3 f i ev_hldm.obj
 0001:000039bf       ?ensureCapacity@?$Dar@H@vgui@@QAEXH@Z 100049bf f i ev_hldm.obj
 0001:00003a2e       ?setCount@?$Dar@H@vgui@@QAEXH@Z 10004a2e f i ev_hldm.obj
 0001:00003a40       ?getCount@?$Dar@H@vgui@@QAEHXZ 10004a40 f i ev_hldm.obj
 0001:00003a43       ?addElement@?$Dar@H@vgui@@QAEXH@Z 10004a43 f i ev_hldm.obj
 0001:00003a61       ?hasElement@?$Dar@H@vgui@@QAE_NH@Z 10004a61 f i ev_hldm.obj
 0001:00003a87       ?putElement@?$Dar@H@vgui@@QAEXH@Z 10004a87 f i ev_hldm.obj
 0001:00003abe       ?insertElementAt@?$Dar@H@vgui@@QAEXHH@Z 10004abe f i ev_hldm.obj
 0001:00003b29       ?setElementAt@?$Dar@H@vgui@@QAEXHH@Z 10004b29 f i ev_hldm.obj
 0001:00003b42       ?removeElementAt@?$Dar@H@vgui@@QAEXH@Z 10004b42 f i ev_hldm.obj
 0001:00003b6e       ?removeElement@?$Dar@H@vgui@@QAEXH@Z 10004b6e f i ev_hldm.obj
 0001:00003b98       ?removeAll@?$Dar@H@vgui@@QAEXXZ 10004b98 f i ev_hldm.obj
 0001:00003b9c       ??A?$Dar@H@vgui@@QAEHH@Z   10004b9c f i ev_hldm.obj
 0001:00003bb5       ??0?$Dar@PAVButton@vgui@@@vgui@@QAE@XZ 10004bb5 f i ev_hldm.obj
 0001:00003bcd       ??0?$Dar@PAVButton@vgui@@@vgui@@QAE@H@Z 10004bcd f i ev_hldm.obj
 0001:00003be9       ?ensureCapacity@?$Dar@PAVButton@vgui@@@vgui@@QAEXH@Z 10004be9 f i ev_hldm.obj
 0001:00003c58       ?setCount@?$Dar@PAVButton@vgui@@@vgui@@QAEXH@Z 10004c58 f i ev_hldm.obj
 0001:00003c6a       ?getCount@?$Dar@PAVButton@vgui@@@vgui@@QAEHXZ 10004c6a f i ev_hldm.obj
 0001:00003c6d       ?addElement@?$Dar@PAVButton@vgui@@@vgui@@QAEXPAVButton@2@@Z 10004c6d f i ev_hldm.obj
 0001:00003c8b       ?hasElement@?$Dar@PAVButton@vgui@@@vgui@@QAE_NPAVButton@2@@Z 10004c8b f i ev_hldm.obj
 0001:00003cb1       ?putElement@?$Dar@PAVButton@vgui@@@vgui@@QAEXPAVButton@2@@Z 10004cb1 f i ev_hldm.obj
 0001:00003ce8       ?insertElementAt@?$Dar@PAVButton@vgui@@@vgui@@QAEXPAVButton@2@H@Z 10004ce8 f i ev_hldm.obj
 0001:00003d53       ?setElementAt@?$Dar@PAVButton@vgui@@@vgui@@QAEXPAVButton@2@H@Z 10004d53 f i ev_hldm.obj
 0001:00003d6c       ?removeElementAt@?$Dar@PAVButton@vgui@@@vgui@@QAEXH@Z 10004d6c f i ev_hldm.obj
 0001:00003d98       ?removeElement@?$Dar@PAVButton@vgui@@@vgui@@QAEXPAVButton@2@@Z 10004d98 f i ev_hldm.obj
 0001:00003dc2       ?removeAll@?$Dar@PAVButton@vgui@@@vgui@@QAEXXZ 10004dc2 f i ev_hldm.obj
 0001:00003dc6       ??A?$Dar@PAVButton@vgui@@@vgui@@QAEPAVButton@1@H@Z 10004dc6 f i ev_hldm.obj
 0001:00003ddf       ??0?$Dar@PAVSurfaceBase@vgui@@@vgui@@QAE@XZ 10004ddf f i ev_hldm.obj
 0001:00003df7       ??0?$Dar@PAVSurfaceBase@vgui@@@vgui@@QAE@H@Z 10004df7 f i ev_hldm.obj
 0001:00003e13       ?ensureCapacity@?$Dar@PAVSurfaceBase@vgui@@@vgui@@QAEXH@Z 10004e13 f i ev_hldm.obj
 0001:00003e82       ?setCount@?$Dar@PAVSurfaceBase@vgui@@@vgui@@QAEXH@Z 10004e82 f i ev_hldm.obj
 0001:00003e94       ?getCount@?$Dar@PAVSurfaceBase@vgui@@@vgui@@QAEHXZ 10004e94 f i ev_hldm.obj
 0001:00003e97       ?addElement@?$Dar@PAVSurfaceBase@vgui@@@vgui@@QAEXPAVSurfaceBase@2@@Z 10004e97 f i ev_hldm.obj
 0001:00003eb5       ?hasElement@?$Dar@PAVSurfaceBase@vgui@@@vgui@@QAE_NPAVSurfaceBase@2@@Z 10004eb5 f i ev_hldm.obj
 0001:00003edb       ?putElement@?$Dar@PAVSurfaceBase@vgui@@@vgui@@QAEXPAVSurfaceBase@2@@Z 10004edb f i ev_hldm.obj
 0001:00003f12       ?insertElementAt@?$Dar@PAVSurfaceBase@vgui@@@vgui@@QAEXPAVSurfaceBase@2@H@Z 10004f12 f i ev_hldm.obj
 0001:00003f7d       ?setElementAt@?$Dar@PAVSurfaceBase@vgui@@@vgui@@QAEXPAVSurfaceBase@2@H@Z 10004f7d f i ev_hldm.obj
 0001:00003f96       ?removeElementAt@?$Dar@PAVSurfaceBase@vgui@@@vgui@@QAEXH@Z 10004f96 f i ev_hldm.obj
 0001:00003fc2       ?removeElement@?$Dar@PAVSurfaceBase@vgui@@@vgui@@QAEXPAVSurfaceBase@2@@Z 10004fc2 f i ev_hldm.obj
 0001:00003fec       ?removeAll@?$Dar@PAVSurfaceBase@vgui@@@vgui@@QAEXXZ 10004fec f i ev_hldm.obj
 0001:00003ff0       ??A?$Dar@PAVSurfaceBase@vgui@@@vgui@@QAEPAVSurfaceBase@1@H@Z 10004ff0 f i ev_hldm.obj
 0001:00004009       ??0?$Dar@PAVInputSignal@vgui@@@vgui@@QAE@XZ 10005009 f i ev_hldm.obj
 0001:00004021       ??0?$Dar@PAVInputSignal@vgui@@@vgui@@QAE@H@Z 10005021 f i ev_hldm.obj
 0001:0000403d       ?ensureCapacity@?$Dar@PAVInputSignal@vgui@@@vgui@@QAEXH@Z 1000503d f i ev_hldm.obj
 0001:000040ac       ?setCount@?$Dar@PAVInputSignal@vgui@@@vgui@@QAEXH@Z 100050ac f i ev_hldm.obj
 0001:000040be       ?getCount@?$Dar@PAVInputSignal@vgui@@@vgui@@QAEHXZ 100050be f i ev_hldm.obj
 0001:000040c1       ?addElement@?$Dar@PAVInputSignal@vgui@@@vgui@@QAEXPAVInputSignal@2@@Z 100050c1 f i ev_hldm.obj
 0001:000040df       ?hasElement@?$Dar@PAVInputSignal@vgui@@@vgui@@QAE_NPAVInputSignal@2@@Z 100050df f i ev_hldm.obj
 0001:00004105       ?putElement@?$Dar@PAVInputSignal@vgui@@@vgui@@QAEXPAVInputSignal@2@@Z 10005105 f i ev_hldm.obj
 0001:0000413c       ?insertElementAt@?$Dar@PAVInputSignal@vgui@@@vgui@@QAEXPAVInputSignal@2@H@Z 1000513c f i ev_hldm.obj
 0001:000041a7       ?setElementAt@?$Dar@PAVInputSignal@vgui@@@vgui@@QAEXPAVInputSignal@2@H@Z 100051a7 f i ev_hldm.obj
 0001:000041c0       ?removeElementAt@?$Dar@PAVInputSignal@vgui@@@vgui@@QAEXH@Z 100051c0 f i ev_hldm.obj
 0001:000041ec       ?removeElement@?$Dar@PAVInputSignal@vgui@@@vgui@@QAEXPAVInputSignal@2@@Z 100051ec f i ev_hldm.obj
 0001:00004216       ?removeAll@?$Dar@PAVInputSignal@vgui@@@vgui@@QAEXXZ 10005216 f i ev_hldm.obj
 0001:0000421a       ??A?$Dar@PAVInputSignal@vgui@@@vgui@@QAEPAVInputSignal@1@H@Z 1000521a f i ev_hldm.obj
 0001:00004233       ??0?$Dar@PAVFocusChangeSignal@vgui@@@vgui@@QAE@XZ 10005233 f i ev_hldm.obj
 0001:0000424b       ??0?$Dar@PAVFocusChangeSignal@vgui@@@vgui@@QAE@H@Z 1000524b f i ev_hldm.obj
 0001:00004267       ?ensureCapacity@?$Dar@PAVFocusChangeSignal@vgui@@@vgui@@QAEXH@Z 10005267 f i ev_hldm.obj
 0001:000042d6       ?setCount@?$Dar@PAVFocusChangeSignal@vgui@@@vgui@@QAEXH@Z 100052d6 f i ev_hldm.obj
 0001:000042e8       ?getCount@?$Dar@PAVFocusChangeSignal@vgui@@@vgui@@QAEHXZ 100052e8 f i ev_hldm.obj
 0001:000042eb       ?addElement@?$Dar@PAVFocusChangeSignal@vgui@@@vgui@@QAEXPAVFocusChangeSignal@2@@Z 100052eb f i ev_hldm.obj
 0001:00004309       ?hasElement@?$Dar@PAVFocusChangeSignal@vgui@@@vgui@@QAE_NPAVFocusChangeSignal@2@@Z 10005309 f i ev_hldm.obj
 0001:0000432f       ?putElement@?$Dar@PAVFocusChangeSignal@vgui@@@vgui@@QAEXPAVFocusChangeSignal@2@@Z 1000532f f i ev_hldm.obj
 0001:00004366       ?insertElementAt@?$Dar@PAVFocusChangeSignal@vgui@@@vgui@@QAEXPAVFocusChangeSignal@2@H@Z 10005366 f i ev_hldm.obj
 0001:000043d1       ?setElementAt@?$Dar@PAVFocusChangeSignal@vgui@@@vgui@@QAEXPAVFocusChangeSignal@2@H@Z 100053d1 f i ev_hldm.obj
 0001:000043ea       ?removeElementAt@?$Dar@PAVFocusChangeSignal@vgui@@@vgui@@QAEXH@Z 100053ea f i ev_hldm.obj
 0001:00004416       ?removeElement@?$Dar@PAVFocusChangeSignal@vgui@@@vgui@@QAEXPAVFocusChangeSignal@2@@Z 10005416 f i ev_hldm.obj
 0001:00004440       ?removeAll@?$Dar@PAVFocusChangeSignal@vgui@@@vgui@@QAEXXZ 10005440 f i ev_hldm.obj
 0001:00004444       ??A?$Dar@PAVFocusChangeSignal@vgui@@@vgui@@QAEPAVFocusChangeSignal@1@H@Z 10005444 f i ev_hldm.obj
 0001:0000445d       ??0?$Dar@PAVFrameSignal@vgui@@@vgui@@QAE@XZ 1000545d f i ev_hldm.obj
 0001:00004475       ??0?$Dar@PAVFrameSignal@vgui@@@vgui@@QAE@H@Z 10005475 f i ev_hldm.obj
 0001:00004491       ?ensureCapacity@?$Dar@PAVFrameSignal@vgui@@@vgui@@QAEXH@Z 10005491 f i ev_hldm.obj
 0001:00004500       ?setCount@?$Dar@PAVFrameSignal@vgui@@@vgui@@QAEXH@Z 10005500 f i ev_hldm.obj
 0001:00004512       ?getCount@?$Dar@PAVFrameSignal@vgui@@@vgui@@QAEHXZ 10005512 f i ev_hldm.obj
 0001:00004515       ?addElement@?$Dar@PAVFrameSignal@vgui@@@vgui@@QAEXPAVFrameSignal@2@@Z 10005515 f i ev_hldm.obj
 0001:00004533       ?hasElement@?$Dar@PAVFrameSignal@vgui@@@vgui@@QAE_NPAVFrameSignal@2@@Z 10005533 f i ev_hldm.obj
 0001:00004559       ?putElement@?$Dar@PAVFrameSignal@vgui@@@vgui@@QAEXPAVFrameSignal@2@@Z 10005559 f i ev_hldm.obj
 0001:00004590       ?insertElementAt@?$Dar@PAVFrameSignal@vgui@@@vgui@@QAEXPAVFrameSignal@2@H@Z 10005590 f i ev_hldm.obj
 0001:000045fb       ?setElementAt@?$Dar@PAVFrameSignal@vgui@@@vgui@@QAEXPAVFrameSignal@2@H@Z 100055fb f i ev_hldm.obj
 0001:00004614       ?removeElementAt@?$Dar@PAVFrameSignal@vgui@@@vgui@@QAEXH@Z 10005614 f i ev_hldm.obj
 0001:00004640       ?removeElement@?$Dar@PAVFrameSignal@vgui@@@vgui@@QAEXPAVFrameSignal@2@@Z 10005640 f i ev_hldm.obj
 0001:0000466a       ?removeAll@?$Dar@PAVFrameSignal@vgui@@@vgui@@QAEXXZ 1000566a f i ev_hldm.obj
 0001:0000466e       ??A?$Dar@PAVFrameSignal@vgui@@@vgui@@QAEPAVFrameSignal@1@H@Z 1000566e f i ev_hldm.obj
 0001:00004687       ??0?$Dar@PAVActionSignal@vgui@@@vgui@@QAE@XZ 10005687 f i ev_hldm.obj
 0001:0000469f       ??0?$Dar@PAVActionSignal@vgui@@@vgui@@QAE@H@Z 1000569f f i ev_hldm.obj
 0001:000046bb       ?ensureCapacity@?$Dar@PAVActionSignal@vgui@@@vgui@@QAEXH@Z 100056bb f i ev_hldm.obj
 0001:0000472a       ?setCount@?$Dar@PAVActionSignal@vgui@@@vgui@@QAEXH@Z 1000572a f i ev_hldm.obj
 0001:0000473c       ?getCount@?$Dar@PAVActionSignal@vgui@@@vgui@@QAEHXZ 1000573c f i ev_hldm.obj
 0001:0000473f       ?addElement@?$Dar@PAVActionSignal@vgui@@@vgui@@QAEXPAVActionSignal@2@@Z 1000573f f i ev_hldm.obj
 0001:0000475d       ?hasElement@?$Dar@PAVActionSignal@vgui@@@vgui@@QAE_NPAVActionSignal@2@@Z 1000575d f i ev_hldm.obj
 0001:00004783       ?putElement@?$Dar@PAVActionSignal@vgui@@@vgui@@QAEXPAVActionSignal@2@@Z 10005783 f i ev_hldm.obj
 0001:000047ba       ?insertElementAt@?$Dar@PAVActionSignal@vgui@@@vgui@@QAEXPAVActionSignal@2@H@Z 100057ba f i ev_hldm.obj
 0001:00004825       ?setElementAt@?$Dar@PAVActionSignal@vgui@@@vgui@@QAEXPAVActionSignal@2@H@Z 10005825 f i ev_hldm.obj
 0001:0000483e       ?removeElementAt@?$Dar@PAVActionSignal@vgui@@@vgui@@QAEXH@Z 1000583e f i ev_hldm.obj
 0001:0000486a       ?removeElement@?$Dar@PAVActionSignal@vgui@@@vgui@@QAEXPAVActionSignal@2@@Z 1000586a f i ev_hldm.obj
 0001:00004894       ?removeAll@?$Dar@PAVActionSignal@vgui@@@vgui@@QAEXXZ 10005894 f i ev_hldm.obj
 0001:00004898       ??A?$Dar@PAVActionSignal@vgui@@@vgui@@QAEPAVActionSignal@1@H@Z 10005898 f i ev_hldm.obj
 0001:000048b1       ??0?$Dar@PAVIntChangeSignal@vgui@@@vgui@@QAE@XZ 100058b1 f i ev_hldm.obj
 0001:000048c9       ??0?$Dar@PAVIntChangeSignal@vgui@@@vgui@@QAE@H@Z 100058c9 f i ev_hldm.obj
 0001:000048e5       ?ensureCapacity@?$Dar@PAVIntChangeSignal@vgui@@@vgui@@QAEXH@Z 100058e5 f i ev_hldm.obj
 0001:00004954       ?setCount@?$Dar@PAVIntChangeSignal@vgui@@@vgui@@QAEXH@Z 10005954 f i ev_hldm.obj
 0001:00004966       ?getCount@?$Dar@PAVIntChangeSignal@vgui@@@vgui@@QAEHXZ 10005966 f i ev_hldm.obj
 0001:00004969       ?addElement@?$Dar@PAVIntChangeSignal@vgui@@@vgui@@QAEXPAVIntChangeSignal@2@@Z 10005969 f i ev_hldm.obj
 0001:00004987       ?hasElement@?$Dar@PAVIntChangeSignal@vgui@@@vgui@@QAE_NPAVIntChangeSignal@2@@Z 10005987 f i ev_hldm.obj
 0001:000049ad       ?putElement@?$Dar@PAVIntChangeSignal@vgui@@@vgui@@QAEXPAVIntChangeSignal@2@@Z 100059ad f i ev_hldm.obj
 0001:000049e4       ?insertElementAt@?$Dar@PAVIntChangeSignal@vgui@@@vgui@@QAEXPAVIntChangeSignal@2@H@Z 100059e4 f i ev_hldm.obj
 0001:00004a4f       ?setElementAt@?$Dar@PAVIntChangeSignal@vgui@@@vgui@@QAEXPAVIntChangeSignal@2@H@Z 10005a4f f i ev_hldm.obj
 0001:00004a68       ?removeElementAt@?$Dar@PAVIntChangeSignal@vgui@@@vgui@@QAEXH@Z 10005a68 f i ev_hldm.obj
 0001:00004a94       ?removeElement@?$Dar@PAVIntChangeSignal@vgui@@@vgui@@QAEXPAVIntChangeSignal@2@@Z 10005a94 f i ev_hldm.obj
 0001:00004abe       ?removeAll@?$Dar@PAVIntChangeSignal@vgui@@@vgui@@QAEXXZ 10005abe f i ev_hldm.obj
 0001:00004ac2       ??A?$Dar@PAVIntChangeSignal@vgui@@@vgui@@QAEPAVIntChangeSignal@1@H@Z 10005ac2 f i ev_hldm.obj
 0001:00004adb       ??0?$Dar@PAVTickSignal@vgui@@@vgui@@QAE@XZ 10005adb f i ev_hldm.obj
 0001:00004af3       ??0?$Dar@PAVTickSignal@vgui@@@vgui@@QAE@H@Z 10005af3 f i ev_hldm.obj
 0001:00004b0f       ?ensureCapacity@?$Dar@PAVTickSignal@vgui@@@vgui@@QAEXH@Z 10005b0f f i ev_hldm.obj
 0001:00004b7e       ?setCount@?$Dar@PAVTickSignal@vgui@@@vgui@@QAEXH@Z 10005b7e f i ev_hldm.obj
 0001:00004b90       ?getCount@?$Dar@PAVTickSignal@vgui@@@vgui@@QAEHXZ 10005b90 f i ev_hldm.obj
 0001:00004b93       ?addElement@?$Dar@PAVTickSignal@vgui@@@vgui@@QAEXPAVTickSignal@2@@Z 10005b93 f i ev_hldm.obj
 0001:00004bb1       ?hasElement@?$Dar@PAVTickSignal@vgui@@@vgui@@QAE_NPAVTickSignal@2@@Z 10005bb1 f i ev_hldm.obj
 0001:00004bd7       ?putElement@?$Dar@PAVTickSignal@vgui@@@vgui@@QAEXPAVTickSignal@2@@Z 10005bd7 f i ev_hldm.obj
 0001:00004c0e       ?insertElementAt@?$Dar@PAVTickSignal@vgui@@@vgui@@QAEXPAVTickSignal@2@H@Z 10005c0e f i ev_hldm.obj
 0001:00004c79       ?setElementAt@?$Dar@PAVTickSignal@vgui@@@vgui@@QAEXPAVTickSignal@2@H@Z 10005c79 f i ev_hldm.obj
 0001:00004c92       ?removeElementAt@?$Dar@PAVTickSignal@vgui@@@vgui@@QAEXH@Z 10005c92 f i ev_hldm.obj
 0001:00004cbe       ?removeElement@?$Dar@PAVTickSignal@vgui@@@vgui@@QAEXPAVTickSignal@2@@Z 10005cbe f i ev_hldm.obj
 0001:00004ce8       ?removeAll@?$Dar@PAVTickSignal@vgui@@@vgui@@QAEXXZ 10005ce8 f i ev_hldm.obj
 0001:00004cec       ??A?$Dar@PAVTickSignal@vgui@@@vgui@@QAEPAVTickSignal@1@H@Z 10005cec f i ev_hldm.obj
 0001:00004d05       ??0?$Dar@PAV?$Dar@D@vgui@@@vgui@@QAE@XZ 10005d05 f i ev_hldm.obj
 0001:00004d1d       ??0?$Dar@PAV?$Dar@D@vgui@@@vgui@@QAE@H@Z 10005d1d f i ev_hldm.obj
 0001:00004d39       ?ensureCapacity@?$Dar@PAV?$Dar@D@vgui@@@vgui@@QAEXH@Z 10005d39 f i ev_hldm.obj
 0001:00004da8       ?setCount@?$Dar@PAV?$Dar@D@vgui@@@vgui@@QAEXH@Z 10005da8 f i ev_hldm.obj
 0001:00004dba       ?getCount@?$Dar@PAV?$Dar@D@vgui@@@vgui@@QAEHXZ 10005dba f i ev_hldm.obj
 0001:00004dbd       ?addElement@?$Dar@PAV?$Dar@D@vgui@@@vgui@@QAEXPAV?$Dar@D@2@@Z 10005dbd f i ev_hldm.obj
 0001:00004ddb       ?hasElement@?$Dar@PAV?$Dar@D@vgui@@@vgui@@QAE_NPAV?$Dar@D@2@@Z 10005ddb f i ev_hldm.obj
 0001:00004e01       ?putElement@?$Dar@PAV?$Dar@D@vgui@@@vgui@@QAEXPAV?$Dar@D@2@@Z 10005e01 f i ev_hldm.obj
 0001:00004e38       ?insertElementAt@?$Dar@PAV?$Dar@D@vgui@@@vgui@@QAEXPAV?$Dar@D@2@H@Z 10005e38 f i ev_hldm.obj
 0001:00004ea3       ?setElementAt@?$Dar@PAV?$Dar@D@vgui@@@vgui@@QAEXPAV?$Dar@D@2@H@Z 10005ea3 f i ev_hldm.obj
 0001:00004ebc       ?removeElementAt@?$Dar@PAV?$Dar@D@vgui@@@vgui@@QAEXH@Z 10005ebc f i ev_hldm.obj
 0001:00004ee8       ?removeElement@?$Dar@PAV?$Dar@D@vgui@@@vgui@@QAEXPAV?$Dar@D@2@@Z 10005ee8 f i ev_hldm.obj
 0001:00004f12       ?removeAll@?$Dar@PAV?$Dar@D@vgui@@@vgui@@QAEXXZ 10005f12 f i ev_hldm.obj
 0001:00004f16       ??A?$Dar@PAV?$Dar@D@vgui@@@vgui@@QAEPAV?$Dar@D@1@H@Z 10005f16 f i ev_hldm.obj
 0001:00004f2f       ??0?$Dar@PAVFrame@vgui@@@vgui@@QAE@XZ 10005f2f f i ev_hldm.obj
 0001:00004f47       ??0?$Dar@PAVFrame@vgui@@@vgui@@QAE@H@Z 10005f47 f i ev_hldm.obj
 0001:00004f63       ?ensureCapacity@?$Dar@PAVFrame@vgui@@@vgui@@QAEXH@Z 10005f63 f i ev_hldm.obj
 0001:00004fd2       ?setCount@?$Dar@PAVFrame@vgui@@@vgui@@QAEXH@Z 10005fd2 f i ev_hldm.obj
 0001:00004fe4       ?getCount@?$Dar@PAVFrame@vgui@@@vgui@@QAEHXZ 10005fe4 f i ev_hldm.obj
 0001:00004fe7       ?addElement@?$Dar@PAVFrame@vgui@@@vgui@@QAEXPAVFrame@2@@Z 10005fe7 f i ev_hldm.obj
 0001:00005005       ?hasElement@?$Dar@PAVFrame@vgui@@@vgui@@QAE_NPAVFrame@2@@Z 10006005 f i ev_hldm.obj
 0001:0000502b       ?putElement@?$Dar@PAVFrame@vgui@@@vgui@@QAEXPAVFrame@2@@Z 1000602b f i ev_hldm.obj
 0001:00005062       ?insertElementAt@?$Dar@PAVFrame@vgui@@@vgui@@QAEXPAVFrame@2@H@Z 10006062 f i ev_hldm.obj
 0001:000050cd       ?setElementAt@?$Dar@PAVFrame@vgui@@@vgui@@QAEXPAVFrame@2@H@Z 100060cd f i ev_hldm.obj
 0001:000050e6       ?removeElementAt@?$Dar@PAVFrame@vgui@@@vgui@@QAEXH@Z 100060e6 f i ev_hldm.obj
 0001:00005112       ?removeElement@?$Dar@PAVFrame@vgui@@@vgui@@QAEXPAVFrame@2@@Z 10006112 f i ev_hldm.obj
 0001:0000513c       ?removeAll@?$Dar@PAVFrame@vgui@@@vgui@@QAEXXZ 1000613c f i ev_hldm.obj
 0001:00005140       ??A?$Dar@PAVFrame@vgui@@@vgui@@QAEPAVFrame@1@H@Z 10006140 f i ev_hldm.obj
 0001:00005159       ??0?$Dar@PAVDesktopIcon@vgui@@@vgui@@QAE@XZ 10006159 f i ev_hldm.obj
 0001:00005171       ??0?$Dar@PAVDesktopIcon@vgui@@@vgui@@QAE@H@Z 10006171 f i ev_hldm.obj
 0001:0000518d       ?ensureCapacity@?$Dar@PAVDesktopIcon@vgui@@@vgui@@QAEXH@Z 1000618d f i ev_hldm.obj
 0001:000051fc       ?setCount@?$Dar@PAVDesktopIcon@vgui@@@vgui@@QAEXH@Z 100061fc f i ev_hldm.obj
 0001:0000520e       ?getCount@?$Dar@PAVDesktopIcon@vgui@@@vgui@@QAEHXZ 1000620e f i ev_hldm.obj
 0001:00005211       ?addElement@?$Dar@PAVDesktopIcon@vgui@@@vgui@@QAEXPAVDesktopIcon@2@@Z 10006211 f i ev_hldm.obj
 0001:0000522f       ?hasElement@?$Dar@PAVDesktopIcon@vgui@@@vgui@@QAE_NPAVDesktopIcon@2@@Z 1000622f f i ev_hldm.obj
 0001:00005255       ?putElement@?$Dar@PAVDesktopIcon@vgui@@@vgui@@QAEXPAVDesktopIcon@2@@Z 10006255 f i ev_hldm.obj
 0001:0000528c       ?insertElementAt@?$Dar@PAVDesktopIcon@vgui@@@vgui@@QAEXPAVDesktopIcon@2@H@Z 1000628c f i ev_hldm.obj
 0001:000052f7       ?setElementAt@?$Dar@PAVDesktopIcon@vgui@@@vgui@@QAEXPAVDesktopIcon@2@H@Z 100062f7 f i ev_hldm.obj
 0001:00005310       ?removeElementAt@?$Dar@PAVDesktopIcon@vgui@@@vgui@@QAEXH@Z 10006310 f i ev_hldm.obj
 0001:0000533c       ?removeElement@?$Dar@PAVDesktopIcon@vgui@@@vgui@@QAEXPAVDesktopIcon@2@@Z 1000633c f i ev_hldm.obj
 0001:00005366       ?removeAll@?$Dar@PAVDesktopIcon@vgui@@@vgui@@QAEXXZ 10006366 f i ev_hldm.obj
 0001:0000536a       ??A?$Dar@PAVDesktopIcon@vgui@@@vgui@@QAEPAVDesktopIcon@1@H@Z 1000636a f i ev_hldm.obj
 0001:00005383       ??0?$Dar@PAVChangeSignal@vgui@@@vgui@@QAE@XZ 10006383 f i ev_hldm.obj
 0001:0000539b       ??0?$Dar@PAVChangeSignal@vgui@@@vgui@@QAE@H@Z 1000639b f i ev_hldm.obj
 0001:000053b7       ?ensureCapacity@?$Dar@PAVChangeSignal@vgui@@@vgui@@QAEXH@Z 100063b7 f i ev_hldm.obj
 0001:00005426       ?setCount@?$Dar@PAVChangeSignal@vgui@@@vgui@@QAEXH@Z 10006426 f i ev_hldm.obj
 0001:00005438       ?getCount@?$Dar@PAVChangeSignal@vgui@@@vgui@@QAEHXZ 10006438 f i ev_hldm.obj
 0001:0000543b       ?addElement@?$Dar@PAVChangeSignal@vgui@@@vgui@@QAEXPAVChangeSignal@2@@Z 1000643b f i ev_hldm.obj
 0001:00005459       ?hasElement@?$Dar@PAVChangeSignal@vgui@@@vgui@@QAE_NPAVChangeSignal@2@@Z 10006459 f i ev_hldm.obj
 0001:0000547f       ?putElement@?$Dar@PAVChangeSignal@vgui@@@vgui@@QAEXPAVChangeSignal@2@@Z 1000647f f i ev_hldm.obj
 0001:000054b6       ?insertElementAt@?$Dar@PAVChangeSignal@vgui@@@vgui@@QAEXPAVChangeSignal@2@H@Z 100064b6 f i ev_hldm.obj
 0001:00005521       ?setElementAt@?$Dar@PAVChangeSignal@vgui@@@vgui@@QAEXPAVChangeSignal@2@H@Z 10006521 f i ev_hldm.obj
 0001:0000553a       ?removeElementAt@?$Dar@PAVChangeSignal@vgui@@@vgui@@QAEXH@Z 1000653a f i ev_hldm.obj
 0001:00005566       ?removeElement@?$Dar@PAVChangeSignal@vgui@@@vgui@@QAEXPAVChangeSignal@2@@Z 10006566 f i ev_hldm.obj
 0001:00005590       ?removeAll@?$Dar@PAVChangeSignal@vgui@@@vgui@@QAEXXZ 10006590 f i ev_hldm.obj
 0001:00005594       ??A?$Dar@PAVChangeSignal@vgui@@@vgui@@QAEPAVChangeSignal@1@H@Z 10006594 f i ev_hldm.obj
 0001:000055ad       ??0?$Dar@PAVPanel@vgui@@@vgui@@QAE@XZ 100065ad f i ev_hldm.obj
 0001:000055c5       ??0?$Dar@PAVPanel@vgui@@@vgui@@QAE@H@Z 100065c5 f i ev_hldm.obj
 0001:000055e1       ?ensureCapacity@?$Dar@PAVPanel@vgui@@@vgui@@QAEXH@Z 100065e1 f i ev_hldm.obj
 0001:00005650       ?setCount@?$Dar@PAVPanel@vgui@@@vgui@@QAEXH@Z 10006650 f i ev_hldm.obj
 0001:00005662       ?getCount@?$Dar@PAVPanel@vgui@@@vgui@@QAEHXZ 10006662 f i ev_hldm.obj
 0001:00005665       ?addElement@?$Dar@PAVPanel@vgui@@@vgui@@QAEXPAVPanel@2@@Z 10006665 f i ev_hldm.obj
 0001:00005683       ?hasElement@?$Dar@PAVPanel@vgui@@@vgui@@QAE_NPAVPanel@2@@Z 10006683 f i ev_hldm.obj
 0001:000056a9       ?putElement@?$Dar@PAVPanel@vgui@@@vgui@@QAEXPAVPanel@2@@Z 100066a9 f i ev_hldm.obj
 0001:000056e0       ?insertElementAt@?$Dar@PAVPanel@vgui@@@vgui@@QAEXPAVPanel@2@H@Z 100066e0 f i ev_hldm.obj
 0001:0000574b       ?setElementAt@?$Dar@PAVPanel@vgui@@@vgui@@QAEXPAVPanel@2@H@Z 1000674b f i ev_hldm.obj
 0001:00005764       ?removeElementAt@?$Dar@PAVPanel@vgui@@@vgui@@QAEXH@Z 10006764 f i ev_hldm.obj
 0001:00005790       ?removeElement@?$Dar@PAVPanel@vgui@@@vgui@@QAEXPAVPanel@2@@Z 10006790 f i ev_hldm.obj
 0001:000057ba       ?removeAll@?$Dar@PAVPanel@vgui@@@vgui@@QAEXXZ 100067ba f i ev_hldm.obj
 0001:000057be       ??A?$Dar@PAVPanel@vgui@@@vgui@@QAEPAVPanel@1@H@Z 100067be f i ev_hldm.obj
 0001:000057d7       ??0?$Dar@PAVLabel@vgui@@@vgui@@QAE@XZ 100067d7 f i ev_hldm.obj
 0001:000057ef       ??0?$Dar@PAVLabel@vgui@@@vgui@@QAE@H@Z 100067ef f i ev_hldm.obj
 0001:0000580b       ?ensureCapacity@?$Dar@PAVLabel@vgui@@@vgui@@QAEXH@Z 1000680b f i ev_hldm.obj
 0001:0000587a       ?setCount@?$Dar@PAVLabel@vgui@@@vgui@@QAEXH@Z 1000687a f i ev_hldm.obj
 0001:0000588c       ?getCount@?$Dar@PAVLabel@vgui@@@vgui@@QAEHXZ 1000688c f i ev_hldm.obj
 0001:0000588f       ?addElement@?$Dar@PAVLabel@vgui@@@vgui@@QAEXPAVLabel@2@@Z 1000688f f i ev_hldm.obj
 0001:000058ad       ?hasElement@?$Dar@PAVLabel@vgui@@@vgui@@QAE_NPAVLabel@2@@Z 100068ad f i ev_hldm.obj
 0001:000058d3       ?putElement@?$Dar@PAVLabel@vgui@@@vgui@@QAEXPAVLabel@2@@Z 100068d3 f i ev_hldm.obj
 0001:0000590a       ?insertElementAt@?$Dar@PAVLabel@vgui@@@vgui@@QAEXPAVLabel@2@H@Z 1000690a f i ev_hldm.obj
 0001:00005975       ?setElementAt@?$Dar@PAVLabel@vgui@@@vgui@@QAEXPAVLabel@2@H@Z 10006975 f i ev_hldm.obj
 0001:0000598e       ?removeElementAt@?$Dar@PAVLabel@vgui@@@vgui@@QAEXH@Z 1000698e f i ev_hldm.obj
 0001:000059ba       ?removeElement@?$Dar@PAVLabel@vgui@@@vgui@@QAEXPAVLabel@2@@Z 100069ba f i ev_hldm.obj
 0001:000059e4       ?removeAll@?$Dar@PAVLabel@vgui@@@vgui@@QAEXXZ 100069e4 f i ev_hldm.obj
 0001:000059e8       ??A?$Dar@PAVLabel@vgui@@@vgui@@QAEPAVLabel@1@H@Z 100069e8 f i ev_hldm.obj
 0001:00005a01       ??0?$Dar@PAVRepaintSignal@vgui@@@vgui@@QAE@XZ 10006a01 f i ev_hldm.obj
 0001:00005a19       ??0?$Dar@PAVRepaintSignal@vgui@@@vgui@@QAE@H@Z 10006a19 f i ev_hldm.obj
 0001:00005a35       ?ensureCapacity@?$Dar@PAVRepaintSignal@vgui@@@vgui@@QAEXH@Z 10006a35 f i ev_hldm.obj
 0001:00005aa4       ?setCount@?$Dar@PAVRepaintSignal@vgui@@@vgui@@QAEXH@Z 10006aa4 f i ev_hldm.obj
 0001:00005ab6       ?getCount@?$Dar@PAVRepaintSignal@vgui@@@vgui@@QAEHXZ 10006ab6 f i ev_hldm.obj
 0001:00005ab9       ?addElement@?$Dar@PAVRepaintSignal@vgui@@@vgui@@QAEXPAVRepaintSignal@2@@Z 10006ab9 f i ev_hldm.obj
 0001:00005ad7       ?hasElement@?$Dar@PAVRepaintSignal@vgui@@@vgui@@QAE_NPAVRepaintSignal@2@@Z 10006ad7 f i ev_hldm.obj
 0001:00005afd       ?putElement@?$Dar@PAVRepaintSignal@vgui@@@vgui@@QAEXPAVRepaintSignal@2@@Z 10006afd f i ev_hldm.obj
 0001:00005b34       ?insertElementAt@?$Dar@PAVRepaintSignal@vgui@@@vgui@@QAEXPAVRepaintSignal@2@H@Z 10006b34 f i ev_hldm.obj
 0001:00005b9f       ?setElementAt@?$Dar@PAVRepaintSignal@vgui@@@vgui@@QAEXPAVRepaintSignal@2@H@Z 10006b9f f i ev_hldm.obj
 0001:00005bb8       ?removeElementAt@?$Dar@PAVRepaintSignal@vgui@@@vgui@@QAEXH@Z 10006bb8 f i ev_hldm.obj
 0001:00005be4       ?removeElement@?$Dar@PAVRepaintSignal@vgui@@@vgui@@QAEXPAVRepaintSignal@2@@Z 10006be4 f i ev_hldm.obj
 0001:00005c0e       ?removeAll@?$Dar@PAVRepaintSignal@vgui@@@vgui@@QAEXXZ 10006c0e f i ev_hldm.obj
 0001:00005c12       ??A?$Dar@PAVRepaintSignal@vgui@@@vgui@@QAEPAVRepaintSignal@1@H@Z 10006c12 f i ev_hldm.obj
 0001:00005c49       ?EMIT_SOUND_DYN@@YAXPAUedict_s@@HPBDMMHH@Z 10006c49 f   hl_baseentity.obj
 0001:00005c4a       ?TakeHealth@CBaseEntity@@UAEHMH@Z 10006c4a f   hl_baseentity.obj
 0001:00005c50       ?TakeDamage@CBaseEntity@@UAEHPAUentvars_s@@0MH@Z 10006c50 f   hl_baseentity.obj
 0001:00005c56       ?GetNextTarget@CBaseEntity@@UAEPAV1@XZ 10006c56 f   hl_baseentity.obj
 0001:00005c59       ?Save@CBaseEntity@@UAEHAAVCSave@@@Z 10006c59 f   hl_baseentity.obj
 0001:00005c5f       ?Restore@CBaseEntity@@UAEHAAVCRestore@@@Z 10006c5f f   hl_baseentity.obj
 0001:00005c65       ?SetObjectCollisionBox@CBaseEntity@@UAEXXZ 10006c65 f   hl_baseentity.obj
 0001:00005c66       ?Intersects@CBaseEntity@@QAEHPAV1@@Z 10006c66 f   hl_baseentity.obj
 0001:00005c6b       ?MakeDormant@CBaseEntity@@QAEXXZ 10006c6b f   hl_baseentity.obj
 0001:00005c6c       ?IsDormant@CBaseEntity@@QAEHXZ 10006c6c f   hl_baseentity.obj
 0001:00005c6f       ?IsInWorld@CBaseEntity@@UAEHXZ 10006c6f f   hl_baseentity.obj
 0001:00005c73       ?ShouldToggle@CBaseEntity@@QAEHW4USE_TYPE@@H@Z 10006c73 f   hl_baseentity.obj
 0001:00005c78       ?DamageDecal@CBaseEntity@@UAEHH@Z 10006c78 f   hl_baseentity.obj
 0001:00005c7e       ?Create@CBaseEntity@@SAPAV1@PADABVVector@@1PAUedict_s@@@Z 10006c7e f   hl_baseentity.obj
 0001:00005c81       ?SUB_Remove@CBaseEntity@@QAEXXZ 10006c81 f   hl_baseentity.obj
 0001:00005c82       ?KeyValue@CBaseDelay@@UAEXPAUKeyValueData_s@@@Z 10006c82 f   hl_baseentity.obj
 0001:00005c85       ?Restore@CBaseDelay@@UAEHAAVCRestore@@@Z 10006c85 f   hl_baseentity.obj
 0001:00005c8b       ?Save@CBaseDelay@@UAEHAAVCSave@@@Z 10006c8b f   hl_baseentity.obj
 0001:00005c91       ?Restore@CBaseAnimating@@UAEHAAVCRestore@@@Z 10006c91 f   hl_baseentity.obj
 0001:00005c97       ?Save@CBaseAnimating@@UAEHAAVCSave@@@Z 10006c97 f   hl_baseentity.obj
 0001:00005c9d       ?DBG_EntOfVars@@YAPAUedict_s@@PBUentvars_s@@@Z 10006c9d f   hl_baseentity.obj
 0001:00005ca0       ?DBG_AssertFunction@@YAXHPBD0H0@Z 10006ca0 f   hl_baseentity.obj
 0001:00005ca1       ?UTIL_PrecacheOther@@YAXPBD@Z 10006ca1 f   hl_baseentity.obj
 0001:00005ca2       ?UTIL_BloodDrips@@YAXABVVector@@0HH@Z 10006ca2 f   hl_baseentity.obj
 0001:00005ca3       ?UTIL_DecalTrace@@YAXPAUTraceResult@@H@Z 10006ca3 f   hl_baseentity.obj
 0001:00005ca4       ?UTIL_GunshotDecalTrace@@YAXPAUTraceResult@@H@Z 10006ca4 f   hl_baseentity.obj
 0001:00005ca5       ?UTIL_MakeVectors@@YAXABVVector@@@Z 10006ca5 f   hl_baseentity.obj
 0001:00005ca6       ?UTIL_IsValidEntity@@YAHPAUedict_s@@@Z 10006ca6 f   hl_baseentity.obj
 0001:00005caa       ?UTIL_SetOrigin@@YAXPAUentvars_s@@ABVVector@@@Z 10006caa f   hl_baseentity.obj
 0001:00005cab       ?UTIL_GetNextBestWeapon@@YAHPAVCBasePlayer@@PAVCBasePlayerItem@@@Z 10006cab f   hl_baseentity.obj
 0001:00005caf       ?UTIL_LogPrintf@@YAXPADZZ  10006caf f   hl_baseentity.obj
 0001:00005cb0       ?UTIL_ClientPrintAll@@YAXHPBD0000@Z 10006cb0 f   hl_baseentity.obj
 0001:00005cb1       ?ClientPrint@@YAXPAUentvars_s@@HPBD1111@Z 10006cb1 f   hl_baseentity.obj
 0001:00005cb2       ?Restore@CBaseToggle@@UAEHAAVCRestore@@@Z 10006cb2 f   hl_baseentity.obj
 0001:00005cb8       ?Save@CBaseToggle@@UAEHAAVCSave@@@Z 10006cb8 f   hl_baseentity.obj
 0001:00005cbe       ?KeyValue@CBaseToggle@@UAEXPAUKeyValueData_s@@@Z 10006cbe f   hl_baseentity.obj
 0001:00005cc1       ?BounceSound@CGrenade@@UAEXXZ 10006cc1 f   hl_baseentity.obj
 0001:00005cc2       ?Explode@CGrenade@@QAEXVVector@@0@Z 10006cc2 f   hl_baseentity.obj
 0001:00005cc5       ?Explode@CGrenade@@QAEXPAUTraceResult@@H@Z 10006cc5 f   hl_baseentity.obj
 0001:00005cc8       ?Killed@CGrenade@@UAEXPAUentvars_s@@H@Z 10006cc8 f   hl_baseentity.obj
 0001:00005ccb       ?Spawn@CGrenade@@UAEXXZ    10006ccb f   hl_baseentity.obj
 0001:00005ccc       ?ShootTimed@CGrenade@@SAPAV1@PAUentvars_s@@VVector@@1M@Z 10006ccc f   hl_baseentity.obj
 0001:00005ccf       ?ShootContact@CGrenade@@SAPAV1@PAUentvars_s@@VVector@@1@Z 10006ccf f   hl_baseentity.obj
 0001:00005cd2       ?DetonateUse@CGrenade@@QAEXPAVCBaseEntity@@0W4USE_TYPE@@M@Z 10006cd2 f   hl_baseentity.obj
 0001:00005cd5       ?UTIL_Remove@@YAXPAVCBaseEntity@@@Z 10006cd5 f   hl_baseentity.obj
 0001:00005cd6       ?UTIL_SetSize@@YAXPAUentvars_s@@ABVVector@@1@Z 10006cd6 f   hl_baseentity.obj
 0001:00005cd7       ?UTIL_FindEntityInSphere@@YAPAVCBaseEntity@@PAV1@ABVVector@@M@Z 10006cd7 f   hl_baseentity.obj
 0001:00005cda       ?UTIL_VecToAngles@@YA?AVVector@@ABV1@@Z 10006cda f   hl_baseentity.obj
 0001:00005cf9       ?SpriteCreate@CSprite@@SAPAV1@PBDABVVector@@H@Z 10006cf9 f   hl_baseentity.obj
 0001:00005cfc       ?PointEntInit@CBeam@@QAEXABVVector@@H@Z 10006cfc f   hl_baseentity.obj
 0001:00005cff       ?BeamCreate@CBeam@@SAPAV1@PBDH@Z 10006cff f   hl_baseentity.obj
 0001:00005d02       ?Expand@CSprite@@QAEXMM@Z  10006d02 f   hl_baseentity.obj
 0001:00005d05       ?CheckTraceHullAttack@CBaseMonster@@QAEPAVCBaseEntity@@MHH@Z 10006d05 f   hl_baseentity.obj
 0001:00005d0a       ?Eat@CBaseMonster@@QAEXM@Z 10006d0a f   hl_baseentity.obj
 0001:00005d0d       ?FShouldEat@CBaseMonster@@QAEHXZ 10006d0d f   hl_baseentity.obj
 0001:00005d11       ?BarnacleVictimBitten@CBaseMonster@@UAEXPAUentvars_s@@@Z 10006d11 f   hl_baseentity.obj
 0001:00005d14       ?BarnacleVictimReleased@CBaseMonster@@UAEXXZ 10006d14 f   hl_baseentity.obj
 0001:00005d15       ?Listen@CBaseMonster@@QAEXXZ 10006d15 f   hl_baseentity.obj
 0001:00005d16       ?FLSoundVolume@CBaseMonster@@QAEMPAVCSound@@@Z 10006d16 f   hl_baseentity.obj
 0001:00005d1f       ?FValidateHintType@CBaseMonster@@UAEHF@Z 10006d1f f   hl_baseentity.obj
 0001:00005d24       ?Look@CBaseMonster@@UAEXH@Z 10006d24 f   hl_baseentity.obj
 0001:00005d27       ?ISoundMask@CBaseMonster@@UAEHXZ 10006d27 f   hl_baseentity.obj
 0001:00005d2a       ?PBestSound@CBaseMonster@@UAEPAVCSound@@XZ 10006d2a f   hl_baseentity.obj
 0001:00005d2d       ?PBestScent@CBaseMonster@@UAEPAVCSound@@XZ 10006d2d f   hl_baseentity.obj
 0001:00005d30       ?StudioFrameAdvance@CBaseAnimating@@QAEMM@Z 10006d30 f   hl_baseentity.obj
 0001:00005d39       ?MonsterThink@CBaseMonster@@UAEXXZ 10006d39 f   hl_baseentity.obj
 0001:00005d3a       ?MonsterUse@CBaseMonster@@QAEXPAVCBaseEntity@@0W4USE_TYPE@@M@Z 10006d3a f   hl_baseentity.obj
 0001:00005d3d       ?IgnoreConditions@CBaseMonster@@UAEHXZ 10006d3d f   hl_baseentity.obj
 0001:00005d40       ?RouteClear@CBaseMonster@@QAEXXZ 10006d40 f   hl_baseentity.obj
 0001:00005d41       ?RouteNew@CBaseMonster@@QAEXXZ 10006d41 f   hl_baseentity.obj
 0001:00005d42       ?FRouteClear@CBaseMonster@@QAEHXZ 10006d42 f   hl_baseentity.obj
 0001:00005d45       ?FRefreshRoute@CBaseMonster@@QAEHXZ 10006d45 f   hl_baseentity.obj
 0001:00005d48       ?MoveToEnemy@CBaseMonster@@QAEHW4Activity@@M@Z 10006d48 f   hl_baseentity.obj
 0001:00005d4d       ?MoveToLocation@CBaseMonster@@QAEHW4Activity@@MABVVector@@@Z 10006d4d f   hl_baseentity.obj
 0001:00005d52       ?MoveToTarget@CBaseMonster@@QAEHW4Activity@@M@Z 10006d52 f   hl_baseentity.obj
 0001:00005d57       ?MoveToNode@CBaseMonster@@QAEHW4Activity@@MABVVector@@@Z 10006d57 f   hl_baseentity.obj
 0001:00005d5c       ?ShouldSimplify@@YAHH@Z    10006d5c f   hl_baseentity.obj
 0001:00005d60       ?RouteSimplify@CBaseMonster@@QAEXPAVCBaseEntity@@@Z 10006d60 f   hl_baseentity.obj
 0001:00005d63       ?FBecomeProne@CBaseMonster@@UAEHXZ 10006d63 f   hl_baseentity.obj
 0001:00005d67       ?CheckRangeAttack1@CBaseMonster@@UAEHMM@Z 10006d67 f   hl_baseentity.obj
 0001:00005d6c       ?CheckRangeAttack2@CBaseMonster@@UAEHMM@Z 10006d6c f   hl_baseentity.obj
 0001:00005d71       ?CheckMeleeAttack1@CBaseMonster@@UAEHMM@Z 10006d71 f   hl_baseentity.obj
 0001:00005d76       ?CheckMeleeAttack2@CBaseMonster@@UAEHMM@Z 10006d76 f   hl_baseentity.obj
 0001:00005d7b       ?CheckAttacks@CBaseMonster@@QAEXPAVCBaseEntity@@M@Z 10006d7b f   hl_baseentity.obj
 0001:00005d7e       ?FCanCheckAttacks@CBaseMonster@@UAEHXZ 10006d7e f   hl_baseentity.obj
 0001:00005d81       ?CheckEnemy@CBaseMonster@@UAEHPAVCBaseEntity@@@Z 10006d81 f   hl_baseentity.obj
 0001:00005d86       ?PushEnemy@CBaseMonster@@QAEXPAVCBaseEntity@@AAVVector@@@Z 10006d86 f   hl_baseentity.obj
 0001:00005d89       ?PopEnemy@CBaseMonster@@QAEHXZ 10006d89 f   hl_baseentity.obj
 0001:00005d8c       ?SetActivity@CBaseMonster@@UAEXW4Activity@@@Z 10006d8c f   hl_baseentity.obj
 0001:00005d8f       ?SetSequenceByName@CBaseMonster@@QAEXPAD@Z 10006d8f f   hl_baseentity.obj
 0001:00005d92       ?CheckLocalMove@CBaseMonster@@UAEHABVVector@@0PAVCBaseEntity@@PAM@Z 10006d92 f   hl_baseentity.obj
 0001:00005d97       ?OpenDoorAndWait@CBaseMonster@@QAEMPAUentvars_s@@@Z 10006d97 f   hl_baseentity.obj
 0001:00005da0       ?AdvanceRoute@CBaseMonster@@QAEXM@Z 10006da0 f   hl_baseentity.obj
 0001:00005da3       ?RouteClassify@CBaseMonster@@QAEHH@Z 10006da3 f   hl_baseentity.obj
 0001:00005da8       ?BuildRoute@CBaseMonster@@QAEHABVVector@@HPAVCBaseEntity@@@Z 10006da8 f   hl_baseentity.obj
 0001:00005dad       ?InsertWaypoint@CBaseMonster@@QAEXVVector@@H@Z 10006dad f   hl_baseentity.obj
 0001:00005db0       ?FTriangulate@CBaseMonster@@UAEHABVVector@@0MPAVCBaseEntity@@PAV2@@Z 10006db0 f   hl_baseentity.obj
 0001:00005db5       ?Move@CBaseMonster@@UAEXM@Z 10006db5 f   hl_baseentity.obj
 0001:00005db8       ?ShouldAdvanceRoute@CBaseMonster@@UAEHM@Z 10006db8 f   hl_baseentity.obj
 0001:00005dbd       ?MoveExecute@CBaseMonster@@UAEXPAVCBaseEntity@@ABVVector@@M@Z 10006dbd f   hl_baseentity.obj
 0001:00005dc0       ?MonsterInit@CBaseMonster@@UAEXXZ 10006dc0 f   hl_baseentity.obj
 0001:00005dc1       ?MonsterInitThink@CBaseMonster@@QAEXXZ 10006dc1 f   hl_baseentity.obj
 0001:00005dc2       ?StartMonster@CBaseMonster@@UAEXXZ 10006dc2 f   hl_baseentity.obj
 0001:00005dc3       ?MovementComplete@CBaseMonster@@QAEXXZ 10006dc3 f   hl_baseentity.obj
 0001:00005dc4       ?TaskIsRunning@CBaseMonster@@QAEHXZ 10006dc4 f   hl_baseentity.obj
 0001:00005dc7       ?IRelationship@CBaseMonster@@UAEHPAVCBaseEntity@@@Z 10006dc7 f   hl_baseentity.obj
 0001:00005dcc       ?FindCover@CBaseMonster@@UAEHVVector@@0MM@Z 10006dcc f   hl_baseentity.obj
 0001:00005dd1       ?BuildNearestRoute@CBaseMonster@@UAEHVVector@@0MM@Z 10006dd1 f   hl_baseentity.obj
 0001:00005dd6       ?BestVisibleEnemy@CBaseMonster@@UAEPAVCBaseEntity@@XZ 10006dd6 f   hl_baseentity.obj
 0001:00005dd9       ?FInViewCone@CBaseMonster@@UAEHPAVCBaseEntity@@@Z 10006dd9 f   hl_baseentity.obj
 0001:00005dde       ?FInViewCone@CBaseMonster@@UAEHPAVVector@@@Z 10006dde f   hl_baseentity.obj
 0001:00005de3       ?FVisible@CBaseEntity@@UAEHPAV1@@Z 10006de3 f   hl_baseentity.obj
 0001:00005de8       ?FVisible@CBaseEntity@@UAEHABVVector@@@Z 10006de8 f   hl_baseentity.obj
 0001:00005ded       ?MakeIdealYaw@CBaseMonster@@QAEXVVector@@@Z 10006ded f   hl_baseentity.obj
 0001:00005df0       ?FlYawDiff@CBaseMonster@@QAEMXZ 10006df0 f   hl_baseentity.obj
 0001:00005df7       ?ChangeYaw@CBaseMonster@@UAEMH@Z 10006df7 f   hl_baseentity.obj
 0001:00005e00       ?VecToYaw@CBaseMonster@@QAEMVVector@@@Z 10006e00 f   hl_baseentity.obj
 0001:00005e09       ?LookupActivity@CBaseAnimating@@QAEHH@Z 10006e09 f   hl_baseentity.obj
 0001:00005e0e       ?LookupActivityHeaviest@CBaseAnimating@@QAEHH@Z 10006e0e f   hl_baseentity.obj
 0001:00005e13       ?SetEyePosition@CBaseMonster@@QAEXXZ 10006e13 f   hl_baseentity.obj
 0001:00005e14       ?LookupSequence@CBaseAnimating@@QAEHPBD@Z 10006e14 f   hl_baseentity.obj
 0001:00005e19       ?ResetSequenceInfo@CBaseAnimating@@QAEXXZ 10006e19 f   hl_baseentity.obj
 0001:00005e1a       ?GetSequenceFlags@CBaseAnimating@@QAEHXZ 10006e1a f   hl_baseentity.obj
 0001:00005e1d       ?DispatchAnimEvents@CBaseAnimating@@QAEXM@Z 10006e1d f   hl_baseentity.obj
 0001:00005e20       ?HandleAnimEvent@CBaseMonster@@UAEXPAUMonsterEvent_t@@@Z 10006e20 f   hl_baseentity.obj
 0001:00005e23       ?SetBoneController@CBaseAnimating@@QAEMHM@Z 10006e23 f   hl_baseentity.obj
 0001:00005e2c       ?InitBoneControllers@CBaseAnimating@@QAEXXZ 10006e2c f   hl_baseentity.obj
 0001:00005e2d       ?SetBlending@CBaseAnimating@@QAEMHM@Z 10006e2d f   hl_baseentity.obj
 0001:00005e36       ?GetBonePosition@CBaseAnimating@@QAEXHAAVVector@@0@Z 10006e36 f   hl_baseentity.obj
 0001:00005e39       ?GetAttachment@CBaseAnimating@@QAEXHAAVVector@@0@Z 10006e39 f   hl_baseentity.obj
 0001:00005e3c       ?FindTransition@CBaseAnimating@@QAEHHHPAH@Z 10006e3c f   hl_baseentity.obj
 0001:00005e42       ?GetAutomovement@CBaseAnimating@@QAEXAAVVector@@0M@Z 10006e42 f   hl_baseentity.obj
 0001:00005e45       ?SetBodygroup@CBaseAnimating@@QAEXHH@Z 10006e45 f   hl_baseentity.obj
 0001:00005e48       ?GetBodygroup@CBaseAnimating@@QAEHH@Z 10006e48 f   hl_baseentity.obj
 0001:00005e4d       ?GetGunPosition@CBaseMonster@@UAE?AVVector@@XZ 10006e4d f   hl_baseentity.obj
 0001:00005e6e       ?TraceAttack@CBaseEntity@@UAEXPAUentvars_s@@MVVector@@PAUTraceResult@@H@Z 10006e6e f   hl_baseentity.obj
 0001:00005e71       ?FireBullets@CBaseEntity@@QAEXKVVector@@00MHHHPAUentvars_s@@@Z 10006e71 f   hl_baseentity.obj
 0001:00005e74       ?TraceBleed@CBaseEntity@@UAEXMVVector@@PAUTraceResult@@H@Z 10006e74 f   hl_baseentity.obj
 0001:00005e77       ?MakeDamageBloodDecal@CBaseMonster@@QAEXHMPAUTraceResult@@ABVVector@@@Z 10006e77 f   hl_baseentity.obj
 0001:00005e7a       ?FGetNodeRoute@CBaseMonster@@QAEHVVector@@@Z 10006e7a f   hl_baseentity.obj
 0001:00005e80       ?FindHintNode@CBaseMonster@@QAEHXZ 10006e80 f   hl_baseentity.obj
 0001:00005e84       ?ReportAIState@CBaseMonster@@UAEXXZ 10006e84 f   hl_baseentity.obj
 0001:00005e85       ?KeyValue@CBaseMonster@@UAEXPAUKeyValueData_s@@@Z 10006e85 f   hl_baseentity.obj
 0001:00005e88       ?FCheckAITrigger@CBaseMonster@@QAEHXZ 10006e88 f   hl_baseentity.obj
 0001:00005e8b       ?CanPlaySequence@CBaseMonster@@UAEHHH@Z 10006e8b f   hl_baseentity.obj
 0001:00005e90       ?FindLateralCover@CBaseMonster@@QAEHABVVector@@0@Z 10006e90 f   hl_baseentity.obj
 0001:00005e95       ?ShootAtEnemy@CBaseMonster@@QAE?AVVector@@ABV2@@Z 10006e95 f   hl_baseentity.obj
 0001:00005eb6       ?FacingIdeal@CBaseMonster@@QAEHXZ 10006eb6 f   hl_baseentity.obj
 0001:00005eb9       ?FCanActiveIdle@CBaseMonster@@UAEHXZ 10006eb9 f   hl_baseentity.obj
 0001:00005ebc       ?PlaySentence@CBaseMonster@@UAEXPBDMMM@Z 10006ebc f   hl_baseentity.obj
 0001:00005ebf       ?PlayScriptedSentence@CBaseMonster@@UAEXPBDMMMHPAVCBaseEntity@@@Z 10006ebf f   hl_baseentity.obj
 0001:00005ec2       ?SentenceStop@CBaseMonster@@UAEXXZ 10006ec2 f   hl_baseentity.obj
 0001:00005ec3       ?CorpseFallThink@CBaseMonster@@QAEXXZ 10006ec3 f   hl_baseentity.obj
 0001:00005ec4       ?MonsterInitDead@CBaseMonster@@UAEXXZ 10006ec4 f   hl_baseentity.obj
 0001:00005ec5       ?BBoxFlat@CBaseMonster@@QAEHXZ 10006ec5 f   hl_baseentity.obj
 0001:00005ec9       ?GetEnemy@CBaseMonster@@QAEHXZ 10006ec9 f   hl_baseentity.obj
 0001:00005ecc       ?TraceAttack@CBaseMonster@@UAEXPAUentvars_s@@MVVector@@PAUTraceResult@@H@Z 10006ecc f   hl_baseentity.obj
 0001:00005ecf       ?DropItem@CBaseMonster@@QAEPAVCBaseEntity@@PADABVVector@@1@Z 10006ecf f   hl_baseentity.obj
 0001:00005ed4       ?ShouldFadeOnDeath@CBaseMonster@@UAEHXZ 10006ed4 f   hl_baseentity.obj
 0001:00005ed7       ?RadiusDamage@CBaseMonster@@QAEXPAUentvars_s@@0MHH@Z 10006ed7 f   hl_baseentity.obj
 0001:00005eda       ?RadiusDamage@CBaseMonster@@QAEXVVector@@PAUentvars_s@@1MHH@Z 10006eda f   hl_baseentity.obj
 0001:00005edd       ?FadeMonster@CBaseMonster@@UAEXXZ 10006edd f   hl_baseentity.obj
 0001:00005ede       ?GibMonster@CBaseMonster@@UAEXXZ 10006ede f   hl_baseentity.obj
 0001:00005edf       ?HasHumanGibs@CBaseMonster@@UAEHXZ 10006edf f   hl_baseentity.obj
 0001:00005ee2       ?HasAlienGibs@CBaseMonster@@UAEHXZ 10006ee2 f   hl_baseentity.obj
 0001:00005ee5       ?GetDeathActivity@CBaseMonster@@UAE?AW4Activity@@XZ 10006ee5 f   hl_baseentity.obj
 0001:00005ee9       ?GetIdealState@CBaseMonster@@UAE?AW4MONSTERSTATE@@XZ 10006ee9 f   hl_baseentity.obj
 0001:00005eed       ?GetScheduleOfType@CBaseMonster@@UAEPAUSchedule_t@@H@Z 10006eed f   hl_baseentity.obj
 0001:00005ef2       ?GetSchedule@CBaseMonster@@UAEPAUSchedule_t@@XZ 10006ef2 f   hl_baseentity.obj
 0001:00005ef5       ?RunTask@CBaseMonster@@UAEXPAUTask_t@@@Z 10006ef5 f   hl_baseentity.obj
 0001:00005ef8       ?StartTask@CBaseMonster@@UAEXPAUTask_t@@@Z 10006ef8 f   hl_baseentity.obj
 0001:00005efb       ?ScheduleFromName@CBaseMonster@@UAEPAUSchedule_t@@PBD@Z 10006efb f   hl_baseentity.obj
 0001:00005f00       ?BecomeDead@CBaseMonster@@UAEXXZ 10006f00 f   hl_baseentity.obj
 0001:00005f01       ?RunAI@CBaseMonster@@UAEXXZ 10006f01 f   hl_baseentity.obj
 0001:00005f02       ?Killed@CBaseMonster@@UAEXPAUentvars_s@@H@Z 10006f02 f   hl_baseentity.obj
 0001:00005f05       ?TakeHealth@CBaseMonster@@UAEHMH@Z 10006f05 f   hl_baseentity.obj
 0001:00005f0a       ?TakeDamage@CBaseMonster@@UAEHPAUentvars_s@@0MH@Z 10006f0a f   hl_baseentity.obj
 0001:00005f0f       ?Restore@CBaseMonster@@UAEHAAVCRestore@@@Z 10006f0f f   hl_baseentity.obj
 0001:00005f15       ?Save@CBaseMonster@@UAEHAAVCSave@@@Z 10006f15 f   hl_baseentity.obj
 0001:00005f1b       ?TrainSpeed@@YAHHH@Z       10006f1b f   hl_baseentity.obj
 0001:00005f1e       ?DeathSound@CBasePlayer@@UAEXXZ 10006f1e f   hl_baseentity.obj
 0001:00005f1f       ?TakeHealth@CBasePlayer@@UAEHMH@Z 10006f1f f   hl_baseentity.obj
 0001:00005f24       ?TraceAttack@CBasePlayer@@UAEXPAUentvars_s@@MVVector@@PAUTraceResult@@H@Z 10006f24 f   hl_baseentity.obj
 0001:00005f27       ?TakeDamage@CBasePlayer@@UAEHPAUentvars_s@@0MH@Z 10006f27 f   hl_baseentity.obj
 0001:00005f2c       ?PackDeadPlayerItems@CBasePlayer@@QAEXXZ 10006f2c f   hl_baseentity.obj
 0001:00005f2d       ?RemoveAllItems@CBasePlayer@@QAEXH@Z 10006f2d f   hl_baseentity.obj
 0001:00005f30       ?SetAnimation@CBasePlayer@@QAEXW4PLAYER_ANIM@@@Z 10006f30 f   hl_baseentity.obj
 0001:00005f33       ?WaterMove@CBasePlayer@@QAEXXZ 10006f33 f   hl_baseentity.obj
 0001:00005f34       ?IsOnLadder@CBasePlayer@@QAEHXZ 10006f34 f   hl_baseentity.obj
 0001:00005f37       ?PlayerDeathThink@CBasePlayer@@QAEXXZ 10006f37 f   hl_baseentity.obj
 0001:00005f38       ?StartDeathCam@CBasePlayer@@QAEXXZ 10006f38 f   hl_baseentity.obj
 0001:00005f39       ?StartObserver@CBasePlayer@@QAEXVVector@@0@Z 10006f39 f   hl_baseentity.obj
 0001:00005f3c       ?PlayerUse@CBasePlayer@@QAEXXZ 10006f3c f   hl_baseentity.obj
 0001:00005f3d       ?Jump@CBasePlayer@@UAEXXZ  10006f3d f   hl_baseentity.obj
 0001:00005f3e       ?Duck@CBasePlayer@@UAEXXZ  10006f3e f   hl_baseentity.obj
 0001:00005f3f       ?Classify@CBasePlayer@@UAEHXZ 10006f3f f   hl_baseentity.obj
 0001:00005f42       ?PreThink@CBasePlayer@@UAEXXZ 10006f42 f   hl_baseentity.obj
 0001:00005f43       ?CheckTimeBasedDamage@CBasePlayer@@QAEXXZ 10006f43 f   hl_baseentity.obj
 0001:00005f44       ?UpdateGeigerCounter@CBasePlayer@@QAEXXZ 10006f44 f   hl_baseentity.obj
 0001:00005f45       ?CheckSuitUpdate@CBasePlayer@@QAEXXZ 10006f45 f   hl_baseentity.obj
 0001:00005f46       ?SetSuitUpdate@CBasePlayer@@QAEXPADHH@Z 10006f46 f   hl_baseentity.obj
 0001:00005f49       ?UpdatePlayerSound@CBasePlayer@@QAEXXZ 10006f49 f   hl_baseentity.obj
 0001:00005f4a       ?PostThink@CBasePlayer@@UAEXXZ 10006f4a f   hl_baseentity.obj
 0001:00005f4b       ?Precache@CBasePlayer@@UAEXXZ 10006f4b f   hl_baseentity.obj
 0001:00005f4c       ?Save@CBasePlayer@@UAEHAAVCSave@@@Z 10006f4c f   hl_baseentity.obj
 0001:00005f51       ?RenewItems@CBasePlayer@@QAEXXZ 10006f51 f   hl_baseentity.obj
 0001:00005f52       ?Restore@CBasePlayer@@UAEHAAVCRestore@@@Z 10006f52 f   hl_baseentity.obj
 0001:00005f57       ?SelectNextItem@CBasePlayer@@QAEXH@Z 10006f57 f   hl_baseentity.obj
 0001:00005f5a       ?HasWeapons@CBasePlayer@@QAEHXZ 10006f5a f   hl_baseentity.obj
 0001:00005f5d       ?SelectPrevItem@CBasePlayer@@QAEXH@Z 10006f5d f   hl_baseentity.obj
 0001:00005f60       ?FindEntityForward@@YAPAVCBaseEntity@@PAV1@@Z 10006f60 f   hl_baseentity.obj
 0001:00005f63       ?FlashlightIsOn@CBasePlayer@@QAEHXZ 10006f63 f   hl_baseentity.obj
 0001:00005f66       ?FlashlightTurnOn@CBasePlayer@@QAEXXZ 10006f66 f   hl_baseentity.obj
 0001:00005f67       ?FlashlightTurnOff@CBasePlayer@@QAEXXZ 10006f67 f   hl_baseentity.obj
 0001:00005f68       ?ForceClientDllUpdate@CBasePlayer@@QAEXXZ 10006f68 f   hl_baseentity.obj
 0001:00005f69       ?ImpulseCommands@CBasePlayer@@UAEXXZ 10006f69 f   hl_baseentity.obj
 0001:00005f6a       ?CheatImpulseCommands@CBasePlayer@@QAEXH@Z 10006f6a f   hl_baseentity.obj
 0001:00005f6d       ?AddPlayerItem@CBasePlayer@@UAEHPAVCBasePlayerItem@@@Z 10006f6d f   hl_baseentity.obj
 0001:00005f72       ?RemovePlayerItem@CBasePlayer@@UAEHPAVCBasePlayerItem@@@Z 10006f72 f   hl_baseentity.obj
 0001:00005f77       ?ItemPreFrame@CBasePlayer@@QAEXXZ 10006f77 f   hl_baseentity.obj
 0001:00005f78       ?ItemPostFrame@CBasePlayer@@QAEXXZ 10006f78 f   hl_baseentity.obj
 0001:00005f79       ?AmmoInventory@CBasePlayer@@QAEHH@Z 10006f79 f   hl_baseentity.obj
 0001:00005f7f       ?GetAmmoIndex@CBasePlayer@@SAHPBD@Z 10006f7f f   hl_baseentity.obj
 0001:00005f83       ?SendAmmoUpdate@CBasePlayer@@QAEXXZ 10006f83 f   hl_baseentity.obj
 0001:00005f84       ?UpdateClientData@CBasePlayer@@UAEXXZ 10006f84 f   hl_baseentity.obj
 0001:00005f85       ?FBecomeProne@CBasePlayer@@UAEHXZ 10006f85 f   hl_baseentity.obj
 0001:00005f89       ?BarnacleVictimBitten@CBasePlayer@@UAEXPAUentvars_s@@@Z 10006f89 f   hl_baseentity.obj
 0001:00005f8c       ?BarnacleVictimReleased@CBasePlayer@@UAEXXZ 10006f8c f   hl_baseentity.obj
 0001:00005f8d       ?Illumination@CBasePlayer@@UAEHXZ 10006f8d f   hl_baseentity.obj
 0001:00005f90       ?EnableControl@CBasePlayer@@QAEXH@Z 10006f90 f   hl_baseentity.obj
 0001:00005f93       ?GetAutoaimVector@CBasePlayer@@QAE?AVVector@@M@Z 10006f93 f   hl_baseentity.obj
 0001:00005fb4       ?AutoaimDeflection@CBasePlayer@@QAE?AVVector@@AAV2@MM@Z 10006fb4 f   hl_baseentity.obj
 0001:00005fd5       ?ResetAutoaim@CBasePlayer@@QAEXXZ 10006fd5 f   hl_baseentity.obj
 0001:00005fd6       ?SetCustomDecalFrames@CBasePlayer@@QAEXH@Z 10006fd6 f   hl_baseentity.obj
 0001:00005fd9       ?GetCustomDecalFrames@CBasePlayer@@QAEHXZ 10006fd9 f   hl_baseentity.obj
 0001:00005fdd       ?DropPlayerItem@CBasePlayer@@QAEXPAD@Z 10006fdd f   hl_baseentity.obj
 0001:00005fe0       ?HasPlayerItem@CBasePlayer@@QAEHPAVCBasePlayerItem@@@Z 10006fe0 f   hl_baseentity.obj
 0001:00005fe5       ?SwitchWeapon@CBasePlayer@@QAEHPAVCBasePlayerItem@@@Z 10006fe5 f   hl_baseentity.obj
 0001:00005fea       ?GetGunPosition@CBasePlayer@@UAE?AVVector@@XZ 10006fea f   hl_baseentity.obj
 0001:0000600b       ?TeamID@CBasePlayer@@UAEPBDXZ 1000700b f   hl_baseentity.obj
 0001:00006011       ?GiveAmmo@CBasePlayer@@UAEHHPADH@Z 10007011 f   hl_baseentity.obj
 0001:00006016       ?AddPoints@CBasePlayer@@UAEXHH@Z 10007016 f   hl_baseentity.obj
 0001:00006019       ?AddPointsToTeam@CBasePlayer@@UAEXHH@Z 10007019 f   hl_baseentity.obj
 0001:0000601c       ?ClearMultiDamage@@YAXXZ   1000701c f   hl_baseentity.obj
 0001:0000601d       ?ApplyMultiDamage@@YAXPAUentvars_s@@0@Z 1000701d f   hl_baseentity.obj
 0001:0000601e       ?AddMultiDamage@@YAXPAUentvars_s@@PAVCBaseEntity@@MH@Z 1000701e f   hl_baseentity.obj
 0001:0000601f       ?SpawnBlood@@YAXVVector@@HM@Z 1000701f f   hl_baseentity.obj
 0001:00006020       ?DamageDecal@@YAHPAVCBaseEntity@@H@Z 10007020 f   hl_baseentity.obj
 0001:00006023       ?DecalGunshot@@YAXPAUTraceResult@@H@Z 10007023 f   hl_baseentity.obj
 0001:00006024       ?SUB_CallUseToggle@CBaseEntity@@QAEXXZ 10007024 f i hl_baseentity.obj
 0001:00006037       ?EjectBrass@@YAXABVVector@@0MHH@Z 10007037 f   hl_baseentity.obj
 0001:00006038       ?AddAmmoNameToAmmoRegistry@@YAXPBD@Z 10007038 f   hl_baseentity.obj
 0001:00006039       ?Restore@CBasePlayerItem@@UAEHAAVCRestore@@@Z 10007039 f   hl_baseentity.obj
 0001:0000603f       ?Save@CBasePlayerItem@@UAEHAAVCSave@@@Z 1000703f f   hl_baseentity.obj
 0001:00006045       ?Restore@CBasePlayerWeapon@@UAEHAAVCRestore@@@Z 10007045 f   hl_baseentity.obj
 0001:0000604b       ?Save@CBasePlayerWeapon@@UAEHAAVCSave@@@Z 1000704b f   hl_baseentity.obj
 0001:00006051       ?SetObjectCollisionBox@CBasePlayerItem@@UAEXXZ 10007051 f   hl_baseentity.obj
 0001:00006052       ?FallInit@CBasePlayerItem@@QAEXXZ 10007052 f   hl_baseentity.obj
 0001:00006053       ?FallThink@CBasePlayerItem@@QAEXXZ 10007053 f   hl_baseentity.obj
 0001:00006054       ?Materialize@CBasePlayerItem@@QAEXXZ 10007054 f   hl_baseentity.obj
 0001:00006055       ?AttemptToMaterialize@CBasePlayerItem@@QAEXXZ 10007055 f   hl_baseentity.obj
 0001:00006056       ?CheckRespawn@CBasePlayerItem@@QAEXXZ 10007056 f   hl_baseentity.obj
 0001:00006057       ?Respawn@CBasePlayerItem@@UAEPAVCBaseEntity@@XZ 10007057 f   hl_baseentity.obj
 0001:0000605a       ?DefaultTouch@CBasePlayerItem@@QAEXPAVCBaseEntity@@@Z 1000705a f   hl_baseentity.obj
 0001:0000605d       ?DestroyItem@CBasePlayerItem@@QAEXXZ 1000705d f   hl_baseentity.obj
 0001:0000605e       ?AddToPlayer@CBasePlayerItem@@UAEHPAVCBasePlayer@@@Z 1000705e f   hl_baseentity.obj
 0001:00006064       ?Drop@CBasePlayerItem@@UAEXXZ 10007064 f   hl_baseentity.obj
 0001:00006065       ?Kill@CBasePlayerItem@@UAEXXZ 10007065 f   hl_baseentity.obj
 0001:00006066       ?Holster@CBasePlayerItem@@UAEXH@Z 10007066 f   hl_baseentity.obj
 0001:00006069       ?AttachToPlayer@CBasePlayerItem@@UAEXPAVCBasePlayer@@@Z 10007069 f   hl_baseentity.obj
 0001:0000606c       ?AddDuplicate@CBasePlayerWeapon@@UAEHPAVCBasePlayerItem@@@Z 1000706c f   hl_baseentity.obj
 0001:00006071       ?AddToPlayer@CBasePlayerWeapon@@UAEHPAVCBasePlayer@@@Z 10007071 f   hl_baseentity.obj
 0001:00006076       ?UpdateClientData@CBasePlayerWeapon@@UAEHPAVCBasePlayer@@@Z 10007076 f   hl_baseentity.obj
 0001:0000607b       ?AddPrimaryAmmo@CBasePlayerWeapon@@QAEHHPADHH@Z 1000707b f   hl_baseentity.obj
 0001:00006081       ?AddSecondaryAmmo@CBasePlayerWeapon@@QAEHHPADH@Z 10007081 f   hl_baseentity.obj
 0001:00006087       ?IsUseable@CBasePlayerWeapon@@UAEHXZ 10007087 f   hl_baseentity.obj
 0001:0000608b       ?PrimaryAmmoIndex@CBasePlayerWeapon@@UAEHXZ 1000708b f   hl_baseentity.obj
 0001:0000608f       ?SecondaryAmmoIndex@CBasePlayerWeapon@@UAEHXZ 1000708f f   hl_baseentity.obj
 0001:00006093       ?Spawn@CBasePlayerAmmo@@UAEXXZ 10007093 f   hl_baseentity.obj
 0001:00006094       ?Respawn@CBasePlayerAmmo@@UAEPAVCBaseEntity@@XZ 10007094 f   hl_baseentity.obj
 0001:00006097       ?Materialize@CBasePlayerAmmo@@QAEXXZ 10007097 f   hl_baseentity.obj
 0001:00006098       ?DefaultTouch@CBasePlayerAmmo@@QAEXPAVCBaseEntity@@@Z 10007098 f   hl_baseentity.obj
 0001:0000609b       ?ExtractAmmo@CBasePlayerWeapon@@UAEHPAV1@@Z 1000709b f   hl_baseentity.obj
 0001:000060a0       ?ExtractClipAmmo@CBasePlayerWeapon@@UAEHPAV1@@Z 100070a0 f   hl_baseentity.obj
 0001:000060a5       ?RetireWeapon@CBasePlayerWeapon@@UAEXXZ 100070a5 f   hl_baseentity.obj
 0001:000060a6       ?InsertSound@CSoundEnt@@SAXHABVVector@@HM@Z 100070a6 f   hl_baseentity.obj
 0001:000060a7       ?CallMonsterThink@CBaseMonster@@QAEXXZ 100070a7 f i hl_baseentity.obj
 0001:000060af       ?RadiusDamage@@YAXVVector@@PAUentvars_s@@1MMHH@Z 100070af f   hl_baseentity.obj
 0001:000060b0       ?Game_HookEvents@@YAXXZ    100070b0 f   hl_events.obj
 0001:000061ea       ?UpdateBeams@@YAXXZ        100071ea f   hl_objects.obj
 0001:000062c0       ?Game_AddObjects@@YAXXZ    100072c0 f   hl_objects.obj
 0001:000062fa       ??0entvars_s@@QAE@XZ       100072fa f i hl_weapons.obj
 0001:0000630c       ??0CBasePlayer@@QAE@XZ     1000730c f i hl_weapons.obj
 0001:0000631e       ??0CBaseMonster@@QAE@XZ    1000731e f i hl_weapons.obj
 0001:00006333       ?AlertMessage@@YAXW4ALERT_TYPE@@PADZZ 10007333 f   hl_weapons.obj
 0001:00006360       ?bIsMultiplayer@@YA_NXZ    10007360 f   hl_weapons.obj
 0001:0000636e       ?LoadVModel@@YAXPADPAVCBasePlayer@@@Z 1000736e f   hl_weapons.obj
 0001:00006388       ?HUD_PrepEntity@@YAXPAVCBaseEntity@@PAVCBasePlayer@@@Z 10007388 f   hl_weapons.obj
 0001:000063fc       ?Killed@CBaseEntity@@UAEXPAUentvars_s@@H@Z 100073fc f   hl_weapons.obj
 0001:00006409       ?DefaultReload@CBasePlayerWeapon@@QAEHHHM@Z 10007409 f   hl_weapons.obj
 0001:0000647e       ?CanDeploy@CBasePlayerWeapon@@UAEHXZ 1000747e f   hl_weapons.obj
 0001:000064df       ?DefaultDeploy@CBasePlayerWeapon@@QAEHPAD0H0H@Z 100074df f   hl_weapons.obj
 0001:00006534       ?PlayEmptySound@CBasePlayerWeapon@@UAEHXZ 10007534 f   hl_weapons.obj
 0001:0000655b       ?ResetEmptySound@CBasePlayerWeapon@@UAEXXZ 1000755b f   hl_weapons.obj
 0001:00006563       ?Holster@CBasePlayerWeapon@@UAEXH@Z 10007563 f   hl_weapons.obj
 0001:0000657a       ?SendWeaponAnim@CBasePlayerWeapon@@UAEXHHH@Z 1000757a f   hl_weapons.obj
 0001:0000659c       ?FireBulletsPlayer@CBaseEntity@@QAE?AVVector@@KV2@00MHHHPAUentvars_s@@H@Z 1000759c f   hl_weapons.obj
 0001:00006720       ?ItemPostFrame@CBasePlayerWeapon@@UAEXXZ 10007720 f   hl_weapons.obj
 0001:000068ba       ?SelectItem@CBasePlayer@@QAEXPBD@Z 100078ba f   hl_weapons.obj
 0001:000068bd       ?SelectLastItem@CBasePlayer@@QAEXXZ 100078bd f   hl_weapons.obj
 0001:00006915       ?Killed@CBasePlayer@@UAEXPAUentvars_s@@H@Z 10007915 f   hl_weapons.obj
 0001:0000692c       ?Spawn@CBasePlayer@@UAEXXZ 1000792c f   hl_weapons.obj
 0001:0000693f       ?UTIL_TraceLine@@YAXABVVector@@0W4IGNORE_MONSTERS@@PAUedict_s@@PAUTraceResult@@@Z 1000793f f   hl_weapons.obj
 0001:00006958       ?UTIL_ParticleBox@@YAXPAVCBasePlayer@@PAM1MEEE@Z 10007958 f   hl_weapons.obj
 0001:000069c0       ?UTIL_ParticleBoxes@@YAXXZ 100079c0 f   hl_weapons.obj
 0001:00006aa6       ?UTIL_ParticleLine@@YAXPAVCBasePlayer@@PAM1MEEE@Z 10007aa6 f   hl_weapons.obj
 0001:00006acc       ?PrintState@CBasePlayerWeapon@@QAEXXZ 10007acc f   hl_weapons.obj
 0001:00006b4c       ?HUD_InitClientWeapons@@YAXXZ 10007b4c f   hl_weapons.obj
 0001:00006bed       ?HUD_GetLastOrg@@YAXPAM@Z  10007bed f   hl_weapons.obj
 0001:00006c07       ?HUD_SetLastOrg@@YAXXZ     10007c07 f   hl_weapons.obj
 0001:00006c2b       ?HUD_WeaponsPostThink@@YAXPAUlocal_state_s@@0PAUusercmd_s@@NI@Z 10007c2b f   hl_weapons.obj
 0001:00006cc0       ?Spawn@CBaseEntity@@UAEXXZ 10007cc0 f i hl_weapons.obj
 0001:00006cc1       ?Precache@CBaseEntity@@UAEXXZ 10007cc1 f i hl_weapons.obj
 0001:00006cc2       ?ObjectCaps@CBaseEntity@@UAEHXZ 10007cc2 f i hl_weapons.obj
 0001:00006cc6       ?Activate@CBaseEntity@@UAEXXZ 10007cc6 f i hl_weapons.obj
 0001:00006cc7       ?Classify@CBaseEntity@@UAEHXZ 10007cc7 f i hl_weapons.obj
 0001:00006cca       ?DeathNotice@CBaseEntity@@UAEXPAUentvars_s@@@Z 10007cca f i hl_weapons.obj
 0001:00006ccd       ?IsTriggered@CBaseEntity@@UAEHPAV1@@Z 10007ccd f i hl_weapons.obj
 0001:00006cd3       ?MySquadMonsterPointer@CBaseEntity@@UAEPAVCSquadMonster@@XZ 10007cd3 f i hl_weapons.obj
 0001:00006cd6       ?AddPoints@CBaseEntity@@UAEXHH@Z 10007cd6 f i hl_weapons.obj
 0001:00006cd9       ?AddPointsToTeam@CBaseEntity@@UAEXHH@Z 10007cd9 f i hl_weapons.obj
 0001:00006cdc       ?AddPlayerItem@CBaseEntity@@UAEHPAVCBasePlayerItem@@@Z 10007cdc f i hl_weapons.obj
 0001:00006ce1       ?RemovePlayerItem@CBaseEntity@@UAEHPAVCBasePlayerItem@@@Z 10007ce1 f i hl_weapons.obj
 0001:00006ce6       ?GiveAmmo@CBaseEntity@@UAEHHPADH@Z 10007ce6 f i hl_weapons.obj
 0001:00006cec       ?OverrideReset@CBaseEntity@@UAEXXZ 10007cec f i hl_weapons.obj
 0001:00006ced       ?SetToggleState@CBaseEntity@@UAEXH@Z 10007ced f i hl_weapons.obj
 0001:00006cf0       ?StartSneaking@CBaseEntity@@UAEXXZ 10007cf0 f i hl_weapons.obj
 0001:00006cf1       ?StopSneaking@CBaseEntity@@UAEXXZ 10007cf1 f i hl_weapons.obj
 0001:00006cf2       ?OnControls@CBaseEntity@@UAEHPAUentvars_s@@@Z 10007cf2 f i hl_weapons.obj
 0001:00006cf7       ?IsSneaking@CBaseEntity@@UAEHXZ 10007cf7 f i hl_weapons.obj
 0001:00006cfa       ?IsBSPModel@CBaseEntity@@UAEHXZ 10007cfa f i hl_weapons.obj
 0001:00006d16       ?ReflectGauss@CBaseEntity@@UAEHXZ 10007d16 f i hl_weapons.obj
 0001:00006d42       ?HasTarget@CBaseEntity@@UAEHH@Z 10007d42 f i hl_weapons.obj
 0001:00006d6f       ?IsPlayer@CBaseEntity@@UAEHXZ 10007d6f f i hl_weapons.obj
 0001:00006d72       ?IsNetClient@CBaseEntity@@UAEHXZ 10007d72 f i hl_weapons.obj
 0001:00006d75       ?TeamID@CBaseEntity@@UAEPBDXZ 10007d75 f i hl_weapons.obj
 0001:00006d7b       ?Think@CBaseEntity@@UAEXXZ 10007d7b f i hl_weapons.obj
 0001:00006d85       ?Touch@CBaseEntity@@UAEXPAV1@@Z 10007d85 f i hl_weapons.obj
 0001:00006d95       ?Use@CBaseEntity@@UAEXPAV1@0W4USE_TYPE@@M@Z 10007d95 f i hl_weapons.obj
 0001:00006db5       ?Blocked@CBaseEntity@@UAEXPAV1@@Z 10007db5 f i hl_weapons.obj
 0001:00006dc5       ?Respawn@CBaseEntity@@UAEPAV1@XZ 10007dc5 f i hl_weapons.obj
 0001:00006dc8       ?UpdateOwner@CBaseEntity@@UAEXXZ 10007dc8 f i hl_weapons.obj
 0001:00006dc9       ?Center@CBaseEntity@@UAE?AVVector@@XZ 10007dc9 f i hl_weapons.obj
 0001:00006e26       ?EyePosition@CBaseEntity@@UAE?AVVector@@XZ 10007e26 f i hl_weapons.obj
 0001:00006e55       ?EarPosition@CBaseEntity@@UAE?AVVector@@XZ 10007e55 f i hl_weapons.obj
 0001:00006e84       ?Illumination@CBaseEntity@@UAEHXZ 10007e84 f i hl_weapons.obj
 0001:00006e95       ?GetToggleState@CBaseToggle@@UAEHXZ 10007e95 f i hl_weapons.obj
 0001:00006e99       ?GetDelay@CBaseToggle@@UAEMXZ 10007e99 f i hl_weapons.obj
 0001:00006e9d       ?BloodColor@CBaseMonster@@UAEHXZ 10007e9d f i hl_weapons.obj
 0001:00006ea4       ?MyMonsterPointer@CBaseMonster@@UAEPAV1@XZ 10007ea4 f i hl_weapons.obj
 0001:00006ea7       ?IsAlive@CBaseMonster@@UAEHXZ 10007ea7 f i hl_weapons.obj
 0001:00006eb9       ?GetStoppedActivity@CBaseMonster@@UAE?AW4Activity@@XZ 10007eb9 f i hl_weapons.obj
 0001:00006ebd       ?Stop@CBaseMonster@@UAEXXZ 10007ebd f i hl_weapons.obj
 0001:00006ed0       ?ScheduleChange@CBaseMonster@@UAEXXZ 10007ed0 f i hl_weapons.obj
 0001:00006ed1       ?CanPlaySentence@CBaseMonster@@UAEHH@Z 10007ed1 f i hl_weapons.obj
 0001:00006edc       ?SetYawSpeed@CBaseMonster@@UAEXXZ 10007edc f i hl_weapons.obj
 0001:00006edd       _HUD_PostRunCmd            10007edd f   hl_weapons.obj
 0001:00006f3c       ?FValidateCover@CBaseMonster@@UAEHABVVector@@@Z 10007f3c f i hl_weapons.obj
 0001:00006f42       ?CoverRadius@CBaseMonster@@UAEMXZ 10007f42 f i hl_weapons.obj
 0001:00006f49       ?CheckAmmo@CBaseMonster@@UAEXXZ 10007f49 f i hl_weapons.obj
 0001:00006f4a       ?HearingSensitivity@CBaseMonster@@UAEMXZ 10007f4a f i hl_weapons.obj
 0001:00006f51       ?PrescheduleThink@CBaseMonster@@UAEXXZ 10007f51 f i hl_weapons.obj
 0001:00006f52       ?BodyTarget@CBaseMonster@@UAE?AVVector@@ABV2@@Z 10007f52 f i hl_weapons.obj
 0001:00006fd1       ?IsMoving@CBaseMonster@@UAEHXZ 10007fd1 f i hl_weapons.obj
 0001:00006fdd       ?DeathSound@CBaseMonster@@UAEXXZ 10007fdd f i hl_weapons.obj
 0001:00006fde       ?AlertSound@CBaseMonster@@UAEXXZ 10007fde f i hl_weapons.obj
 0001:00006fdf       ?IdleSound@CBaseMonster@@UAEXXZ 10007fdf f i hl_weapons.obj
 0001:00006fe0       ?PainSound@CBaseMonster@@UAEXXZ 10007fe0 f i hl_weapons.obj
 0001:00006fe1       ?StopFollowing@CBaseMonster@@UAEXH@Z 10007fe1 f i hl_weapons.obj
 0001:00006fe4       ?BodyTarget@CBasePlayer@@UAE?AVVector@@ABV2@@Z 10007fe4 f i hl_weapons.obj
 0001:00007055       ?StartSneaking@CBasePlayer@@UAEXXZ 10008055 f i hl_weapons.obj
 0001:00007069       ?StopSneaking@CBasePlayer@@UAEXXZ 10008069 f i hl_weapons.obj
 0001:0000707d       ?IsSneaking@CBasePlayer@@UAEHXZ 1000807d f i hl_weapons.obj
 0001:00007096       ?IsAlive@CBasePlayer@@UAEHXZ 10008096 f i hl_weapons.obj
 0001:000070ba       ?ShouldFadeOnDeath@CBasePlayer@@UAEHXZ 100080ba f i hl_weapons.obj
 0001:000070be       ?IsPlayer@CBasePlayer@@UAEHXZ 100080be f i hl_weapons.obj
 0001:000070c2       ?IsNetClient@CBasePlayer@@UAEHXZ 100080c2 f i hl_weapons.obj
 0001:000070c6       ?ObjectCaps@CBasePlayer@@UAEHXZ 100080c6 f i hl_weapons.obj
 0001:000070c9       ??0InterfaceReg@@QAE@P6APAVIBaseInterface@@XZPBD@Z 100080c9 f   interface.obj
 0001:000070e9       _CreateInterface           100080e9 f   interface.obj
 0001:0000712c       ?Sys_LoadModule@@YAPAUHInterfaceModule_t@@PBD@Z 1000812c f   interface.obj
 0001:00007137       ?Sys_FreeModule@@YAXPAUHInterfaceModule_t@@@Z 10008137 f   interface.obj
 0001:00007149       ?Sys_GetFactoryThis@@YAP6APAVIBaseInterface@@PBDPAH@ZXZ 10008149 f   interface.obj
 0001:0000714f       ?Sys_GetFactory@@YAP6APAVIBaseInterface@@PBDPAH@ZPAUHInterfaceModule_t@@@Z 1000814f f   interface.obj
 0001:00007169       ?HashPlayerID@@YAEQBD@Z    10008169 f   voice_banmgr.obj
 0001:0000717b       ??0CVoiceBanMgr@@QAE@XZ    1000817b f   voice_banmgr.obj
 0001:00007187       ??1CVoiceBanMgr@@QAE@XZ    10008187 f   voice_banmgr.obj
 0001:0000718c       ?Init@CVoiceBanMgr@@QAE_NPBD@Z 1000818c f   voice_banmgr.obj
 0001:0000724f       ?Term@CVoiceBanMgr@@QAEXXZ 1000824f f   voice_banmgr.obj
 0001:00007285       ?SaveState@CVoiceBanMgr@@QAEXPBD@Z 10008285 f   voice_banmgr.obj
 0001:0000732b       ?GetPlayerBan@CVoiceBanMgr@@QAE_NQBD@Z 1000832b f   voice_banmgr.obj
 0001:0000733d       ?SetPlayerBan@CVoiceBanMgr@@QAEXQBD_N@Z 1000833d f   voice_banmgr.obj
 0001:00007387       ?ForEachBannedPlayer@CVoiceBanMgr@@QAEXP6AXQAD@Z@Z 10008387 f   voice_banmgr.obj
 0001:000073af       ?Clear@CVoiceBanMgr@@IAEXXZ 100083af f   voice_banmgr.obj
 0001:000073c1       ?InternalFindPlayerSquelch@CVoiceBanMgr@@IAEPAVBannedPlayer@1@QBD@Z 100083c1 f   voice_banmgr.obj
 0001:00007403       ?AddBannedPlayer@CVoiceBanMgr@@IAEPAVBannedPlayer@1@QBD@Z 10008403 f   voice_banmgr.obj
 0001:0000747b       ?GetClientVoiceMgr@@YAPAVCVoiceStatus@@XZ 1000847b f   voice_status.obj
 0001:00007481       ?__MsgFunc_VoiceMask@@YAHPBDHPAX@Z 10008481 f   voice_status.obj
 0001:0000749c       ?__MsgFunc_ReqState@@YAHPBDHPAX@Z 1000849c f   voice_status.obj
 0001:000074b7       ?ForEachBannedPlayer@@YAXQAD@Z 100084b7 f   voice_status.obj
 0001:00007551       ?ShowBannedCallback@@YAXXZ 10008551 f   voice_status.obj
 0001:00007590       ??0CVoiceStatus@@QAE@XZ    10008590 f   voice_status.obj
 0001:0000766d       ??_GCVoiceStatus@@UAEPAXI@Z 1000866d f i voice_status.obj
 0001:0000766d       ??_ECVoiceStatus@@UAEPAXI@Z 1000866d f i voice_status.obj
 0001:00007689       ??0cl_entity_s@@QAE@XZ     10008689 f i voice_status.obj
 0001:000076ae       ??0entity_state_s@@QAE@XZ  100086ae f i voice_status.obj
 0001:000076b1       ??1CVoiceStatus@@UAE@XZ    100086b1 f   voice_status.obj
 0001:0000777a       ?Init@CVoiceStatus@@UAEHPAVIVoiceStatusHelper@@PAPAVPanel@vgui@@@Z 1000877a f   voice_status.obj
 0001:0000796d       ?VidInit@CVoiceStatus@@UAEHXZ 1000896d f   voice_status.obj
 0001:00007bc2       ?Frame@CVoiceStatus@@QAEXN@Z 10008bc2 f   voice_status.obj
 0001:00007c4a       ?CreateEntities@CVoiceStatus@@QAEXXZ 10008c4a f   voice_status.obj
 0001:00007dc4       ??1CHudBase@@UAE@XZ        10008dc4 f i voice_status.obj
 0001:00007dcb       ?Init@CHudBase@@UAEHXZ     10008dcb f i voice_status.obj
 0001:00007dce       ?VidInit@CHudBase@@UAEHXZ  10008dce f i voice_status.obj
 0001:00007dd1       ?Draw@CHudBase@@UAEHM@Z    10008dd1 f i voice_status.obj
 0001:00007dd6       ?Think@CHudBase@@UAEXXZ    10008dd6 f i voice_status.obj
 0001:00007dd7       ?Reset@CHudBase@@UAEXXZ    10008dd7 f i voice_status.obj
 0001:00007dd8       ?InitHUDData@CHudBase@@UAEXXZ 10008dd8 f i voice_status.obj
 0001:00007dd9       ??_ECHudBase@@UAEPAXI@Z    10008dd9 f i voice_status.obj
 0001:00007dd9       ??_GCHudBase@@UAEPAXI@Z    10008dd9 f i voice_status.obj
 0001:00007df6       ?UpdateSpeakerStatus@CVoiceStatus@@QAEXHH@Z 10008df6 f   voice_status.obj
 0001:0000800c       ?UpdateServerState@CVoiceStatus@@AAEX_N@Z 1000900c f   voice_status.obj
 0001:0000821f       ?UpdateSpeakerImage@CVoiceStatus@@QAEXPAVLabel@vgui@@H@Z 1000921f f   voice_status.obj
 0001:00008238       ?UpdateBanButton@CVoiceStatus@@AAEXH@Z 10009238 f   voice_status.obj
 0001:0000839c       ?HandleVoiceMaskMsg@CVoiceStatus@@QAEXHPAX@Z 1000939c f   voice_status.obj
 0001:00008443       ?HandleReqStateMsg@CVoiceStatus@@QAEXHPAX@Z 10009443 f   voice_status.obj
 0001:00008476       ?StartSquelchMode@CVoiceStatus@@QAEXXZ 10009476 f   voice_status.obj
 0001:00008494       ?StopSquelchMode@CVoiceStatus@@QAEXXZ 10009494 f   voice_status.obj
 0001:000084a6       ?IsInSquelchMode@CVoiceStatus@@QAE_NXZ 100094a6 f   voice_status.obj
 0001:000084ad       ?FindVoiceLabel@CVoiceStatus@@AAEPAVCVoiceLabel@@H@Z 100094ad f   voice_status.obj
 0001:000084d9       ?GetFreeVoiceLabel@CVoiceStatus@@AAEPAVCVoiceLabel@@XZ 100094d9 f   voice_status.obj
 0001:000084e1       ?RepositionLabels@CVoiceStatus@@AAEXXZ 100094e1 f   voice_status.obj
 0001:00008723       ?FreeBitmaps@CVoiceStatus@@AAEXXZ 10009723 f   voice_status.obj
 0001:0000880f       ?IsPlayerBlocked@CVoiceStatus@@QAE_NH@Z 1000980f f   voice_status.obj
 0001:00008843       ?IsPlayerAudible@CVoiceStatus@@QAE_NH@Z 10009843 f   voice_status.obj
 0001:00008868       ??4CBitVecAccessor@@QAEXH@Z 10009868 f i voice_status.obj
 0001:000088a1       ?SetPlayerBlockedState@CVoiceStatus@@QAEXH_N@Z 100098a1 f   voice_status.obj
 0001:0000899e       ?cursorMoved@CDefaultInputSignal@vgui@@UAEXHHPAVPanel@2@@Z 1000999e f i voice_status.obj
 0001:000089a1       ?cursorEntered@CDefaultInputSignal@vgui@@UAEXPAVPanel@2@@Z 100099a1 f i voice_status.obj
 0001:000089a4       ?cursorExited@CDefaultInputSignal@vgui@@UAEXPAVPanel@2@@Z 100099a4 f i voice_status.obj
 0001:000089a7       ?mousePressed@CDefaultInputSignal@vgui@@UAEXW4MouseCode@2@PAVPanel@2@@Z 100099a7 f i voice_status.obj
 0001:000089aa       ?mouseDoublePressed@CDefaultInputSignal@vgui@@UAEXW4MouseCode@2@PAVPanel@2@@Z 100099aa f i voice_status.obj
 0001:000089ad       ?mouseReleased@CDefaultInputSignal@vgui@@UAEXW4MouseCode@2@PAVPanel@2@@Z 100099ad f i voice_status.obj
 0001:000089b0       ?mouseWheeled@CDefaultInputSignal@vgui@@UAEXHPAVPanel@2@@Z 100099b0 f i voice_status.obj
 0001:000089b3       ?keyPressed@CDefaultInputSignal@vgui@@UAEXW4KeyCode@2@PAVPanel@2@@Z 100099b3 f i voice_status.obj
 0001:000089b6       ?keyTyped@CDefaultInputSignal@vgui@@UAEXW4KeyCode@2@PAVPanel@2@@Z 100099b6 f i voice_status.obj
 0001:000089b9       ?keyReleased@CDefaultInputSignal@vgui@@UAEXW4KeyCode@2@PAVPanel@2@@Z 100099b9 f i voice_status.obj
 0001:000089bc       ?keyFocusTicked@CDefaultInputSignal@vgui@@UAEXPAVPanel@2@@Z 100099bc f i voice_status.obj
 0001:000089bf       ??0ActionSignal@vgui@@QAE@XZ 100099bf f i voice_status.obj
 0001:000089c8       ??0ActionSignal@vgui@@QAE@ABV01@@Z 100099c8 f i voice_status.obj
 0001:000089d3       ??4ActionSignal@vgui@@QAEAAV01@ABV01@@Z 100099d3 f i voice_status.obj
 0001:000089d8       ??0TextImage@vgui@@QAE@ABV01@@Z 100099d8 f i voice_status.obj
 0001:00008a1f       ??4TextImage@vgui@@QAEAAV01@ABV01@@Z 10009a1f f i voice_status.obj
 0001:00008a69       ?IsTweakDlgOpen@@YA_NXZ    10009a69 f   voice_vgui_tweakdlg.obj
 0001:00008a99       ?GetVoiceTweakDlg@@YAPAVCMenuPanel@@XZ 10009a99 f   voice_vgui_tweakdlg.obj
 0001:00008aaf       ?actionPerformed@CVoiceTweakOKButton@@UAEXPAVPanel@vgui@@@Z 10009aaf f i voice_vgui_tweakdlg.obj
 0001:00008abd       ??0TweakScroller@@QAE@XZ   10009abd f   voice_vgui_tweakdlg.obj
 0001:00008af4       ?Init@TweakScroller@@QAEXPAVPanel@vgui@@PADH@Z 10009af4 f   voice_vgui_tweakdlg.obj
 0001:00008c2a       ?GetValue@TweakScroller@@QAEMXZ 10009c2a f   voice_vgui_tweakdlg.obj
 0001:00008c4e       ?SetValue@TweakScroller@@QAEXM@Z 10009c4e f   voice_vgui_tweakdlg.obj
 0001:00008c75       ??0CVoiceVGUITweakDlg@@QAE@XZ 10009c75 f   voice_vgui_tweakdlg.obj
 0001:00008d64       ??1CVoiceVGUITweakDlg@@QAE@XZ 10009d64 f   voice_vgui_tweakdlg.obj
 0001:00008d7f       ?Open@CVoiceVGUITweakDlg@@UAEXXZ 10009d7f f   voice_vgui_tweakdlg.obj
 0001:00008ffa       ?Close@CVoiceVGUITweakDlg@@UAEXXZ 10009ffa f   voice_vgui_tweakdlg.obj
 0001:00009016       ?paintBackground@CVoiceVGUITweakDlg@@UAEXXZ 1000a016 f   voice_vgui_tweakdlg.obj
 0001:00009099       ?StateChanged@CVoiceVGUITweakDlg@@UAEXPAVCCheckButton2@vgui@@@Z 1000a099 f   voice_vgui_tweakdlg.obj
 0001:000090c6       ??0Frame@vgui@@QAE@ABV01@@Z 1000a0c6 f i voice_vgui_tweakdlg.obj
 0001:000091e4       ??4Frame@vgui@@QAEAAV01@ABV01@@Z 1000a1e4 f i voice_vgui_tweakdlg.obj
 0001:000092fc       ??0TextPanel@vgui@@QAE@ABV01@@Z 1000a2fc f i voice_vgui_tweakdlg.obj
 0001:00009323       ??4TextPanel@vgui@@QAEAAV01@ABV01@@Z 1000a323 f i voice_vgui_tweakdlg.obj
 0001:00009344       ??0InputStream@vgui@@QAE@XZ 1000a344 f i voice_vgui_tweakdlg.obj
 0001:0000934d       ??0InputStream@vgui@@QAE@ABV01@@Z 1000a34d f i voice_vgui_tweakdlg.obj
 0001:00009358       ??4InputStream@vgui@@QAEAAV01@ABV01@@Z 1000a358 f i voice_vgui_tweakdlg.obj
 0001:0000935d       ??0FileInputStream@vgui@@QAE@ABV01@@Z 1000a35d f i voice_vgui_tweakdlg.obj
 0001:00009378       ??4FileInputStream@vgui@@QAEAAV01@ABV01@@Z 1000a378 f i voice_vgui_tweakdlg.obj
 0001:00009387       ??0DesktopIcon@vgui@@QAE@ABV01@@Z 1000a387 f i voice_vgui_tweakdlg.obj
 0001:000093c6       ??4DesktopIcon@vgui@@QAEAAV01@ABV01@@Z 1000a3c6 f i voice_vgui_tweakdlg.obj
 0001:000093ff       ??0Cursor@vgui@@QAE@ABV01@@Z 1000a3ff f i voice_vgui_tweakdlg.obj
 0001:00009426       ??4Cursor@vgui@@QAEAAV01@ABV01@@Z 1000a426 f i voice_vgui_tweakdlg.obj
 0001:00009456       ??0App@vgui@@QAE@ABV01@@Z  1000a456 f i voice_vgui_tweakdlg.obj
 0001:0000957e       ??4App@vgui@@QAEAAV01@ABV01@@Z 1000a57e f i voice_vgui_tweakdlg.obj
 0001:000096fa       ??0MiniApp@vgui@@QAE@ABV01@@Z 1000a6fa f i voice_vgui_tweakdlg.obj
 0001:0000970f       ??4MiniApp@vgui@@QAEAAV01@ABV01@@Z 1000a70f f i voice_vgui_tweakdlg.obj
 0001:0000971e       ??4String@vgui@@QAEAAV01@ABV01@@Z 1000a71e f i voice_vgui_tweakdlg.obj
 0001:0000972b       ??0ScrollPanel@vgui@@QAE@ABV01@@Z 1000a72b f i voice_vgui_tweakdlg.obj
 0001:00009784       ??4ScrollPanel@vgui@@QAEAAV01@ABV01@@Z 1000a784 f i voice_vgui_tweakdlg.obj
 0001:000097e6       ??0ScrollBar@vgui@@QAE@ABV01@@Z 1000a7e6 f i voice_vgui_tweakdlg.obj
 0001:00009844       ??4ScrollBar@vgui@@QAEAAV01@ABV01@@Z 1000a844 f i voice_vgui_tweakdlg.obj
 0001:0000989c       ??0Slider@vgui@@QAE@ABV01@@Z 1000a89c f i voice_vgui_tweakdlg.obj
 0001:00009972       ??4Slider@vgui@@QAEAAV01@ABV01@@Z 1000a972 f i voice_vgui_tweakdlg.obj
 0001:00009a38       ??0Font@vgui@@QAE@ABV01@@Z 1000aa38 f i voice_vgui_tweakdlg.obj
 0001:00009a59       ??4Font@vgui@@QAEAAV01@ABV01@@Z 1000aa59 f i voice_vgui_tweakdlg.obj
 0001:00009a74       ?paintBackground@CTransparentPanel@@UAEXXZ 1000aa74 f i voice_vgui_tweakdlg.obj
 0001:00009aa5       ?Reset@CMenuPanel@@UAEXXZ  1000aaa5 f i voice_vgui_tweakdlg.obj
 0001:00009abc       ?Open@CMenuPanel@@UAEXXZ   1000aabc f i voice_vgui_tweakdlg.obj
 0001:00009ad3       ?Close@CMenuPanel@@UAEXXZ  1000aad3 f i voice_vgui_tweakdlg.obj
 0001:00009afb       ?SlotInput@CMenuPanel@@UAE_NH@Z 1000aafb f i voice_vgui_tweakdlg.obj
 0001:00009b00       ?SetActiveInfo@CMenuPanel@@UAEXH@Z 1000ab00 f i voice_vgui_tweakdlg.obj
 0001:00009b03       ?fgetLittleShort@@YAHPAU_iobuf@@@Z 1000ab03 f   rally_image.obj
 0001:00009b2e       ?fgetLittleLong@@YAHPAU_iobuf@@@Z 1000ab2e f   rally_image.obj
 0001:00009b77       ?RGBAto24@@YAKEEEE@Z       1000ab77 f   rally_image.obj
 0001:00009b96       ?_24toRGBA@@YAXKPAE000@Z   1000ab96 f   rally_image.obj
 0001:00009bc1       ?LoadTGA@@YAPAEPADPAH1@Z   1000abc1 f   rally_image.obj
 0001:00009f37       ?LoadBMP@@YAPAEPADPAH1@Z   1000af37 f   rally_image.obj
 0001:0000a374       ?ScaleLineAvg@@YAXPAK0HH@Z 1000b374 f   rally_image.obj
 0001:0000a42f       ?ScaleRectAvg@@YAXPAK0HHHH@Z 1000b42f f   rally_image.obj
 0001:0000a5d3       ??0CImageButton@@QAE@PADHHHH@Z 1000b5d3 f   rally_vgui.obj
 0001:0000a661       ??1CImageButton@@QAE@XZ    1000b661 f   rally_vgui.obj
 0001:0000a6eb       ?paint@CImageButton@@UAEXXZ 1000b6eb f   rally_vgui.obj
 0001:0000a716       ?paintBackground@CImageButton@@UAEXXZ 1000b716 f   rally_vgui.obj
 0001:0000a717       ?addButtonClickSignal@CImageButton@@UAEXPAVCMenuPanel@@H@Z 1000b717 f   rally_vgui.obj
 0001:0000a72e       ?removeAllActionSignals@CImageButton@@QAEXXZ 1000b72e f   rally_vgui.obj
 0001:0000a736       ??0CManuImageButton@@QAE@PADHHHH@Z 1000b736 f   rally_vgui.obj
 0001:0000a76e       ?fireActionSignal@CManuImageButton@@UAEXXZ 1000b76e f   rally_vgui.obj
 0001:0000a7b4       ??0CRaceImageButton@@QAE@PADHHHH@Z 1000b7b4 f   rally_vgui.obj
 0001:0000a7db       ?fireActionSignal@CRaceImageButton@@UAEXXZ 1000b7db f   rally_vgui.obj
 0001:0000a7f2       ?Custom_GetTGANameForRes@@YAPADPBDH@Z 1000b7f2 f   rally_vgui.obj
 0001:0000a832       ?Custom_LoadTGAForRes@@YAPAVBitmapTGA@vgui@@PBD@Z 1000b832 f   rally_vgui.obj
 0001:0000aaaf       ?seekStart@MemoryInputStream@@UAEXAA_N@Z 1000baaf f i rally_vgui.obj
 0001:0000aabd       ?seekRelative@MemoryInputStream@@UAEXHAA_N@Z 1000babd f i rally_vgui.obj
 0001:0000aace       ?seekEnd@MemoryInputStream@@UAEXAA_N@Z 1000bace f i rally_vgui.obj
 0001:0000aade       ?getAvailable@MemoryInputStream@@UAEHAA_N@Z 1000bade f i rally_vgui.obj
 0001:0000aaea       ?readUChar@MemoryInputStream@@UAEEAA_N@Z 1000baea f i rally_vgui.obj
 0001:0000ab18       ?readUChar@MemoryInputStream@@UAEXPAEHAA_N@Z 1000bb18 f i rally_vgui.obj
 0001:0000ab42       ?close@MemoryInputStream@@UAEXAA_N@Z 1000bb42 f i rally_vgui.obj
 0001:0000ab50       ??0CClassImageButton@@QAE@PADHHHH@Z 1000bb50 f   rally_vgui.obj
 0001:0000abf4       ??1CClassImageButton@@QAE@XZ 1000bbf4 f   rally_vgui.obj
 0001:0000ac88       ?fireActionSignal@CClassImageButton@@UAEXXZ 1000bc88 f   rally_vgui.obj
 0001:0000ace6       ?paint@CClassImageButton@@UAEXXZ 1000bce6 f   rally_vgui.obj
 0001:0000ad0e       ?paintBackground@CClassImageButton@@UAEXXZ 1000bd0e f   rally_vgui.obj
 0001:0000ad72       ?removeAllActionSignals@CClassImageButton@@QAEXXZ 1000bd72 f   rally_vgui.obj
 0001:0000ad7a       ??0CPartsListButton@@QAE@PADHHHHH@Z 1000bd7a f   rally_vgui.obj
 0001:0000ade3       ?paintBackground@CPartsListButton@@UAEXXZ 1000bde3 f   rally_vgui.obj
 0001:0000ae14       ??0CProgressBar@@QAE@HHHHHH@Z 1000be14 f   rally_vgui.obj
 0001:0000ae58       ??0CProgressBar@@QAE@HHHHHH_N@Z 1000be58 f   rally_vgui.obj
 0001:0000ae9e       ?setProgress@CProgressBar@@QAEXH@Z 1000be9e f   rally_vgui.obj
 0001:0000aeab       ?getProgress@CProgressBar@@QAEHXZ 1000beab f   rally_vgui.obj
 0001:0000aeb2       ?setExtraProgress@CProgressBar@@QAEXH@Z 1000beb2 f   rally_vgui.obj
 0001:0000aebf       ?paintBackground@CProgressBar@@UAEXXZ 1000bebf f   rally_vgui.obj
 0001:0000afac       ??0C3DModelPanel@@QAE@HHHHH@Z 1000bfac f   rally_vgui.obj
 0001:0000afe9       ?setMouseDown@C3DModelPanel@@AAEX_N@Z 1000bfe9 f   rally_vgui.obj
 0001:0000b001       ?internalMousePressed@C3DModelPanel@@UAEXW4MouseCode@vgui@@@Z 1000c001 f   rally_vgui.obj
 0001:0000b01e       ?internalMouseReleased@C3DModelPanel@@UAEXW4MouseCode@vgui@@@Z 1000c01e f   rally_vgui.obj
 0001:0000b064       ?internalCursorMoved@C3DModelPanel@@UAEXHH@Z 1000c064 f   rally_vgui.obj
 0001:0000b0f2       ?internalCursorExited@C3DModelPanel@@UAEXXZ 1000c0f2 f   rally_vgui.obj
 0001:0000b10a       ??0CCustResImageLabel@@QAE@PBDHH@Z 1000c10a f   rally_vgui.obj
 0001:0000b15d       ??0CCustResImageLabel@@QAE@PBDHHHH@Z 1000c15d f   rally_vgui.obj
 0001:0000b1b6       ??1CCustResImageLabel@@QAE@XZ 1000c1b6 f   rally_vgui.obj
 0001:0000b1fa       ??0CRallySlider@@QAE@PADHHHH@Z 1000c1fa f   rally_vgui.obj
 0001:0000b276       ??1CRallySlider@@QAE@XZ    1000c276 f   rally_vgui.obj
 0001:0000b2a3       ?paintBackground@CRallySlider@@UAEXXZ 1000c2a3 f   rally_vgui.obj
 0001:0000b337       ??0CImageCheckButton@@QAE@PAD_NHH@Z 1000c337 f   rally_vgui.obj
 0001:0000b3ca       ??1CImageCheckButton@@QAE@XZ 1000c3ca f   rally_vgui.obj
 0001:0000b3f7       ?paint@CImageCheckButton@@UAEXXZ 1000c3f7 f   rally_vgui.obj
 0001:0000b417       ?internalMousePressed@CImageCheckButton@@UAEXW4MouseCode@vgui@@@Z 1000c417 f   rally_vgui.obj
 0001:0000b42c       ?isChecked@CImageCheckButton@@QAE_NXZ 1000c42c f   rally_vgui.obj
 0001:0000b433       ?setChecked@CImageCheckButton@@QAEX_N@Z 1000c433 f   rally_vgui.obj
 0001:0000b440       ?createBitmap@@YAPAVBitmapTGA@vgui@@PAUtagBITMAPINFOHEADER@@@Z 1000c440 f   rally_vgui.obj
 0001:0000b535       ??0CAviImage@@QAE@PBDHHHH@Z 1000c535 f   rally_vgui.obj
 0001:0000b6a1       ?setSize@CAnimFrame@@UAEXHH@Z 1000c6a1 f i rally_vgui.obj
 0001:0000b6b9       ??1CAviImage@@QAE@XZ       1000c6b9 f   rally_vgui.obj
 0001:0000b750       ?paint@CAviImage@@UAEXXZ   1000c750 f   rally_vgui.obj
 0001:0000b7cb       ?setImage@CAnimFrame@@QAEXPAUtagBITMAPINFO@@@Z 1000c7cb f i rally_vgui.obj
 0001:0000b839       ?paintBackground@CImageLabel@@UAEXXZ 1000c839 f i rally_vgui.obj
 0001:0000b83a       ?IsNotValid@CommandButton@@UAEHXZ 1000c83a f i rally_vgui.obj
 0001:0000b83d       ?isDragging@Slider2@vgui@@UAE_NXZ 1000c83d f i rally_vgui.obj
 0001:0000b844       ?allowInput@Slider2@vgui@@UAEX_N@Z 1000c844 f i rally_vgui.obj
 0001:0000b851       ?doesAllowInput@Slider2@vgui@@UAE_NXZ 1000c851 f i rally_vgui.obj
 0001:0000b858       ??0Slider2@vgui@@QAE@ABV01@@Z 1000c858 f i rally_vgui.obj
 0001:0000b946       ??4Slider2@vgui@@QAEAAV01@ABV01@@Z 1000c946 f i rally_vgui.obj
 0001:0000ba24       ??0ToggleButton@vgui@@QAE@ABV01@@Z 1000ca24 f i rally_vgui.obj
 0001:0000ba3c       ??4ToggleButton@vgui@@QAEAAV01@ABV01@@Z 1000ca3c f i rally_vgui.obj
 0001:0000ba78       ??0numpath_s@@QAE@XZ       1000ca78 f i rally_vguifx.obj
 0001:0000ba7b       ?EV_ModelCallback@@YAXPAUtempent_s@@MM@Z 1000ca7b f   rally_vguifx.obj
 0001:0000bd65       ??0CRallyVGUIFX@@AAE@XZ    1000cd65 f   rally_vguifx.obj
 0001:0000bdf5       ??1CRallyVGUIFX@@AAE@XZ    1000cdf5 f   rally_vguifx.obj
 0001:0000be12       ?ClearVGUIModels@CRallyVGUIFX@@QAEXXZ 1000ce12 f   rally_vguifx.obj
 0001:0000bea4       ?VGUI@CRallyVGUIFX@@QAEXPAD@Z 1000cea4 f   rally_vguifx.obj
 0001:0000c0ef       ?VGUIBackground@CRallyVGUIFX@@QAEXXZ 1000d0ef f   rally_vguifx.obj
 0001:0000d72d       ??0Vector@@QAE@MMM@Z       1000e72d f i rally_vguifx.obj
 0001:0000d746       ??8Vector@@QBEHABV0@@Z     1000e746 f i rally_vguifx.obj
 0001:0000d773       ??HVector@@QBE?AV0@ABV0@@Z 1000e773 f i rally_vguifx.obj
 0001:0000d796       ??DVector@@QBE?AV0@M@Z     1000e796 f i rally_vguifx.obj
 0001:0000d7b9       ?SetMode@CRallyVGUIFX@@QAEXH@Z 1000e7b9 f   rally_vguifx.obj
 0001:0000d7d2       ?GetMode@CRallyVGUIFX@@QAEHXZ 1000e7d2 f   rally_vguifx.obj
 0001:0000d7d6       ?NormalizeAngles@@YAXPAM@Z 1000e7d6 f   rally_vguifx.obj
 0001:0000d810       ?InterpolateAngles@@YAXPAM00M@Z 1000e810 f   rally_vguifx.obj
 0001:0000d883       ?InterpolateVec@@YAXPAM00M@Z 1000e883 f   rally_vguifx.obj
 0001:0000d8b1       ?DoCountdown@CRallyVGUIFX@@QAEXXZ 1000e8b1 f   rally_vguifx.obj
 0001:0000d9b7       ?StartCountdown@CRallyVGUIFX@@QAEXM@Z 1000e9b7 f   rally_vguifx.obj
 0001:0000d9c5       ?EV_CustomAnimCallback@@YAXPAUtempent_s@@MM@Z 1000e9c5 f   rally_vguifx.obj
 0001:0000df21       ?CustomAnim@CRallyVGUIFX@@QAEHPADH@Z 1000ef21 f   rally_vguifx.obj
 0001:0000e5b4       ?SetCustomAnim@CRallyVGUIFX@@QAEXHH@Z 1000f5b4 f   rally_vguifx.obj
 0001:0000e5e4       ?StopCustomAnim@CRallyVGUIFX@@QAEXH@Z 1000f5e4 f   rally_vguifx.obj
 0001:0000e603       ??0CCheckButton2@vgui@@QAE@XZ 1000f603 f   vgui_checkbutton2.obj
 0001:0000e6d4       ??1CCheckButton2@vgui@@QAE@XZ 1000f6d4 f   vgui_checkbutton2.obj
 0001:0000e6e9       ?SetImages@CCheckButton2@vgui@@QAEXPBD0@Z 1000f6e9 f   vgui_checkbutton2.obj
 0001:0000e723       ?SetImages@CCheckButton2@vgui@@QAEXPAVImage@2@0@Z 1000f723 f   vgui_checkbutton2.obj
 0001:0000e751       ?DeleteImages@CCheckButton2@vgui@@QAEXXZ 1000f751 f   vgui_checkbutton2.obj
 0001:0000e793       ?SetCheckboxLeft@CCheckButton2@vgui@@QAEX_N@Z 1000f793 f   vgui_checkbutton2.obj
 0001:0000e7a5       ?GetCheckboxLeft@CCheckButton2@vgui@@QAE_NXZ 1000f7a5 f   vgui_checkbutton2.obj
 0001:0000e7ac       ?SetText@CCheckButton2@vgui@@QAAXPBDZZ 1000f7ac f   vgui_checkbutton2.obj
 0001:0000e7fb       ?SetTextColor@CCheckButton2@vgui@@QAEXHHHH@Z 1000f7fb f   vgui_checkbutton2.obj
 0001:0000e82b       ?SetHandler@CCheckButton2@vgui@@QAEXPAVICheckButton2Handler@2@@Z 1000f82b f   vgui_checkbutton2.obj
 0001:0000e838       ?IsChecked@CCheckButton2@vgui@@QAE_NXZ 1000f838 f   vgui_checkbutton2.obj
 0001:0000e83f       ?SetChecked@CCheckButton2@vgui@@QAEX_N@Z 1000f83f f   vgui_checkbutton2.obj
 0001:0000e851       ?internalMousePressed@CCheckButton2@vgui@@UAEXW4MouseCode@2@@Z 1000f851 f   vgui_checkbutton2.obj
 0001:0000e880       ?SetupControls@CCheckButton2@vgui@@IAEXXZ 1000f880 f   vgui_checkbutton2.obj
 0001:0000e9a2       ?mousePressed@CCheckButton2@vgui@@MAEXW4MouseCode@2@PAVPanel@2@@Z 1000f9a2 f   vgui_checkbutton2.obj
 0001:0000e9bb       ??0CClassMenuPanel@@QAE@HHHHHH@Z 1000f9bb f   vgui_ClassMenu.obj
 0001:0000f567       ??1CClassMenuPanel@@QAE@XZ 10010567 f   vgui_ClassMenu.obj
 0001:0000f6e0       ??1CManuImageButton@@QAE@XZ 100106e0 f i vgui_ClassMenu.obj
 0001:0000f6e5       ?Close@CClassMenuPanel@@UAEXXZ 100106e5 f   vgui_ClassMenu.obj
 0001:0000f74e       ?Update@CClassMenuPanel@@UAEXXZ 1001074e f   vgui_ClassMenu.obj
 0001:0000f74f       ?SlotInput@CClassMenuPanel@@UAE_NH@Z 1001074f f   vgui_ClassMenu.obj
 0001:0000f827       ?Open@CClassMenuPanel@@UAEXXZ 10010827 f   vgui_ClassMenu.obj
 0001:0000fddc       ?Initialize@CClassMenuPanel@@UAEXXZ 10010ddc f   vgui_ClassMenu.obj
 0001:0000fde4       ?SetActiveInfo@CClassMenuPanel@@UAEXH@Z 10010de4 f   vgui_ClassMenu.obj
 0001:000106b2       ?paintBackground@CClassMenuPanel@@UAEXXZ 100116b2 f   vgui_ClassMenu.obj
 0001:00010829       ?actionPerformed@CMenuHandler_TextWindow@@UAEXPAVPanel@vgui@@@Z 10011829 f i vgui_ClassMenu.obj
 0001:00010856       ?cursorMoved@CHandler_MenuButtonOver@@UAEXHHPAVPanel@vgui@@@Z 10011856 f i vgui_ClassMenu.obj
 0001:00010859       ?mousePressed@CHandler_MenuButtonOver@@UAEXW4MouseCode@vgui@@PAVPanel@3@@Z 10011859 f i vgui_ClassMenu.obj
 0001:0001085c       ?mouseReleased@CHandler_MenuButtonOver@@UAEXW4MouseCode@vgui@@PAVPanel@3@@Z 1001185c f i vgui_ClassMenu.obj
 0001:0001085f       ?mouseDoublePressed@CHandler_MenuButtonOver@@UAEXW4MouseCode@vgui@@PAVPanel@3@@Z 1001185f f i vgui_ClassMenu.obj
 0001:00010862       ?cursorExited@CHandler_MenuButtonOver@@UAEXPAVPanel@vgui@@@Z 10011862 f i vgui_ClassMenu.obj
 0001:00010865       ?mouseWheeled@CHandler_MenuButtonOver@@UAEXHPAVPanel@vgui@@@Z 10011865 f i vgui_ClassMenu.obj
 0001:00010868       ?keyPressed@CHandler_MenuButtonOver@@UAEXW4KeyCode@vgui@@PAVPanel@3@@Z 10011868 f i vgui_ClassMenu.obj
 0001:0001086b       ?keyTyped@CHandler_MenuButtonOver@@UAEXW4KeyCode@vgui@@PAVPanel@3@@Z 1001186b f i vgui_ClassMenu.obj
 0001:0001086e       ?keyReleased@CHandler_MenuButtonOver@@UAEXW4KeyCode@vgui@@PAVPanel@3@@Z 1001186e f i vgui_ClassMenu.obj
 0001:00010871       ?keyFocusTicked@CHandler_MenuButtonOver@@UAEXPAVPanel@vgui@@@Z 10011871 f i vgui_ClassMenu.obj
 0001:00010874       ?Reset@CClassMenuPanel@@UAEXXZ 10011874 f i vgui_ClassMenu.obj
 0001:00010891       ?actionPerformed@CMenuHandler_RallyCommand@@UAEXPAVPanel@vgui@@@Z 10011891 f i vgui_ClassMenu.obj
 0001:000108ee       ?actionPerformed@CMenuHandler_RallySound@@UAEXPAVPanel@vgui@@@Z 100118ee f i vgui_ClassMenu.obj
 0001:00010907       ??0ConsolePanel@@QAE@HHHH@Z 10011907 f   vgui_ConsolePanel.obj
 0001:00010a4d       ?actionPerformed@Handler@?%E:\_hlr_code\cl_dll\vgui_ConsolePanel.cpp756510431@@UAEXPAVPanel@vgui@@@Z 10011a4d f i vgui_ConsolePanel.obj
 0001:00010a5b       ?print@ConsolePanel@@UAEHPBD@Z 10011a5b f   vgui_ConsolePanel.obj
 0001:00010a79       ?vprintf@ConsolePanel@@UAEHPBDPAD@Z 10011a79 f   vgui_ConsolePanel.obj
 0001:00010a92       ?printf@ConsolePanel@@UAAHPBDZZ 10011a92 f   vgui_ConsolePanel.obj
 0001:00010aa8       ?doExecCommand@ConsolePanel@@UAEXXZ 10011aa8 f   vgui_ConsolePanel.obj
 0001:00010aef       ?setSize@ConsolePanel@@UAEXHH@Z 10011aef f   vgui_ConsolePanel.obj
 0001:00010b51       ??0TextGrid@vgui@@QAE@ABV01@@Z 10011b51 f i vgui_ConsolePanel.obj
 0001:00010bca       ??4TextGrid@vgui@@QAEAAV01@ABV01@@Z 10011bca f i vgui_ConsolePanel.obj
 0001:00010c41       ??0TextEntry@vgui@@QAE@ABV01@@Z 10011c41 f i vgui_ConsolePanel.obj
 0001:00010cf2       ??4TextEntry@vgui@@QAEAAV01@ABV01@@Z 10011cf2 f i vgui_ConsolePanel.obj
 0001:00010d89       ??0EtchedBorder@vgui@@QAE@ABV01@@Z 10011d89 f i vgui_ConsolePanel.obj
 0001:00010db8       ??4EtchedBorder@vgui@@QAEAAV01@ABV01@@Z 10011db8 f i vgui_ConsolePanel.obj
 0001:00010dca       ??0LoweredBorder@vgui@@QAE@ABV01@@Z 10011dca f i vgui_ConsolePanel.obj
 0001:00010df9       ??4LoweredBorder@vgui@@QAEAAV01@ABV01@@Z 10011df9 f i vgui_ConsolePanel.obj
 0001:00010e0b       ??0ControlConfigPanel@@QAE@HHHH@Z 10011e0b f   vgui_ControlConfigPanel.obj
 0001:000111f0       ??0FooTablePanel@?%E:\_hlr_code\cl_dll\vgui_ControlConfigPanel.cpp2412129099@@QAE@PAVControlConfigPanel@@HHHHH@Z 100121f0 f i vgui_ControlConfigPanel.obj
 0001:000112cb       ?getRowCount@FooTablePanel@?%E:\_hlr_code\cl_dll\vgui_ControlConfigPanel.cpp2412129099@@UAEHXZ 100122cb f i vgui_ControlConfigPanel.obj
 0001:000112d6       ?getCellTall@FooTablePanel@?%E:\_hlr_code\cl_dll\vgui_ControlConfigPanel.cpp2412129099@@UAEHH@Z 100122d6 f i vgui_ControlConfigPanel.obj
 0001:000112dc       ?getCellRenderer@FooTablePanel@?%E:\_hlr_code\cl_dll\vgui_ControlConfigPanel.cpp2412129099@@UAEPAVPanel@vgui@@HH_N00@Z 100122dc f i vgui_ControlConfigPanel.obj
 0001:00011428       ?startCellEditing@FooTablePanel@?%E:\_hlr_code\cl_dll\vgui_ControlConfigPanel.cpp2412129099@@UAEPAVPanel@vgui@@HH@Z 10012428 f i vgui_ControlConfigPanel.obj
 0001:00011469       ?AddCVar@ControlConfigPanel@@QAEXPBD0@Z 10012469 f   vgui_ControlConfigPanel.obj
 0001:000114c2       ?GetCVarCount@ControlConfigPanel@@QAEHXZ 100124c2 f   vgui_ControlConfigPanel.obj
 0001:000114c9       ?GetCVar@ControlConfigPanel@@QAEXHPADH0H@Z 100124c9 f   vgui_ControlConfigPanel.obj
 0001:00011527       ?AddCVarFromInputStream@ControlConfigPanel@@QAEXPAVInputStream@vgui@@@Z 10012527 f   vgui_ControlConfigPanel.obj
 0001:000115a8       ?GetCVarBind@ControlConfigPanel@@QAEXPBDPADH1H@Z 100125a8 f   vgui_ControlConfigPanel.obj
 0001:000115d7       ?SetCVarBind@ControlConfigPanel@@QAEXPBD00@Z 100125d7 f   vgui_ControlConfigPanel.obj
 0001:000115da       ??0HeaderPanel@vgui@@QAE@ABV01@@Z 100125da f i vgui_ControlConfigPanel.obj
 0001:0001166e       ??4HeaderPanel@vgui@@QAEAAV01@ABV01@@Z 1001266e f i vgui_ControlConfigPanel.obj
 0001:000116fc       ??0TablePanel@vgui@@QAE@ABV01@@Z 100126fc f i vgui_ControlConfigPanel.obj
 0001:000117f8       ??4TablePanel@vgui@@QAEAAV01@ABV01@@Z 100127f8 f i vgui_ControlConfigPanel.obj
 0001:000118f1       ??0DataInputStream@vgui@@QAE@ABV01@@Z 100128f1 f i vgui_ControlConfigPanel.obj
 0001:00011933       ??4DataInputStream@vgui@@QAEAAV01@ABV01@@Z 10012933 f i vgui_ControlConfigPanel.obj
 0001:00011942       ?seekStart@DataInputStream@vgui@@$4PPPPPPPM@A@AEXAA_N@Z 10012942 f i vgui_ControlConfigPanel.obj
 0001:0001194a       ?seekRelative@DataInputStream@vgui@@$4PPPPPPPM@A@AEXHAA_N@Z 1001294a f i vgui_ControlConfigPanel.obj
 0001:00011952       ?seekEnd@DataInputStream@vgui@@$4PPPPPPPM@A@AEXAA_N@Z 10012952 f i vgui_ControlConfigPanel.obj
 0001:0001195a       ?getAvailable@DataInputStream@vgui@@$4PPPPPPPM@A@AEHAA_N@Z 1001295a f i vgui_ControlConfigPanel.obj
 0001:00011962       ?readUChar@DataInputStream@vgui@@$4PPPPPPPM@A@AEXPAEHAA_N@Z 10012962 f i vgui_ControlConfigPanel.obj
 0001:0001196a       ?readUChar@DataInputStream@vgui@@$4PPPPPPPM@A@AEEAA_N@Z 1001296a f i vgui_ControlConfigPanel.obj
 0001:00011972       ?close@DataInputStream@vgui@@$4PPPPPPPM@A@AEXAA_N@Z 10012972 f i vgui_ControlConfigPanel.obj
 0001:0001197a       ?GetTGANameForRes@@YAPADPBD@Z 1001297a f   vgui_CustomObjects.obj
 0001:000119d0       ?LoadTGAForRes@@YAPAVBitmapTGA@vgui@@PBD@Z 100129d0 f   vgui_CustomObjects.obj
 0001:00011a05       ??0CommandButton@@QAE@PBDHHHH_N@Z 10012a05 f   vgui_CustomObjects.obj
 0001:00011a4f       ??0CommandButton@@QAE@HPBDHHHH@Z 10012a4f f   vgui_CustomObjects.obj
 0001:00011a99       ??1CommandButton@@QAE@XZ   10012a99 f   vgui_CustomObjects.obj
 0001:00011abd       ?Init@CommandButton@@QAEXXZ 10012abd f   vgui_CustomObjects.obj
 0001:00011b20       ?RecalculateText@CommandButton@@AAEXXZ 10012b20 f   vgui_CustomObjects.obj
 0001:00011b81       ?setText@CommandButton@@UAEXPBD@Z 10012b81 f   vgui_CustomObjects.obj
 0001:00011bac       ?setBoundKey@CommandButton@@QAEXD@Z 10012bac f   vgui_CustomObjects.obj
 0001:00011bbe       ?getBoundKey@CommandButton@@QAEDXZ 10012bbe f   vgui_CustomObjects.obj
 0001:00011bc5       ?AddSubMenu@CommandButton@@QAEXPAVCCommandMenu@@@Z 10012bc5 f   vgui_CustomObjects.obj
 0001:00011bde       ?UpdateSubMenus@CommandButton@@QAEXH@Z 10012bde f   vgui_CustomObjects.obj
 0001:00011bf4       ?paint@CommandButton@@UAEXXZ 10012bf4 f   vgui_CustomObjects.obj
 0001:00011c51       ?paintBackground@CommandButton@@UAEXXZ 10012c51 f   vgui_CustomObjects.obj
 0001:00011ca2       ?cursorEntered@CommandButton@@QAEXXZ 10012ca2 f   vgui_CustomObjects.obj
 0001:00011cde       ?cursorExited@CommandButton@@QAEXXZ 10012cde f   vgui_CustomObjects.obj
 0001:00011d01       ?getParentMenu@CommandButton@@QAEPAVCCommandMenu@@XZ 10012d01 f   vgui_CustomObjects.obj
 0001:00011d08       ?setParentMenu@CommandButton@@QAEXPAVCCommandMenu@@@Z 10012d08 f   vgui_CustomObjects.obj
 0001:00011d15       ?IsNotValid@ClassButton@@UAEHXZ 10012d15 f   vgui_CustomObjects.obj
 0001:00011dac       ??0CImageLabel@@QAE@PBDHH@Z 10012dac f   vgui_CustomObjects.obj
 0001:00011dee       ??0CImageLabel@@QAE@PBDHHHH@Z 10012dee f   vgui_CustomObjects.obj
 0001:00011e37       ??1CImageLabel@@QAE@XZ     10012e37 f   vgui_CustomObjects.obj
 0001:00011e3e       ?getImageWide@CImageLabel@@UAEHXZ 10012e3e f   vgui_CustomObjects.obj
 0001:00011e5b       ?getImageTall@CImageLabel@@UAEHXZ 10012e5b f   vgui_CustomObjects.obj
 0001:00011e78       ?paintBackground@CCommandMenu@@UAEXXZ 10012e78 f   vgui_CustomObjects.obj
 0001:00011e9b       ??0CTFScrollButton@@QAE@HPBDHHHH@Z 10012e9b f   vgui_CustomObjects.obj
 0001:00011f28       ?paint@CTFScrollButton@@UAEXXZ 10012f28 f   vgui_CustomObjects.obj
 0001:00011f81       ?paintBackground@CTFScrollButton@@UAEXXZ 10012f81 f   vgui_CustomObjects.obj
 0001:00011f82       ?paintBackground@CTFSlider@@UAEXXZ 10012f82 f   vgui_CustomObjects.obj
 0001:00012056       ??0CTFScrollPanel@@QAE@HHHH@Z 10013056 f   vgui_CustomObjects.obj
 0001:0001227d       ?cursorEntered@CHandler_MenuButtonOver@@UAEXPAVPanel@vgui@@@Z 1001327d f   vgui_CustomObjects.obj
 0001:0001229d       ?actionPerformed@CMenuHandler_StringCommandClassSelect@@UAEXPAVPanel@vgui@@@Z 1001329d f   vgui_CustomObjects.obj
 0001:000122f6       ?mousePressed@CHandler_ButtonHighlight@@UAEXW4MouseCode@vgui@@PAVPanel@3@@Z 100132f6 f i vgui_CustomObjects.obj
 0001:000122f9       ?mouseReleased@CHandler_ButtonHighlight@@UAEXW4MouseCode@vgui@@PAVPanel@3@@Z 100132f9 f i vgui_CustomObjects.obj
 0001:000122fc       ?cursorMoved@CHandler_ButtonHighlight@@UAEXHHPAVPanel@vgui@@@Z 100132fc f i vgui_CustomObjects.obj
 0001:000122ff       ?mouseDoublePressed@CHandler_ButtonHighlight@@UAEXW4MouseCode@vgui@@PAVPanel@3@@Z 100132ff f i vgui_CustomObjects.obj
 0001:00012302       ?mouseWheeled@CHandler_ButtonHighlight@@UAEXHPAVPanel@vgui@@@Z 10013302 f i vgui_CustomObjects.obj
 0001:00012305       ?keyPressed@CHandler_ButtonHighlight@@UAEXW4KeyCode@vgui@@PAVPanel@3@@Z 10013305 f i vgui_CustomObjects.obj
 0001:00012308       ?keyTyped@CHandler_ButtonHighlight@@UAEXW4KeyCode@vgui@@PAVPanel@3@@Z 10013308 f i vgui_CustomObjects.obj
 0001:0001230b       ?keyReleased@CHandler_ButtonHighlight@@UAEXW4KeyCode@vgui@@PAVPanel@3@@Z 1001330b f i vgui_CustomObjects.obj
 0001:0001230e       ?keyFocusTicked@CHandler_ButtonHighlight@@UAEXPAVPanel@vgui@@@Z 1001330e f i vgui_CustomObjects.obj
 0001:00012311       ?cursorEntered@CHandler_CommandButtonHighlight@@UAEXPAVPanel@vgui@@@Z 10013311 f i vgui_CustomObjects.obj
 0001:0001231c       ?cursorExited@CHandler_CommandButtonHighlight@@UAEXPAVPanel@vgui@@@Z 1001331c f i vgui_CustomObjects.obj
 0001:00012327       ??0CGridEntry@CGrid@vgui@@QAE@XZ 10013327 f   vgui_grid.obj
 0001:00012331       ??1CGridEntry@CGrid@vgui@@QAE@XZ 10013331 f   vgui_grid.obj
 0001:00012332       ??0CGrid@vgui@@QAE@XZ      10013332 f   vgui_grid.obj
 0001:0001234b       ??_ECGrid@vgui@@UAEPAXI@Z  1001334b f i vgui_grid.obj
 0001:0001234b       ??_GCGrid@vgui@@UAEPAXI@Z  1001334b f i vgui_grid.obj
 0001:00012367       ??1CGrid@vgui@@UAE@XZ      10013367 f   vgui_grid.obj
 0001:00012372       ?SetDimensions@CGrid@vgui@@QAE_NHH@Z 10013372 f   vgui_grid.obj
 0001:00012452       ??_ECGridEntry@CGrid@vgui@@QAEPAXI@Z 10013452 f i vgui_grid.obj
 0001:0001249d       ?Term@CGrid@vgui@@QAEXXZ   1001349d f   vgui_grid.obj
 0001:000124c6       ?GetEntry@CGrid@vgui@@QAEPAVPanel@2@HH@Z 100134c6 f   vgui_grid.obj
 0001:000124d8       ?SetEntry@CGrid@vgui@@QAE_NHHPAVPanel@2@@Z 100134d8 f   vgui_grid.obj
 0001:0001251e       ?GetXSpacing@CGrid@vgui@@QAEHXZ 1001351e f   vgui_grid.obj
 0001:00012525       ?GetYSpacing@CGrid@vgui@@QAEHXZ 10013525 f   vgui_grid.obj
 0001:0001252c       ?SetSpacing@CGrid@vgui@@QAEXHH@Z 1001352c f   vgui_grid.obj
 0001:00012577       ?SetColumnWidth@CGrid@vgui@@QAE_NHH@Z 10013577 f   vgui_grid.obj
 0001:000125b1       ?SetRowHeight@CGrid@vgui@@QAE_NHH@Z 100135b1 f   vgui_grid.obj
 0001:000125eb       ?GetColumnWidth@CGrid@vgui@@QAEHH@Z 100135eb f   vgui_grid.obj
 0001:0001260b       ?GetRowHeight@CGrid@vgui@@QAEHH@Z 1001360b f   vgui_grid.obj
 0001:0001262b       ?CalcFitColumnWidth@CGrid@vgui@@QAEHH@Z 1001362b f   vgui_grid.obj
 0001:0001268e       ?CalcFitRowHeight@CGrid@vgui@@QAEHH@Z 1001368e f   vgui_grid.obj
 0001:000126f1       ?AutoSetRowHeights@CGrid@vgui@@QAEXXZ 100136f1 f   vgui_grid.obj
 0001:0001271c       ?GetEntryBox@CGrid@vgui@@QAE_NHHAAH000@Z 1001371c f   vgui_grid.obj
 0001:0001278b       ?CopyColumnWidths@CGrid@vgui@@QAE_NPAV12@@Z 1001378b f   vgui_grid.obj
 0001:000127e1       ?RepositionContents@CGrid@vgui@@QAEXXZ 100137e1 f   vgui_grid.obj
 0001:00012863       ?CalcDrawHeight@CGrid@vgui@@QAEHXZ 10013863 f   vgui_grid.obj
 0001:00012892       ?paint@CGrid@vgui@@UAEXXZ  10013892 f   vgui_grid.obj
 0001:00012937       ?paintBackground@CGrid@vgui@@UAEXXZ 10013937 f   vgui_grid.obj
 0001:0001293c       ?SetRowUnderline@CGrid@vgui@@QAEXH_NHHHHH@Z 1001393c f   vgui_grid.obj
 0001:0001297d       ?Clear@CGrid@vgui@@IAEXXZ  1001397d f   vgui_grid.obj
 0001:000129aa       ?GridEntry@CGrid@vgui@@IAEPAVCGridEntry@12@HH@Z 100139aa f   vgui_grid.obj
 0001:000129e7       ?CalcColOffsets@CGrid@vgui@@IAEXH@Z 100139e7 f   vgui_grid.obj
 0001:00012a37       ?CalcRowOffsets@CGrid@vgui@@IAEXH@Z 10013a37 f   vgui_grid.obj
 0001:00012a79       ?getCellAtPoint@CGrid@vgui@@QAE_NHHAAH0@Z 10013a79 f   vgui_grid.obj
 0001:00012aed       ?AlignPanel@@YAXPAVPanel@vgui@@0H@Z 10013aed f   vgui_helpers.obj
 0001:00012ba5       _VGui_ViewportPaintBackground 10013ba5 f   vgui_int.obj
 0001:00012bb1       ?VGui_GetPanel@@YAPAXXZ    10013bb1 f   vgui_int.obj
 0001:00012bb7       _VGui_Startup              10013bb7 f   vgui_int.obj
 0001:00012c26       _VGui_Shutdown             10013c26 f   vgui_int.obj
 0001:00012c48       ??0Layout@vgui@@QAE@ABV01@@Z 10013c48 f i vgui_int.obj
 0001:00012c53       ??4Layout@vgui@@QAEAAV01@ABV01@@Z 10013c53 f i vgui_int.obj
 0001:00012c58       ??0BorderLayout@vgui@@QAE@ABV01@@Z 10013c58 f i vgui_int.obj
 0001:00012c73       ??4BorderLayout@vgui@@QAEAAV01@ABV01@@Z 10013c73 f i vgui_int.obj
 0001:00012c82       ??0SurfaceBase@vgui@@QAE@ABV01@@Z 10013c82 f i vgui_int.obj
 0001:00012cbc       ??4SurfaceBase@vgui@@QAEAAV01@ABV01@@Z 10013cbc f i vgui_int.obj
 0001:00012cf0       ??0CListBox@vgui@@QAE@XZ   10013cf0 f   vgui_listbox.obj
 0001:00012ddf       ??1CListBox@vgui@@QAE@XZ   10013ddf f   vgui_listbox.obj
 0001:00012dea       ?Init@CListBox@vgui@@QAEXXZ 10013dea f   vgui_listbox.obj
 0001:00012def       ?Term@CListBox@vgui@@QAEXXZ 10013def f   vgui_listbox.obj
 0001:00012e36       ?AddItem@CListBox@vgui@@QAEXPAVPanel@2@@Z 10013e36 f   vgui_listbox.obj
 0001:00012ec6       ?GetNumItems@CListBox@vgui@@QAEHXZ 10013ec6 f   vgui_listbox.obj
 0001:00012edf       ?GetItemWidth@CListBox@vgui@@QAEHXZ 10013edf f   vgui_listbox.obj
 0001:00012f00       ?GetScrollPos@CListBox@vgui@@QAEHXZ 10013f00 f   vgui_listbox.obj
 0001:00012f07       ?SetScrollPos@CListBox@vgui@@QAEXH@Z 10013f07 f   vgui_listbox.obj
 0001:00012f36       ?setPos@CListBox@vgui@@UAEXHH@Z 10013f36 f   vgui_listbox.obj
 0001:00012f51       ?setSize@CListBox@vgui@@UAEXHH@Z 10013f51 f   vgui_listbox.obj
 0001:00012f6c       ?setPixelScroll@CListBox@vgui@@UAEXH@Z 10013f6c f   vgui_listbox.obj
 0001:00012f92       ?InternalLayout@CListBox@vgui@@IAEXXZ 10013f92 f   vgui_listbox.obj
 0001:00013089       ?paintBackground@CListBox@vgui@@UAEXXZ 10014089 f   vgui_listbox.obj
 0001:0001308a       ?SetScrollRange@CListBox@vgui@@QAEXH@Z 1001408a f   vgui_listbox.obj
 0001:000130b7       ?GetScrollMax@CListBox@vgui@@QAEHXZ 100140b7 f   vgui_listbox.obj
 0001:000130c8       ??0IntChangeSignal@vgui@@QAE@XZ 100140c8 f i vgui_listbox.obj
 0001:000130d1       ??0IntChangeSignal@vgui@@QAE@ABV01@@Z 100140d1 f i vgui_listbox.obj
 0001:000130dc       ??4IntChangeSignal@vgui@@QAEAAV01@ABV01@@Z 100140dc f i vgui_listbox.obj
 0001:000130e1       ??0ScrollBar2@vgui@@QAE@ABV01@@Z 100140e1 f i vgui_listbox.obj
 0001:0001313f       ??4ScrollBar2@vgui@@QAEAAV01@ABV01@@Z 1001413f f i vgui_listbox.obj
 0001:00013197       ?intChanged@ListBoxSignal@CListBox@vgui@@UAEXHPAVPanel@3@@Z 10014197 f i vgui_listbox.obj
 0001:000131ac       ?vgui_LoadTGA@@YAPAVBitmapTGA@vgui@@PBD@Z 100141ac f   vgui_loadtga.obj
 0001:0001322a       ?vgui_LoadTGANoInvertAlpha@@YAPAVBitmapTGA@vgui@@PBD@Z 1001422a f   vgui_loadtga.obj
 0001:000132b3       ?CMessageWindowPanel_Create@@YAPAVCMenuPanel@@PBD0HHHHHH@Z 100142b3 f   vgui_mainmenu.obj
 0001:000132fc       ??0CMessageWindowPanel@@QAE@PBDHHHHH@Z 100142fc f   vgui_mainmenu.obj
 0001:000148e0       ??1CMessageWindowPanel@@QAE@XZ 100158e0 f   vgui_mainmenu.obj
 0001:0001498a       ?Initialize@CMessageWindowPanel@@UAEXXZ 1001598a f   vgui_mainmenu.obj
 0001:000149b8       ?Update@CMessageWindowPanel@@UAEXPAD@Z 100159b8 f   vgui_mainmenu.obj
 0001:00014c2a       ?Open@CMessageWindowPanel@@UAEXXZ 10015c2a f   vgui_mainmenu.obj
 0001:00014ef5       ?SlotInput@CMessageWindowPanel@@UAE_NH@Z 10015ef5 f   vgui_mainmenu.obj
 0001:00014f2e       ?paintBackground@CMessageWindowPanel@@UAEXXZ 10015f2e f   vgui_mainmenu.obj
 0001:00014f2f       ?SetActiveInfo@CMessageWindowPanel@@UAEXH@Z 10015f2f f   vgui_mainmenu.obj
 0001:00014f32       ?actionPerformed@CMenuHandler_StringCommand@@UAEXPAVPanel@vgui@@@Z 10015f32 f i vgui_mainmenu.obj
 0001:00014f5f       ?createCBitmapMP3Region@@YAPAVCBitmapMP3@@PAV1@PAEHHHHHHH@Z 10015f5f f   vgui_mp3.obj
 0001:00015070       ??0CBitmapMP3@@QAE@HHPAE@Z 10016070 f i vgui_mp3.obj
 0001:000150bb       ?setSize@CBitmapMP3@@UAEXHH@Z 100160bb f i vgui_mp3.obj
 0001:000150d3       ?setImage@CBitmapMP3@@QAEXPAE@Z 100160d3 f i vgui_mp3.obj
 0001:000150fb       ?drawImage@CBitmapMP3@@QAEXXZ 100160fb f i vgui_mp3.obj
 0001:00015145       ?createCBitmapMP3@@YAPAVCBitmapMP3@@PAV1@PAEHHH@Z 10016145 f   vgui_mp3.obj
 0001:0001516b       ?createTiledCBitmapMP3Region@@YAPAVCBitmapMP3@@PAV1@PAEHHHHHHHHH@Z 1001616b f   vgui_mp3.obj
 0001:000152a0       ?createScaledCBitmapMP3Region@@YAPAVCBitmapMP3@@PAV1@PAEHHHHHHHHH@Z 100162a0 f   vgui_mp3.obj
 0001:000153d0       ??0CBitmapMP3@@QAE@HH@Z    100163d0 f i vgui_mp3.obj
 0001:00015410       ?setImage@CBitmapMP3@@QAEXPAEHH@Z 10016410 f i vgui_mp3.obj
 0001:0001546c       ?ShowMP3Panel@@YAXXZ       1001646c f   vgui_mp3.obj
 0001:0001547a       ?MP3Command@@YAXXZ         1001647a f   vgui_mp3.obj
 0001:000154f3       ?MP3Playlist@@YAXXZ        100164f3 f   vgui_mp3.obj
 0001:0001557f       ?_htntoi@@YAHPADH@Z        1001657f f   vgui_mp3.obj
 0001:0001568b       ??0CMP3MenuPanel@@QAE@HHHHHH@Z 1001668b f   vgui_mp3.obj
 0001:00015799       ??1CMP3MenuPanel@@QAE@XZ   10016799 f   vgui_mp3.obj
 0001:000157a4       ?SlotInput@CMP3MenuPanel@@UAE_NH@Z 100167a4 f   vgui_mp3.obj
 0001:000157a9       ?Open@CMP3MenuPanel@@UAEXXZ 100167a9 f   vgui_mp3.obj
 0001:000157f8       ?Update@CMP3MenuPanel@@UAEXXZ 100167f8 f   vgui_mp3.obj
 0001:000157f9       ?SetActiveInfo@CMP3MenuPanel@@UAEXH@Z 100167f9 f   vgui_mp3.obj
 0001:000157fc       ?paintBackground@CMP3MenuPanel@@UAEXXZ 100167fc f   vgui_mp3.obj
 0001:000157fd       ?paint@CMP3MenuPanel@@UAEXXZ 100167fd f   vgui_mp3.obj
 0001:00015ad6       ?setTime@CSkinnedTime@@QAEXM@Z 10016ad6 f i vgui_mp3.obj
 0001:00015b19       ?setTime@CSkinnedTime@@QAEXHH@Z 10016b19 f i vgui_mp3.obj
 0001:00015b7b       ?getCurrentFileInfo@CMp3Playlist@@QAEPADXZ 10016b7b f i vgui_mp3.obj
 0001:00015c44       ?getFileNum@CMp3Playlist@@QAEHXZ 10016c44 f i vgui_mp3.obj
 0001:00015c56       ?unhighlightAllItems@CSkinnedPlaylist@@QAEXXZ 10016c56 f i vgui_mp3.obj
 0001:00015c82       ?frame@CMP3MenuPanel@@UAEXN@Z 10016c82 f   vgui_mp3.obj
 0001:00015d10       ?next@CMp3Playlist@@QAEX_N@Z 10016d10 f i vgui_mp3.obj
 0001:00015d49       ?play@CMp3Playlist@@QAEXXZ 10016d49 f i vgui_mp3.obj
 0001:00015d7a       ?isPlaying@CMp3Playlist@@QAE_NXZ 10016d7a f i vgui_mp3.obj
 0001:00015dfe       ?Initialize@CMP3MenuPanel@@UAEXXZ 10016dfe f   vgui_mp3.obj
 0001:00015dff       ?Command@CMP3MenuPanel@@QAEXPAD@Z 10016dff f   vgui_mp3.obj
 0001:00016145       ?playFile@CMp3Playlist@@QAEXH@Z 10017145 f i vgui_mp3.obj
 0001:00016195       ?prev@CMp3Playlist@@QAEX_N@Z 10017195 f i vgui_mp3.obj
 0001:000161c9       ?setRandom@CMp3Playlist@@QAEX_N@Z 100171c9 f i vgui_mp3.obj
 0001:00016209       ?ReloadSkin@CMP3MenuPanel@@QAEXXZ 10017209 f   vgui_mp3.obj
 0001:0001632c       ?loadBMP@CSkinnedComponent@@AAEXXZ 1001732c f i vgui_mp3.obj
 0001:00016452       ?loadBMP@CSkinnedButton@@AAEXXZ 10017452 f i vgui_mp3.obj
 0001:000165a6       ?loadBMP@CSkinnedToggleButton@@AAEXXZ 100175a6 f i vgui_mp3.obj
 0001:000167e0       ?loadBMP@CSkinnedSlider@@IAEXXZ 100177e0 f i vgui_mp3.obj
 0001:0001693a       ?reloadBMP@CSkinnedMultiBGSlider@@QAEXXZ 1001793a f i vgui_mp3.obj
 0001:00016955       ?loadBMP@CSkinnedMultiBGSlider@@AAEXXZ 10017955 f i vgui_mp3.obj
 0001:00016a70       ?loadBMP@CSkinnedTime@@AAEXXZ 10017a70 f i vgui_mp3.obj
 0001:00016b7d       ?loadBMP@CSkinnedString@@AAEXXZ 10017b7d f i vgui_mp3.obj
 0001:00016ca9       ?Update@CSkinnedPlaylist@@QAEXPAVCMp3Playlist@@@Z 10017ca9 f i vgui_mp3.obj
 0001:000172af       ?actionPerformed@CMenuHandler_RallyMP3Command@@UAEXPAVPanel@vgui@@@Z 100182af f i vgui_mp3.obj
 0001:000172c1       ??0CPlaylistItem@@QAE@PADHHHH@Z 100182c1 f i vgui_mp3.obj
 0001:00017371       ?cursorEntered@CHandler_ButtonHighlight@@UAEXPAVPanel@vgui@@@Z 10018371 f i vgui_mp3.obj
 0001:00017381       ?cursorExited@CHandler_ButtonHighlight@@UAEXPAVPanel@vgui@@@Z 10018381 f i vgui_mp3.obj
 0001:00017391       ??1CPlaylistItem@@QAE@XZ   10018391 f i vgui_mp3.obj
 0001:000173f4       ?paint@CPlaylistItem@@UAEXXZ 100183f4 f i vgui_mp3.obj
 0001:000174a8       ?paintBackground@CPlaylistItem@@UAEXXZ 100184a8 f i vgui_mp3.obj
 0001:000174e6       ?setNormalColour@CPlaylistItem@@QAEXHHH@Z 100184e6 f i vgui_mp3.obj
 0001:0001751f       ?setSelectColour@CPlaylistItem@@QAEXHHH@Z 1001851f f i vgui_mp3.obj
 0001:00017558       ?setInfo@CPlaylistItem@@QAEXPAD0@Z 10018558 f i vgui_mp3.obj
 0001:00017604       ?calcLenStart@CPlaylistItem@@QAEHXZ 10018604 f i vgui_mp3.obj
 0001:00017631       ?reloadBMP@CSkinnedPlaylist@@QAEXXZ 10018631 f i vgui_mp3.obj
 0001:000176b0       ?loadBMP@CSkinnedTiledComponent@@AAEXXZ 100186b0 f i vgui_mp3.obj
 0001:000177aa       ?CreateSkin@CMP3MenuPanel@@AAEXXZ 100187aa f   vgui_mp3.obj
 0001:000181a5       ??0CSkinnedComponent@@QAE@PADHH@Z 100191a5 f i vgui_mp3.obj
 0001:000181f3       ?paint@CSkinnedComponent@@UAEXXZ 100191f3 f i vgui_mp3.obj
 0001:00018206       ?paintBackground@CSkinnedComponent@@UAEXXZ 10019206 f i vgui_mp3.obj
 0001:00018207       ??0CSkinnedButton@@QAE@PADHHHHHHHH@Z 10019207 f i vgui_mp3.obj
 0001:000182a2       ?internalMousePressed@CSkinnedButton@@UAEXW4MouseCode@vgui@@@Z 100192a2 f i vgui_mp3.obj
 0001:000182c5       ?internalMouseReleased@CSkinnedButton@@UAEXW4MouseCode@vgui@@@Z 100192c5 f i vgui_mp3.obj
 0001:000182ea       ?internalCursorExited@CSkinnedButton@@UAEXXZ 100192ea f i vgui_mp3.obj
 0001:00018307       ?paint@CSkinnedButton@@UAEXXZ 10019307 f i vgui_mp3.obj
 0001:0001834b       ?paintBackground@CSkinnedButton@@UAEXXZ 1001934b f i vgui_mp3.obj
 0001:0001834c       ??0CSkinnedToggleButton@@QAE@PADHHHHHHHHHHHH@Z 1001934c f i vgui_mp3.obj
 0001:00018410       ?internalMousePressed@CSkinnedToggleButton@@UAEXW4MouseCode@vgui@@@Z 10019410 f i vgui_mp3.obj
 0001:0001842a       ?internalMouseReleased@CSkinnedToggleButton@@UAEXW4MouseCode@vgui@@@Z 1001942a f i vgui_mp3.obj
 0001:0001845a       ?internalCursorExited@CSkinnedToggleButton@@UAEXXZ 1001945a f i vgui_mp3.obj
 0001:0001846d       ?paint@CSkinnedToggleButton@@UAEXXZ 1001946d f i vgui_mp3.obj
 0001:000184d5       ?paintBackground@CSkinnedToggleButton@@UAEXXZ 100194d5 f i vgui_mp3.obj
 0001:000184d6       ??0CSkinnedSlider@@QAE@PADHHHHHHHHHHH_N@Z 100194d6 f i vgui_mp3.obj
 0001:00018582       ?paintBackground@CSkinnedSlider@@UAEXXZ 10019582 f i vgui_mp3.obj
 0001:00018625       ?privateMousePressed@CSkinnedSlider@@UAEXW4MouseCode@vgui@@PAVPanel@3@@Z 10019625 f i vgui_mp3.obj
 0001:000187a0       ?recomputeNobPosFromValue@CSkinnedSlider@@MAEXXZ 100197a0 f i vgui_mp3.obj
 0001:000188b9       ?recomputeValueFromNobPos@CSkinnedSlider@@MAEXXZ 100198b9 f i vgui_mp3.obj
 0001:00018974       ??0CSkinnedMultiBGSlider@@QAE@PADHHHHHHHHHHHHH@Z 10019974 f i vgui_mp3.obj
 0001:00018a38       ?setRange@CSkinnedMultiBGSlider@@UAEXHH@Z 10019a38 f i vgui_mp3.obj
 0001:00018a5a       ?paintBackground@CSkinnedMultiBGSlider@@UAEXXZ 10019a5a f i vgui_mp3.obj
 0001:00018adc       ??0CSkinnedTime@@QAE@PADHHHHHH@Z 10019adc f i vgui_mp3.obj
 0001:00018b8a       ?paint@CSkinnedTime@@UAEXXZ 10019b8a f i vgui_mp3.obj
 0001:00018be9       ?paintBackground@CSkinnedTime@@UAEXXZ 10019be9 f i vgui_mp3.obj
 0001:00018bea       ??0CSkinnedString@@QAE@PADHH@Z 10019bea f i vgui_mp3.obj
 0001:00018c6e       ?paint@CSkinnedString@@UAEXXZ 10019c6e f i vgui_mp3.obj
 0001:00018d5f       ?paintBackground@CSkinnedString@@UAEXXZ 10019d5f f i vgui_mp3.obj
 0001:00018d60       ??0CSkinnedPlaylist@@QAE@HHHH@Z 10019d60 f i vgui_mp3.obj
 0001:00018e21       ?paintBackground@CSkinnedPlaylist@@UAEXXZ 10019e21 f i vgui_mp3.obj
 0001:00018e87       ?CreateSkin@CSkinnedPlaylist@@AAEXXZ 10019e87 f i vgui_mp3.obj
 0001:000192de       ??0CSkinnedTiledComponent@@QAE@PADHHHHHH@Z 1001a2de f i vgui_mp3.obj
 0001:0001934d       ?paint@CSkinnedTiledComponent@@UAEXXZ 1001a34d f i vgui_mp3.obj
 0001:00019360       ?paintBackground@CSkinnedTiledComponent@@UAEXXZ 1001a360 f i vgui_mp3.obj
 0001:00019361       ?UnloadSkin@CMP3MenuPanel@@AAEXXZ 1001a361 f   vgui_mp3.obj
 0001:00019561       ?unloadBMP@CSkinnedComponent@@AAEXXZ 1001a561 f i vgui_mp3.obj
 0001:00019590       ??1CSkinnedButton@@QAE@XZ  1001a590 f i vgui_mp3.obj
 0001:000195fd       ?unloadBMP@CSkinnedButton@@AAEXXZ 1001a5fd f i vgui_mp3.obj
 0001:00019657       ??1CSkinnedToggleButton@@QAE@XZ 1001a657 f i vgui_mp3.obj
 0001:000196c4       ?unloadBMP@CSkinnedToggleButton@@AAEXXZ 1001a6c4 f i vgui_mp3.obj
 0001:0001975e       ?unloadBMP@CSkinnedSlider@@IAEXXZ 1001a75e f i vgui_mp3.obj
 0001:000197d8       ??1CSkinnedMultiBGSlider@@QAE@XZ 1001a7d8 f i vgui_mp3.obj
 0001:00019816       ??1CSkinnedSlider@@QAE@XZ  1001a816 f i vgui_mp3.obj
 0001:00019821       ?unloadBMP@CSkinnedMultiBGSlider@@AAEXXZ 1001a821 f i vgui_mp3.obj
 0001:0001986f       ?unloadBMP@CSkinnedTime@@AAEXXZ 1001a86f f i vgui_mp3.obj
 0001:000198a5       ?unloadBMP@CSkinnedString@@AAEXXZ 1001a8a5 f i vgui_mp3.obj
 0001:000198e3       ??1CMp3Playlist@@QAE@XZ    1001a8e3 f i vgui_mp3.obj
 0001:00019907       ??1CSkinnedPlaylist@@QAE@XZ 1001a907 f i vgui_mp3.obj
 0001:00019a60       ?unloadBMP@CSkinnedTiledComponent@@AAEXXZ 1001aa60 f i vgui_mp3.obj
 0001:00019a8f       ?LoadPlaylist@CMP3MenuPanel@@QAEXXZ 1001aa8f f   vgui_mp3.obj
 0001:00019afb       ??0CMp3Playlist@@QAE@XZ    1001aafb f i vgui_mp3.obj
 0001:00019b3d       ?loadPlaylist@CMp3Playlist@@QAEXPAD@Z 1001ab3d f i vgui_mp3.obj
 0001:00019bd0       ?ParsePLS@CMp3Playlist@@AAEXXZ 1001abd0 f i vgui_mp3.obj
 0001:0001a028       ?Scheme_Init@@YAXXZ        1001b028 f   vgui_SchemeManager.obj
 0001:0001a043       ??0CScheme@CSchemeManager@@QAE@XZ 1001b043 f   vgui_SchemeManager.obj
 0001:0001a059       ??1CScheme@CSchemeManager@@QAE@XZ 1001b059 f   vgui_SchemeManager.obj
 0001:0001a069       ??0CSchemeManager@@QAE@HH@Z 1001b069 f   vgui_SchemeManager.obj
 0001:0001a85a       ??_GCSchemeManager@@UAEPAXI@Z 1001b85a f i vgui_SchemeManager.obj
 0001:0001a85a       ??_ECSchemeManager@@UAEPAXI@Z 1001b85a f i vgui_SchemeManager.obj
 0001:0001a876       ??_ECScheme@CSchemeManager@@QAEPAXI@Z 1001b876 f i vgui_SchemeManager.obj
 0001:0001a8c1       ??1CSchemeManager@@UAE@XZ  1001b8c1 f   vgui_SchemeManager.obj
 0001:0001a8de       ?getSchemeHandle@CSchemeManager@@QAEHPBD@Z 1001b8de f   vgui_SchemeManager.obj
 0001:0001a917       ?getSafeScheme@CSchemeManager@@AAEPAVCScheme@1@H@Z 1001b917 f   vgui_SchemeManager.obj
 0001:0001a92e       ?getFont@CSchemeManager@@QAEPAVFont@vgui@@H@Z 1001b92e f   vgui_SchemeManager.obj
 0001:0001a93d       ?getFgColor@CSchemeManager@@QAEXHAAH000@Z 1001b93d f   vgui_SchemeManager.obj
 0001:0001a970       ?getBgColor@CSchemeManager@@QAEXHAAH000@Z 1001b970 f   vgui_SchemeManager.obj
 0001:0001a9a3       ?getFgArmedColor@CSchemeManager@@QAEXHAAH000@Z 1001b9a3 f   vgui_SchemeManager.obj
 0001:0001a9d6       ?getBgArmedColor@CSchemeManager@@QAEXHAAH000@Z 1001b9d6 f   vgui_SchemeManager.obj
 0001:0001aa09       ?getFgMousedownColor@CSchemeManager@@QAEXHAAH000@Z 1001ba09 f   vgui_SchemeManager.obj
 0001:0001aa3c       ?getBgMousedownColor@CSchemeManager@@QAEXHAAH000@Z 1001ba3c f   vgui_SchemeManager.obj
 0001:0001aa6f       ?getBorderColor@CSchemeManager@@QAEXHAAH000@Z 1001ba6f f   vgui_SchemeManager.obj
 0001:0001aaa2       ?internalMousePressed@HitTestPanel@ScorePanel@@UAEXW4MouseCode@vgui@@@Z 1001baa2 f   vgui_ScorePanel.obj
 0001:0001aad5       ??0ScorePanel@@QAE@HHHH@Z  1001bad5 f   vgui_ScorePanel.obj
 0001:0001b14a       ?Initialize@ScorePanel@@QAEXXZ 1001c14a f   vgui_ScorePanel.obj
 0001:0001b18a       ?Update@ScorePanel@@QAEXXZ 1001c18a f   vgui_ScorePanel.obj
 0001:0001b237       ?SortTeams@ScorePanel@@QAEXXZ 1001c237 f   vgui_ScorePanel.obj
 0001:0001b36a       ?SortPlayers@ScorePanel@@QAEXHPAD@Z 1001c36a f   vgui_ScorePanel.obj
 0001:0001b49a       ?RebuildTeams@ScorePanel@@QAEXXZ 1001c49a f   vgui_ScorePanel.obj
 0001:0001b5d5       ?FillGrid@ScorePanel@@QAEXXZ 1001c5d5 f   vgui_ScorePanel.obj
 0001:0001bf1d       ?DeathMsg@ScorePanel@@QAEXHH@Z 1001cf1d f   vgui_ScorePanel.obj
 0001:0001bf6c       ?Open@ScorePanel@@QAEXXZ   1001cf6c f   vgui_ScorePanel.obj
 0001:0001bf90       ?mousePressed@ScorePanel@@UAEXW4MouseCode@vgui@@PAVPanel@3@@Z 1001cf90 f   vgui_ScorePanel.obj
 0001:0001c107       ?cursorMoved@ScorePanel@@UAEXHHPAVPanel@vgui@@@Z 1001d107 f   vgui_ScorePanel.obj
 0001:0001c166       ?setVisible@ScorePanel@@UAEX_N@Z 1001d166 f   vgui_ScorePanel.obj
 0001:0001c198       ?MouseOverCell@ScorePanel@@QAEXHH@Z 1001d198 f   vgui_ScorePanel.obj
 0001:0001c23d       ?paintBackground@CLabelHeader@@UAEXXZ 1001d23d f   vgui_ScorePanel.obj
 0001:0001c370       ?paint@CLabelHeader@@UAEXXZ 1001d370 f   vgui_ScorePanel.obj
 0001:0001c4b2       ?calcAlignment@CLabelHeader@@QAEXHHAAH0@Z 1001d4b2 f   vgui_ScorePanel.obj
 0001:0001c575       ?setCheckeredBg@CLabelHeader@@QAEX_N@Z 1001d575 f   vgui_ScorePanel.obj
 0001:0001c582       ??0CLabelHeader@@QAE@XZ    1001d582 f i vgui_ScorePanel.obj
 0001:0001c60c       ??0CTextImage2@@QAE@XZ     1001d60c f i vgui_ScorePanel.obj
 0001:0001c640       ??1CTextImage2@@QAE@XZ     1001d640 f i vgui_ScorePanel.obj
 0001:0001c647       ?getSize@CTextImage2@@UAEXAAH0@Z 1001d647 f i vgui_ScorePanel.obj
 0001:0001c69e       ?doPaint@CTextImage2@@UAEXPAVPanel@vgui@@@Z 1001d69e f i vgui_ScorePanel.obj
 0001:0001c6bf       ?setPos@CTextImage2@@UAEXHH@Z 1001d6bf f i vgui_ScorePanel.obj
 0001:0001c725       ?setColor@CTextImage2@@UAEXVColor@vgui@@@Z 1001d725 f i vgui_ScorePanel.obj
 0001:0001c749       ?setColor2@CTextImage2@@QAEXVColor@vgui@@@Z 1001d749 f i vgui_ScorePanel.obj
 0001:0001c76d       ??1CLabelHeader@@QAE@XZ    1001d76d f i vgui_ScorePanel.obj
 0001:0001c77e       ?setText@CLabelHeader@@UAEXHPBD@Z 1001d77e f i vgui_ScorePanel.obj
 0001:0001c806       ?setText@CLabelHeader@@UAEXPBD@Z 1001d806 f i vgui_ScorePanel.obj
 0001:0001c872       ?getTextSize@CLabelHeader@@UAEXAAH0@Z 1001d872 f i vgui_ScorePanel.obj
 0001:0001c88c       ?setFgColor@CLabelHeader@@UAEXHHHH@Z 1001d88c f i vgui_ScorePanel.obj
 0001:0001c939       ?setFgColor@CLabelHeader@@UAEXW4SchemeColor@Scheme@vgui@@@Z 1001d939 f i vgui_ScorePanel.obj
 0001:0001c96a       ?setFont@CLabelHeader@@UAEXPAVFont@vgui@@@Z 1001d96a f i vgui_ScorePanel.obj
 0001:0001c980       ??0ScrollBar2@vgui@@QAE@HHHH_N@Z 1001d980 f   vgui_scrollbar2.obj
 0001:0001cb80       ??0ScrollBarButton@@QAE@PBDHHHH@Z 1001db80 f i vgui_scrollbar2.obj
 0001:0001cc0c       ?paintBackground@ScrollBarButton@@UAEXXZ 1001dc0c f i vgui_scrollbar2.obj
 0001:0001cc4d       ?setSize@ScrollBar2@vgui@@UAEXHH@Z 1001dc4d f   vgui_scrollbar2.obj
 0001:0001cd3c       ?performLayout@ScrollBar2@vgui@@MAEXXZ 1001dd3c f   vgui_scrollbar2.obj
 0001:0001cd3d       ?setValue@ScrollBar2@vgui@@UAEXH@Z 1001dd3d f   vgui_scrollbar2.obj
 0001:0001cd52       ?getValue@ScrollBar2@vgui@@UAEHXZ 1001dd52 f   vgui_scrollbar2.obj
 0001:0001cd60       ?addIntChangeSignal@ScrollBar2@vgui@@UAEXPAVIntChangeSignal@2@@Z 1001dd60 f   vgui_scrollbar2.obj
 0001:0001cd9e       ?intChanged@FooDefaultScrollBarIntChangeSignal@?%E:\_hlr_code\game_shared\vgui_scrollbar2.cpp64188338@@UAEXHPAVPanel@vgui@@@Z 1001dd9e f i vgui_scrollbar2.obj
 0001:0001cdac       ?setRange@ScrollBar2@vgui@@UAEXHH@Z 1001ddac f   vgui_scrollbar2.obj
 0001:0001cdc5       ?fireIntChangeSignal@ScrollBar2@vgui@@UAEXXZ 1001ddc5 f   vgui_scrollbar2.obj
 0001:0001ce13       ?isVertical@ScrollBar2@vgui@@UAE_NXZ 1001de13 f   vgui_scrollbar2.obj
 0001:0001ce21       ?hasFullRange@ScrollBar2@vgui@@UAE_NXZ 1001de21 f   vgui_scrollbar2.obj
 0001:0001ce2f       ?setButton@ScrollBar2@vgui@@UAEXPAVButton@2@H@Z 1001de2f f   vgui_scrollbar2.obj
 0001:0001ce95       ?actionPerformed@FooDefaultButtonSignal@?%E:\_hlr_code\game_shared\vgui_scrollbar2.cpp64188338@@UAEXPAVPanel@vgui@@@Z 1001de95 f i vgui_scrollbar2.obj
 0001:0001cea8       ?getButton@ScrollBar2@vgui@@UAEPAVButton@2@H@Z 1001dea8 f   vgui_scrollbar2.obj
 0001:0001ceb6       ?setSlider@ScrollBar2@vgui@@UAEXPAVSlider2@2@@Z 1001deb6 f   vgui_scrollbar2.obj
 0001:0001cf11       ?getSlider@ScrollBar2@vgui@@UAEPAVSlider2@2@XZ 1001df11 f   vgui_scrollbar2.obj
 0001:0001cf18       ?doButtonPressed@ScrollBar2@vgui@@UAEXH@Z 1001df18 f   vgui_scrollbar2.obj
 0001:0001cf5b       ?setButtonPressedScrollValue@ScrollBar2@vgui@@UAEXH@Z 1001df5b f   vgui_scrollbar2.obj
 0001:0001cf68       ?setRangeWindow@ScrollBar2@vgui@@UAEXH@Z 1001df68 f   vgui_scrollbar2.obj
 0001:0001cf7d       ?setRangeWindowEnabled@ScrollBar2@vgui@@UAEX_N@Z 1001df7d f   vgui_scrollbar2.obj
 0001:0001cf92       ?validate@ScrollBar2@vgui@@UAEXXZ 1001df92 f   vgui_scrollbar2.obj
 0001:0001d01b       ??0ServerBrowser@@QAE@HHHH@Z 1001e01b f   vgui_ServerBrowser.obj
 0001:0001d5a3       ?cursorMoved@CBrowser_InputSignal@?%E:\_hlr_code\cl_dll\vgui_ServerBrowser.cpp1232626894@@UAEXHHPAVPanel@vgui@@@Z 1001e5a3 f i vgui_ServerBrowser.obj
 0001:0001d5a6       ?cursorEntered@CBrowser_InputSignal@?%E:\_hlr_code\cl_dll\vgui_ServerBrowser.cpp1232626894@@UAEXPAVPanel@vgui@@@Z 1001e5a6 f i vgui_ServerBrowser.obj
 0001:0001d5a9       ?cursorExited@CBrowser_InputSignal@?%E:\_hlr_code\cl_dll\vgui_ServerBrowser.cpp1232626894@@UAEXPAVPanel@vgui@@@Z 1001e5a9 f i vgui_ServerBrowser.obj
 0001:0001d5ac       ?mouseReleased@CBrowser_InputSignal@?%E:\_hlr_code\cl_dll\vgui_ServerBrowser.cpp1232626894@@UAEXW4MouseCode@vgui@@PAVPanel@4@@Z 1001e5ac f i vgui_ServerBrowser.obj
 0001:0001d5af       ?mouseWheeled@CBrowser_InputSignal@?%E:\_hlr_code\cl_dll\vgui_ServerBrowser.cpp1232626894@@UAEXHPAVPanel@vgui@@@Z 1001e5af f i vgui_ServerBrowser.obj
 0001:0001d5b2       ?keyPressed@CBrowser_InputSignal@?%E:\_hlr_code\cl_dll\vgui_ServerBrowser.cpp1232626894@@UAEXW4KeyCode@vgui@@PAVPanel@4@@Z 1001e5b2 f i vgui_ServerBrowser.obj
 0001:0001d5b5       ?keyTyped@CBrowser_InputSignal@?%E:\_hlr_code\cl_dll\vgui_ServerBrowser.cpp1232626894@@UAEXW4KeyCode@vgui@@PAVPanel@4@@Z 1001e5b5 f i vgui_ServerBrowser.obj
 0001:0001d5b8       ?keyReleased@CBrowser_InputSignal@?%E:\_hlr_code\cl_dll\vgui_ServerBrowser.cpp1232626894@@UAEXW4KeyCode@vgui@@PAVPanel@4@@Z 1001e5b8 f i vgui_ServerBrowser.obj
 0001:0001d5bb       ?keyFocusTicked@CBrowser_InputSignal@?%E:\_hlr_code\cl_dll\vgui_ServerBrowser.cpp1232626894@@UAEXPAVPanel@vgui@@@Z 1001e5bb f i vgui_ServerBrowser.obj
 0001:0001d5be       ??0ServerBrowserTablePanel@?%E:\_hlr_code\cl_dll\vgui_ServerBrowser.cpp1232626894@@QAE@HHHHH@Z 1001e5be f i vgui_ServerBrowser.obj
 0001:0001d62d       ?getRowCount@ServerBrowserTablePanel@?%E:\_hlr_code\cl_dll\vgui_ServerBrowser.cpp1232626894@@UAEHXZ 1001e62d f i vgui_ServerBrowser.obj
 0001:0001d67e       ?getCellTall@ServerBrowserTablePanel@?%E:\_hlr_code\cl_dll\vgui_ServerBrowser.cpp1232626894@@UAEHH@Z 1001e67e f i vgui_ServerBrowser.obj
 0001:0001d69e       ?getCellRenderer@ServerBrowserTablePanel@?%E:\_hlr_code\cl_dll\vgui_ServerBrowser.cpp1232626894@@UAEPAVPanel@vgui@@HH_N00@Z 1001e69e f i vgui_ServerBrowser.obj
 0001:0001d827       ?startCellEditing@ServerBrowserTablePanel@?%E:\_hlr_code\cl_dll\vgui_ServerBrowser.cpp1232626894@@UAEPAVPanel@vgui@@HH@Z 1001e827 f i vgui_ServerBrowser.obj
 0001:0001d82c       ?actionPerformed@ConnectHandler@?%E:\_hlr_code\cl_dll\vgui_ServerBrowser.cpp1232626894@@UAEXPAVPanel@vgui@@@Z 1001e82c f i vgui_ServerBrowser.obj
 0001:0001d837       ?DoConnect@ServerBrowserTablePanel@?%E:\_hlr_code\cl_dll\vgui_ServerBrowser.cpp1232626894@@QAEXXZ 1001e837 f i vgui_ServerBrowser.obj
 0001:0001d890       ?actionPerformed@RefreshHandler@?%E:\_hlr_code\cl_dll\vgui_ServerBrowser.cpp1232626894@@UAEXPAVPanel@vgui@@@Z 1001e890 f i vgui_ServerBrowser.obj
 0001:0001d8a0       ?actionPerformed@StopHandler@?%E:\_hlr_code\cl_dll\vgui_ServerBrowser.cpp1232626894@@UAEXPAVPanel@vgui@@@Z 1001e8a0 f i vgui_ServerBrowser.obj
 0001:0001d8a8       ?actionPerformed@CancelHandler@?%E:\_hlr_code\cl_dll\vgui_ServerBrowser.cpp1232626894@@UAEXPAVPanel@vgui@@@Z 1001e8a8 f i vgui_ServerBrowser.obj
 0001:0001d8b7       ??0CSBLabel@@QAE@PAD0@Z    1001e8b7 f i vgui_ServerBrowser.obj
 0001:0001d91e       ?setTable@CSBLabel@@QAEXPAVServerBrowserTablePanel@?%E:\_hlr_code\cl_dll\vgui_ServerBrowser.cpp1232626894@@@Z 1001e91e f i vgui_ServerBrowser.obj
 0001:0001d96c       ?cursorMoved@LabelSortInputHandler@@UAEXHHPAVPanel@vgui@@@Z 1001e96c f i vgui_ServerBrowser.obj
 0001:0001d96f       ?cursorEntered@LabelSortInputHandler@@UAEXPAVPanel@vgui@@@Z 1001e96f f i vgui_ServerBrowser.obj
 0001:0001d972       ?cursorExited@LabelSortInputHandler@@UAEXPAVPanel@vgui@@@Z 1001e972 f i vgui_ServerBrowser.obj
 0001:0001d975       ?mousePressed@LabelSortInputHandler@@UAEXW4MouseCode@vgui@@PAVPanel@3@@Z 1001e975 f i vgui_ServerBrowser.obj
 0001:0001d982       ?mouseDoublePressed@LabelSortInputHandler@@UAEXW4MouseCode@vgui@@PAVPanel@3@@Z 1001e982 f i vgui_ServerBrowser.obj
 0001:0001d98f       ?mouseReleased@LabelSortInputHandler@@UAEXW4MouseCode@vgui@@PAVPanel@3@@Z 1001e98f f i vgui_ServerBrowser.obj
 0001:0001d992       ?mouseWheeled@LabelSortInputHandler@@UAEXHPAVPanel@vgui@@@Z 1001e992 f i vgui_ServerBrowser.obj
 0001:0001d995       ?keyPressed@LabelSortInputHandler@@UAEXW4KeyCode@vgui@@PAVPanel@3@@Z 1001e995 f i vgui_ServerBrowser.obj
 0001:0001d998       ?keyTyped@LabelSortInputHandler@@UAEXW4KeyCode@vgui@@PAVPanel@3@@Z 1001e998 f i vgui_ServerBrowser.obj
 0001:0001d99b       ?keyReleased@LabelSortInputHandler@@UAEXW4KeyCode@vgui@@PAVPanel@3@@Z 1001e99b f i vgui_ServerBrowser.obj
 0001:0001d99e       ?keyFocusTicked@LabelSortInputHandler@@UAEXPAVPanel@vgui@@@Z 1001e99e f i vgui_ServerBrowser.obj
 0001:0001d9a1       ?setSize@ServerBrowser@@UAEXHH@Z 1001e9a1 f   vgui_ServerBrowser.obj
 0001:0001dae0       ?mousePressed@CBrowser_InputSignal@?%E:\_hlr_code\cl_dll\vgui_ServerBrowser.cpp1232626894@@UAEXW4MouseCode@vgui@@PAVPanel@4@@Z 1001eae0 f   vgui_ServerBrowser.obj
 0001:0001db46       ?mouseDoublePressed@CBrowser_InputSignal@?%E:\_hlr_code\cl_dll\vgui_ServerBrowser.cpp1232626894@@UAEXW4MouseCode@vgui@@PAVPanel@4@@Z 1001eb46 f   vgui_ServerBrowser.obj
 0001:0001dbb4       ??0Slider2@vgui@@QAE@HHHH_N@Z 1001ebb4 f   vgui_slider2.obj
 0001:0001dc56       ?cursorMoved@FooDefaultSliderSignal@?%E:\_hlr_code\game_shared\vgui_slider2.cpp487812152@@UAEXHHPAVPanel@vgui@@@Z 1001ec56 f i vgui_slider2.obj
 0001:0001dc70       ?cursorEntered@FooDefaultSliderSignal@?%E:\_hlr_code\game_shared\vgui_slider2.cpp487812152@@UAEXPAVPanel@vgui@@@Z 1001ec70 f i vgui_slider2.obj
 0001:0001dc73       ?cursorExited@FooDefaultSliderSignal@?%E:\_hlr_code\game_shared\vgui_slider2.cpp487812152@@UAEXPAVPanel@vgui@@@Z 1001ec73 f i vgui_slider2.obj
 0001:0001dc76       ?mouseDoublePressed@FooDefaultSliderSignal@?%E:\_hlr_code\game_shared\vgui_slider2.cpp487812152@@UAEXW4MouseCode@vgui@@PAVPanel@4@@Z 1001ec76 f i vgui_slider2.obj
 0001:0001dc79       ?mousePressed@FooDefaultSliderSignal@?%E:\_hlr_code\game_shared\vgui_slider2.cpp487812152@@UAEXW4MouseCode@vgui@@PAVPanel@4@@Z 1001ec79 f i vgui_slider2.obj
 0001:0001dc8f       ?mouseReleased@FooDefaultSliderSignal@?%E:\_hlr_code\game_shared\vgui_slider2.cpp487812152@@UAEXW4MouseCode@vgui@@PAVPanel@4@@Z 1001ec8f f i vgui_slider2.obj
 0001:0001dca5       ?mouseWheeled@FooDefaultSliderSignal@?%E:\_hlr_code\game_shared\vgui_slider2.cpp487812152@@UAEXHPAVPanel@vgui@@@Z 1001eca5 f i vgui_slider2.obj
 0001:0001dca8       ?keyPressed@FooDefaultSliderSignal@?%E:\_hlr_code\game_shared\vgui_slider2.cpp487812152@@UAEXW4KeyCode@vgui@@PAVPanel@4@@Z 1001eca8 f i vgui_slider2.obj
 0001:0001dcab       ?keyTyped@FooDefaultSliderSignal@?%E:\_hlr_code\game_shared\vgui_slider2.cpp487812152@@UAEXW4KeyCode@vgui@@PAVPanel@4@@Z 1001ecab f i vgui_slider2.obj
 0001:0001dcae       ?keyReleased@FooDefaultSliderSignal@?%E:\_hlr_code\game_shared\vgui_slider2.cpp487812152@@UAEXW4KeyCode@vgui@@PAVPanel@4@@Z 1001ecae f i vgui_slider2.obj
 0001:0001dcb1       ?keyFocusTicked@FooDefaultSliderSignal@?%E:\_hlr_code\game_shared\vgui_slider2.cpp487812152@@UAEXPAVPanel@vgui@@@Z 1001ecb1 f i vgui_slider2.obj
 0001:0001dcb4       ?setSize@Slider2@vgui@@UAEXHH@Z 1001ecb4 f   vgui_slider2.obj
 0001:0001dcd2       ?isVertical@Slider2@vgui@@UAE_NXZ 1001ecd2 f   vgui_slider2.obj
 0001:0001dcd9       ?setValue@Slider2@vgui@@UAEXH@Z 1001ecd9 f   vgui_slider2.obj
 0001:0001dd26       ?getValue@Slider2@vgui@@UAEHXZ 1001ed26 f   vgui_slider2.obj
 0001:0001dd2d       ?recomputeNobPosFromValue@Slider2@vgui@@MAEXXZ 1001ed2d f   vgui_slider2.obj
 0001:0001de2e       ?recomputeValueFromNobPos@Slider2@vgui@@MAEXXZ 1001ee2e f   vgui_slider2.obj
 0001:0001df04       ?hasFullRange@Slider2@vgui@@UAE_NXZ 1001ef04 f   vgui_slider2.obj
 0001:0001df9b       ?addIntChangeSignal@Slider2@vgui@@UAEXPAVIntChangeSignal@2@@Z 1001ef9b f   vgui_slider2.obj
 0001:0001dfad       ?fireIntChangeSignal@Slider2@vgui@@MAEXXZ 1001efad f   vgui_slider2.obj
 0001:0001dff7       ?paintBackground@Slider2@vgui@@MAEXXZ 1001eff7 f   vgui_slider2.obj
 0001:0001e176       ?setRange@Slider2@vgui@@UAEXHH@Z 1001f176 f   vgui_slider2.obj
 0001:0001e193       ?getRange@Slider2@vgui@@UAEXAAH0@Z 1001f193 f   vgui_slider2.obj
 0001:0001e1ae       ?privateCursorMoved@Slider2@vgui@@UAEXHHPAVPanel@2@@Z 1001f1ae f   vgui_slider2.obj
 0001:0001e2bb       ?privateMousePressed@Slider2@vgui@@UAEXW4MouseCode@2@PAVPanel@2@@Z 1001f2bb f   vgui_slider2.obj
 0001:0001e37e       ?privateMouseReleased@Slider2@vgui@@UAEXW4MouseCode@2@PAVPanel@2@@Z 1001f37e f   vgui_slider2.obj
 0001:0001e399       ?getNobPos@Slider2@vgui@@UAEXAAH0@Z 1001f399 f   vgui_slider2.obj
 0001:0001e3b4       ?increaseNobMargin@Slider2@vgui@@UAEXH@Z 1001f3b4 f   vgui_slider2.obj
 0001:0001e3c1       ?setRangeWindow@Slider2@vgui@@UAEXH@Z 1001f3c1 f   vgui_slider2.obj
 0001:0001e3ce       ?setRangeWindowEnabled@Slider2@vgui@@UAEX_N@Z 1001f3ce f   vgui_slider2.obj
 0001:0001e3db       ?setButtonOffset@Slider2@vgui@@UAEXH@Z 1001f3db f   vgui_slider2.obj
 0001:0001e3e8       ?GetVGUITGAName@@YAPADPBD@Z 1001f3e8 f   vgui_TeamFortressViewport.obj
 0001:0001e445       ?AddButton@CCommandMenu@@QAEXPAVCommandButton@@@Z 1001f445 f   vgui_TeamFortressViewport.obj
 0001:0001e499       ?KeyInput@CCommandMenu@@QAE_NH@Z 1001f499 f   vgui_TeamFortressViewport.obj
 0001:0001e50b       ?ClearButtonsOfArmedState@CCommandMenu@@QAEXXZ 1001f50b f   vgui_TeamFortressViewport.obj
 0001:0001e54d       ?FindButtonWithSubmenu@CCommandMenu@@QAEPAVCommandButton@@PAV1@@Z 1001f54d f   vgui_TeamFortressViewport.obj
 0001:0001e587       ?RecalculateVisibles@CCommandMenu@@QAE_NH_N@Z 1001f587 f   vgui_TeamFortressViewport.obj
 0001:0001e6a9       ?RecalculatePositions@CCommandMenu@@QAEXH@Z 1001f6a9 f   vgui_TeamFortressViewport.obj
 0001:0001e751       ?MakeVisible@CCommandMenu@@QAEXPAV1@@Z 1001f751 f   vgui_TeamFortressViewport.obj
 0001:0001e76b       ?CreateSubMenu@TeamFortressViewport@@QAEPAVCCommandMenu@@PAVCommandButton@@PAV2@@Z 1001f76b f   vgui_TeamFortressViewport.obj
 0001:0001e9e5       ??2TeamFortressViewport@@SAPAXI@Z 1001f9e5 f   vgui_TeamFortressViewport.obj
 0001:0001ea04       ??0TeamFortressViewport@@QAE@HHHH@Z 1001fa04 f   vgui_TeamFortressViewport.obj
 0001:0001ec6a       ?cursorMoved@CViewPortInputHandler@@UAEXHHPAVPanel@vgui@@@Z 1001fc6a f i vgui_TeamFortressViewport.obj
 0001:0001ec6d       ?cursorEntered@CViewPortInputHandler@@UAEXPAVPanel@vgui@@@Z 1001fc6d f i vgui_TeamFortressViewport.obj
 0001:0001ec70       ?cursorExited@CViewPortInputHandler@@UAEXPAVPanel@vgui@@@Z 1001fc70 f i vgui_TeamFortressViewport.obj
 0001:0001ec73       ?mousePressed@CViewPortInputHandler@@UAEXW4MouseCode@vgui@@PAVPanel@3@@Z 1001fc73 f i vgui_TeamFortressViewport.obj
 0001:0001ec89       ?mouseReleased@CViewPortInputHandler@@UAEXW4MouseCode@vgui@@PAVPanel@3@@Z 1001fc89 f i vgui_TeamFortressViewport.obj
 0001:0001ec8c       ?mouseDoublePressed@CViewPortInputHandler@@UAEXW4MouseCode@vgui@@PAVPanel@3@@Z 1001fc8c f i vgui_TeamFortressViewport.obj
 0001:0001ec8f       ?mouseWheeled@CViewPortInputHandler@@UAEXHPAVPanel@vgui@@@Z 1001fc8f f i vgui_TeamFortressViewport.obj
 0001:0001ec92       ?keyPressed@CViewPortInputHandler@@UAEXW4KeyCode@vgui@@PAVPanel@3@@Z 1001fc92 f i vgui_TeamFortressViewport.obj
 0001:0001ec95       ?keyTyped@CViewPortInputHandler@@UAEXW4KeyCode@vgui@@PAVPanel@3@@Z 1001fc95 f i vgui_TeamFortressViewport.obj
 0001:0001ec98       ?keyReleased@CViewPortInputHandler@@UAEXW4KeyCode@vgui@@PAVPanel@3@@Z 1001fc98 f i vgui_TeamFortressViewport.obj
 0001:0001ec9b       ?keyFocusTicked@CViewPortInputHandler@@UAEXPAVPanel@vgui@@@Z 1001fc9b f i vgui_TeamFortressViewport.obj
 0001:0001ec9e       ??0Surface@vgui@@QAE@ABV01@@Z 1001fc9e f i vgui_TeamFortressViewport.obj
 0001:0001ecf9       ??1TeamFortressViewport@@QAE@XZ 1001fcf9 f   vgui_TeamFortressViewport.obj
 0001:0001ed6e       ??4Surface@vgui@@QAEAAV01@ABV01@@Z 1001fd6e f i vgui_TeamFortressViewport.obj
 0001:0001eda0       ??1Surface@vgui@@QAE@XZ    1001fda0 f i vgui_TeamFortressViewport.obj
 0001:0001eda5       ?Initialize@TeamFortressViewport@@QAEXXZ 1001fda5 f   vgui_TeamFortressViewport.obj
 0001:0001eee4       ?CreateCommandMenu@TeamFortressViewport@@QAEXXZ 1001fee4 f   vgui_TeamFortressViewport.obj
 0001:0001f6c1       ??0MenuSeparator@vgui@@QAE@ABV01@@Z 100206c1 f i vgui_TeamFortressViewport.obj
 0001:0001f6d9       ??4MenuSeparator@vgui@@QAEAAV01@ABV01@@Z 100206d9 f i vgui_TeamFortressViewport.obj
 0001:0001f6eb       ?CreateDisguiseSubmenu@TeamFortressViewport@@QAEPAVCCommandMenu@@PAVCommandButton@@PAV2@PBD@Z 100206eb f   vgui_TeamFortressViewport.obj
 0001:0001f833       ??0BuildGroup@vgui@@QAE@ABV01@@Z 10020833 f i vgui_TeamFortressViewport.obj
 0001:0001f8bb       ??4BuildGroup@vgui@@QAEAAV01@ABV01@@Z 100208bb f i vgui_TeamFortressViewport.obj
 0001:0001f94d       ?CreateCustomButton@TeamFortressViewport@@QAEPAVCommandButton@@PAD0@Z 1002094d f   vgui_TeamFortressViewport.obj
 0001:000213fc       ?ToggleServerBrowser@TeamFortressViewport@@QAEXXZ 100223fc f   vgui_TeamFortressViewport.obj
 0001:00021435       ?ShowCommandMenu@TeamFortressViewport@@QAEXXZ 10022435 f   vgui_TeamFortressViewport.obj
 0001:000214dd       ?InputSignalHideCommandMenu@TeamFortressViewport@@QAEXXZ 100224dd f   vgui_TeamFortressViewport.obj
 0001:00021505       ?HideCommandMenu@TeamFortressViewport@@QAEXXZ 10022505 f   vgui_TeamFortressViewport.obj
 0001:0002153a       ?ShowScoreBoard@TeamFortressViewport@@QAEXXZ 1002253a f   vgui_TeamFortressViewport.obj
 0001:00021569       ?IsScoreBoardVisible@TeamFortressViewport@@QAE_NXZ 10022569 f   vgui_TeamFortressViewport.obj
 0001:0002157b       ?HideScoreBoard@TeamFortressViewport@@QAEXXZ 1002257b f   vgui_TeamFortressViewport.obj
 0001:000215ad       ?InputPlayerSpecial@TeamFortressViewport@@QAEXXZ 100225ad f   vgui_TeamFortressViewport.obj
 0001:000215f0       ?SetCurrentCommandMenu@TeamFortressViewport@@QAEXPAVCCommandMenu@@@Z 100225f0 f   vgui_TeamFortressViewport.obj
 0001:00021635       ?UpdateCommandMenu@TeamFortressViewport@@QAEXXZ 10022635 f   vgui_TeamFortressViewport.obj
 0001:00021652       ?UpdateSpectatorMenu@TeamFortressViewport@@QAEXXZ 10022652 f   vgui_TeamFortressViewport.obj
 0001:000217fa       ?CreateScoreBoard@TeamFortressViewport@@QAEXXZ 100227fa f   vgui_TeamFortressViewport.obj
 0001:000218c2       ?CreateServerBrowser@TeamFortressViewport@@QAEXXZ 100228c2 f   vgui_TeamFortressViewport.obj
 0001:0002192d       ?SetCurrentMenu@TeamFortressViewport@@QAEXPAVCMenuPanel@@@Z 1002292d f   vgui_TeamFortressViewport.obj
 0001:00021958       ?CreateTextWindow@TeamFortressViewport@@QAEPAVCMenuPanel@@H@Z 10022958 f   vgui_TeamFortressViewport.obj
 0001:00021cb2       ??0CMenuHandler_StringCommandWatch@@QAE@PAD@Z 10022cb2 f i vgui_TeamFortressViewport.obj
 0001:00021ceb       ?actionPerformed@CMenuHandler_StringCommandWatch@@UAEXPAVPanel@vgui@@@Z 10022ceb f i vgui_TeamFortressViewport.obj
 0001:00021d8c       ??0CMenuHandler_StringCommandClassSelect@@QAE@PAD@Z 10022d8c f i vgui_TeamFortressViewport.obj
 0001:00021dc5       ?cursorMoved@CMenuHandler_PopupSubMenuInput@@UAEXHHPAVPanel@vgui@@@Z 10022dc5 f i vgui_TeamFortressViewport.obj
 0001:00021dc8       ?cursorEntered@CMenuHandler_PopupSubMenuInput@@UAEXPAVPanel@vgui@@@Z 10022dc8 f i vgui_TeamFortressViewport.obj
 0001:00021dee       ?ShowVGUIMenu@TeamFortressViewport@@QAEXH@Z 10022dee f   vgui_TeamFortressViewport.obj
 0001:00021f33       ?cursorExited@CMenuHandler_PopupSubMenuInput@@UAEXPAVPanel@vgui@@@Z 10022f33 f i vgui_TeamFortressViewport.obj
 0001:00021f36       ?mousePressed@CMenuHandler_PopupSubMenuInput@@UAEXW4MouseCode@vgui@@PAVPanel@3@@Z 10022f36 f i vgui_TeamFortressViewport.obj
 0001:00021f39       ?mouseDoublePressed@CMenuHandler_PopupSubMenuInput@@UAEXW4MouseCode@vgui@@PAVPanel@3@@Z 10022f39 f i vgui_TeamFortressViewport.obj
 0001:00021f3c       ?mouseReleased@CMenuHandler_PopupSubMenuInput@@UAEXW4MouseCode@vgui@@PAVPanel@3@@Z 10022f3c f i vgui_TeamFortressViewport.obj
 0001:00021f3f       ?mouseWheeled@CMenuHandler_PopupSubMenuInput@@UAEXHPAVPanel@vgui@@@Z 10022f3f f i vgui_TeamFortressViewport.obj
 0001:00021f42       ?keyPressed@CMenuHandler_PopupSubMenuInput@@UAEXW4KeyCode@vgui@@PAVPanel@3@@Z 10022f42 f i vgui_TeamFortressViewport.obj
 0001:00021f45       ?keyTyped@CMenuHandler_PopupSubMenuInput@@UAEXW4KeyCode@vgui@@PAVPanel@3@@Z 10022f45 f i vgui_TeamFortressViewport.obj
 0001:00021f48       ?keyReleased@CMenuHandler_PopupSubMenuInput@@UAEXW4KeyCode@vgui@@PAVPanel@3@@Z 10022f48 f i vgui_TeamFortressViewport.obj
 0001:00021f4b       ?keyFocusTicked@CMenuHandler_PopupSubMenuInput@@UAEXPAVPanel@vgui@@@Z 10022f4b f i vgui_TeamFortressViewport.obj
 0001:00021f4e       ?HideVGUIMenu@TeamFortressViewport@@QAEXXZ 10022f4e f   vgui_TeamFortressViewport.obj
 0001:00021f69       ?HideTopMenu@TeamFortressViewport@@QAEXXZ 10022f69 f   vgui_TeamFortressViewport.obj
 0001:00021fbd       ?AllowedToPrintText@TeamFortressViewport@@QAE_NXZ 10022fbd f   vgui_TeamFortressViewport.obj
 0001:00021feb       ?ShowTeamMenu@TeamFortressViewport@@QAEPAVCMenuPanel@@XZ 10022feb f   vgui_TeamFortressViewport.obj
 0001:00022016       ?CreateTeamMenu@TeamFortressViewport@@QAEXXZ 10023016 f   vgui_TeamFortressViewport.obj
 0001:00022084       ?ShowClassMenu@TeamFortressViewport@@QAEPAVCMenuPanel@@XZ 10023084 f   vgui_TeamFortressViewport.obj
 0001:000220c9       ?CreateClassMenu@TeamFortressViewport@@QAEXXZ 100230c9 f   vgui_TeamFortressViewport.obj
 0001:00022145       ?ShowMainMenu@TeamFortressViewport@@QAEPAVCMenuPanel@@XZ 10023145 f   vgui_TeamFortressViewport.obj
 0001:00022191       ?CreateMainMenu@TeamFortressViewport@@QAEXXZ 10023191 f   vgui_TeamFortressViewport.obj
 0001:00022219       ?ShowMp3Menu@TeamFortressViewport@@QAEPAVCMenuPanel@@XZ 10023219 f   vgui_TeamFortressViewport.obj
 0001:00022244       ?CreateMp3Menu@TeamFortressViewport@@QAEXXZ 10023244 f   vgui_TeamFortressViewport.obj
 0001:000222b2       ?CreateSpectatorMenu@TeamFortressViewport@@AAEXXZ 100232b2 f   vgui_TeamFortressViewport.obj
 0001:00022688       ?IsNotValid@TeamButton@@UAEHXZ 10023688 f i vgui_TeamFortressViewport.obj
 0001:000226b6       ?IsNotValid@FeignButton@@UAEHXZ 100236b6 f i vgui_TeamFortressViewport.obj
 0001:000226dd       ?IsNotValid@SpectateButton@@UAEHXZ 100236dd f i vgui_TeamFortressViewport.obj
 0001:000226ef       ?IsNotValid@DisguiseButton@@UAEHXZ 100236ef f i vgui_TeamFortressViewport.obj
 0001:00022722       ?IsNotValid@DetpackButton@@UAEHXZ 10023722 f i vgui_TeamFortressViewport.obj
 0001:00022749       ?IsNotValid@BuildButton@@UAEHXZ 10023749 f i vgui_TeamFortressViewport.obj
 0001:000227cb       ?UpdateOnPlayerInfo@TeamFortressViewport@@QAEXXZ 100237cb f   vgui_TeamFortressViewport.obj
 0001:000227db       ?UpdateCursorState@TeamFortressViewport@@QAEXXZ 100237db f   vgui_TeamFortressViewport.obj
 0001:00022892       ?UpdateHighlights@TeamFortressViewport@@QAEXXZ 10023892 f   vgui_TeamFortressViewport.obj
 0001:000228a4       ?IsNotValid@MapButton@@UAEHXZ 100238a4 f i vgui_TeamFortressViewport.obj
 0001:000228cd       ?GetAllPlayersInfo@TeamFortressViewport@@QAEXXZ 100238cd f   vgui_TeamFortressViewport.obj
 0001:00022908       ?paintBackground@TeamFortressViewport@@UAEXXZ 10023908 f   vgui_TeamFortressViewport.obj
 0001:00022a20       ?IsNotValid@TeamOnlyCommandButton@@UAEHXZ 10023a20 f i vgui_TeamFortressViewport.obj
 0001:00022a32       ?cursorMoved@CDragNDropHandler@@UAEXHHPAVPanel@vgui@@@Z 10023a32 f   vgui_TeamFortressViewport.obj
 0001:00022a8d       ?mousePressed@CDragNDropHandler@@UAEXW4MouseCode@vgui@@PAVPanel@3@@Z 10023a8d f   vgui_TeamFortressViewport.obj
 0001:00022af7       ?mouseReleased@CDragNDropHandler@@UAEXW4MouseCode@vgui@@PAVPanel@3@@Z 10023af7 f   vgui_TeamFortressViewport.obj
 0001:00022b19       ?SetNextMenu@CMenuPanel@@QAEXPAV1@@Z 10023b19 f i vgui_TeamFortressViewport.obj
 0001:00022b34       ?SlotInput@TeamFortressViewport@@QAE_NH@Z 10023b34 f   vgui_TeamFortressViewport.obj
 0001:00022b51       ?KeyInput@TeamFortressViewport@@QAEHHHPBD@Z 10023b51 f   vgui_TeamFortressViewport.obj
 0001:00022ca0       ?MsgFunc_ValClass@TeamFortressViewport@@QAEHPBDHPAX@Z 10023ca0 f   vgui_TeamFortressViewport.obj
 0001:00022cda       ?MsgFunc_TeamNames@TeamFortressViewport@@QAEHPBDHPAX@Z 10023cda f   vgui_TeamFortressViewport.obj
 0001:00022d78       ?MsgFunc_Feign@TeamFortressViewport@@QAEHPBDHPAX@Z 10023d78 f   vgui_TeamFortressViewport.obj
 0001:00022da3       ?MsgFunc_Detpack@TeamFortressViewport@@QAEHPBDHPAX@Z 10023da3 f   vgui_TeamFortressViewport.obj
 0001:00022dce       ?MsgFunc_VGUIMenu@TeamFortressViewport@@QAEHPBDHPAX@Z 10023dce f   vgui_TeamFortressViewport.obj
 0001:00022e1c       ?MsgFunc_VGUIClasses@TeamFortressViewport@@QAEHPBDHPAX@Z 10023e1c f   vgui_TeamFortressViewport.obj
 0001:00022e4a       ?MsgFunc_MOTD@TeamFortressViewport@@QAEHPBDHPAX@Z 10023e4a f   vgui_TeamFortressViewport.obj
 0001:00022ec2       ?MsgFunc_TextFiles@TeamFortressViewport@@QAEHPBDHPAX@Z 10023ec2 f   vgui_TeamFortressViewport.obj
 0001:00023047       ?MsgFunc_BuildSt@TeamFortressViewport@@QAEHPBDHPAX@Z 10024047 f   vgui_TeamFortressViewport.obj
 0001:00023072       ?MsgFunc_RandomPC@TeamFortressViewport@@QAEHPBDHPAX@Z 10024072 f   vgui_TeamFortressViewport.obj
 0001:00023096       ?MsgFunc_ServerName@TeamFortressViewport@@QAEHPBDHPAX@Z 10024096 f   vgui_TeamFortressViewport.obj
 0001:000230c7       ?MsgFunc_ScoreInfo@TeamFortressViewport@@QAEHPBDHPAX@Z 100240c7 f   vgui_TeamFortressViewport.obj
 0001:00023142       ?MsgFunc_TeamScore@TeamFortressViewport@@QAEHPBDHPAX@Z 10024142 f   vgui_TeamFortressViewport.obj
 0001:000231d3       ?MsgFunc_TeamInfo@TeamFortressViewport@@QAEHPBDHPAX@Z 100241d3 f   vgui_TeamFortressViewport.obj
 0001:00023238       ?DeathMsg@TeamFortressViewport@@QAEXHH@Z 10024238 f   vgui_TeamFortressViewport.obj
 0001:0002324e       ?MsgFunc_Spectator@TeamFortressViewport@@QAEHPBDHPAX@Z 1002424e f   vgui_TeamFortressViewport.obj
 0001:00023286       ?MsgFunc_AllowSpec@TeamFortressViewport@@QAEHPBDHPAX@Z 10024286 f   vgui_TeamFortressViewport.obj
 0001:000232c3       ?UTIL_GetToken@@YAHPAD0H@Z 100242c3 f   vgui_TeamFortressViewport.obj
 0001:0002330d       ?RemoveQuotes@@YAXPAD@Z    1002430d f   vgui_TeamFortressViewport.obj
 0001:00023350       ?AddCommand@TeamFortressViewport@@QAEXPBD@Z 10024350 f   vgui_TeamFortressViewport.obj
 0001:000236cf       ?ExecuteCommands@TeamFortressViewport@@QAEXXZ 100246cf f   vgui_TeamFortressViewport.obj
 0001:000237bf       ?ClearCommands@TeamFortressViewport@@QAEXXZ 100247bf f   vgui_TeamFortressViewport.obj
 0001:000237d6       ?SearchCommands@TeamFortressViewport@@QAE_NPBD@Z 100247d6 f   vgui_TeamFortressViewport.obj
 0001:0002383a       ?GetCommandParam@TeamFortressViewport@@QAE_NPBDPAD@Z 1002483a f   vgui_TeamFortressViewport.obj
 0001:000238e4       ?RemoveCommand@TeamFortressViewport@@QAE_NPBD@Z 100248e4 f   vgui_TeamFortressViewport.obj
 0001:00023a1d       ?mp3Command@TeamFortressViewport@@QAEXPAD@Z 10024a1d f   vgui_TeamFortressViewport.obj
 0001:00023a33       ?mp3Frame@TeamFortressViewport@@QAEXN@Z 10024a33 f   vgui_TeamFortressViewport.obj
 0001:00023a51       ??0CTeamMenuPanel@@QAE@HHHHHH@Z 10024a51 f   vgui_teammenu.obj
 0001:00024313       ??1CTeamMenuPanel@@QAE@XZ  10025313 f   vgui_teammenu.obj
 0001:0002455d       ?Initialize@CTeamMenuPanel@@UAEXXZ 1002555d f   vgui_teammenu.obj
 0001:00024565       ?Update@CTeamMenuPanel@@UAEXXZ 10025565 f   vgui_teammenu.obj
 0001:0002480b       ?SlotInput@CTeamMenuPanel@@UAE_NH@Z 1002580b f   vgui_teammenu.obj
 0001:000248e6       ?Open@CTeamMenuPanel@@UAEXXZ 100258e6 f   vgui_teammenu.obj
 0001:00024c8c       ?paintBackground@CTeamMenuPanel@@UAEXXZ 10025c8c f   vgui_teammenu.obj
 0001:00024c8d       ?DefaultStats@CTeamMenuPanel@@AAEXXZ 10025c8d f   vgui_teammenu.obj
 0001:00025d9b       ?SetActiveInfo@CTeamMenuPanel@@UAEXH@Z 10026d9b f   vgui_teammenu.obj
 0001:00026300       ?Reset@CTeamMenuPanel@@UAEXXZ 10027300 f i vgui_teammenu.obj
 0001:0002631d       _PlaySound                 1002731d f   rally.obj
 0001:0002631e       _TerrainTrace              1002731e f   rally.obj
 0001:0002640c       _PM_PlayerAngles           1002740c f   rally.obj
 0001:00026751       _VectorLength              10027751 f   rally.obj
 0001:00026779       _PM_CarWorldCollision      10027779 f   rally.obj
 0001:00026d85       _PM_DriveMove              10027d85 f   rally.obj
 0001:00026ea6       _PM_MoveToDest             10027ea6 f   rally.obj
 0001:000271d5       _PM_Crash                  100281d5 f   rally.obj
 0001:00027404       _PM_FlyMove                10028404 f   rally.obj
 0001:00027808       _PM_Accelerate             10028808 f   rally.obj
 0001:000278d2       _PM_Friction               100288d2 f   rally.obj
 0001:00027d14       ?Get_Client_Data@@YAPAUConst_Client_s@@PAU1@@Z 10028d14 f   Rally_AntiHaxor.obj
 0001:00027e1e       ?Get_HL_Data@@YAPAUConst_HL_s@@PAU1@@Z 10028e1e f   Rally_AntiHaxor.obj
 0001:00027ffd       ??0CDataCRC32@@QAE@PAD@Z   10028ffd f   Rally_CRC.obj
 0001:00028063       ??0CDataCRC32@@QAE@PAEH@Z  10029063 f   Rally_CRC.obj
 0001:00028075       ??1CDataCRC32@@QAE@XZ      10029075 f   Rally_CRC.obj
 0001:00028084       ?GetFileCRC@CDataCRC32@@QAEHXZ 10029084 f   Rally_CRC.obj
 0001:00028098       ?GetFileSize@CDataCRC32@@QAEHXZ 10029098 f   Rally_CRC.obj
 0001:000280a5       ?Init_CRC32_Table@CDataCRC32@@AAEXXZ 100290a5 f   Rally_CRC.obj
 0001:000280fe       ?Reflect@CDataCRC32@@AAEKKD@Z 100290fe f   Rally_CRC.obj
 0001:0002812c       ?Get_CRC@CDataCRC32@@AAEHPAEH@Z 1002912c f   Rally_CRC.obj
 0001:00028164       ??0CCryptFile@@QAE@PAD@Z   10029164 f   Rally_CryptFile.obj
 0001:0002817f       ??1CCryptFile@@QAE@XZ      1002917f f   Rally_CryptFile.obj
 0001:0002818e       ?GetFileSize@CCryptFile@@QAEHPAD0@Z 1002918e f   Rally_CryptFile.obj
 0001:000281bf       ?GetFile@CCryptFile@@QAEHPAD0HPAE@Z 100291bf f   Rally_CryptFile.obj
 0001:000281f8       ?AddFile@CCryptFile@@QAEHPAD0HPAE@Z 100291f8 f   Rally_CryptFile.obj
 0001:000282ba       ?GetFreeSpace@CCryptFile@@QAEHPAD@Z 100292ba f   Rally_CryptFile.obj
 0001:000282e7       ?GetContents@CCryptFile@@QAEHPAD@Z 100292e7 f   Rally_CryptFile.obj
 0001:00028311       ?GetFileSpace@CCryptFile@@AAEPAUheapstruct@@HPAD@Z 10029311 f   Rally_CryptFile.obj
 0001:0002854e       ?CleanUp@CCryptFile@@AAEXXZ 1002954e f   Rally_CryptFile.obj
 0001:000285a5       ?initialiseHeap@CCryptFile@@AAEHPAUheapstruct@@@Z 100295a5 f   Rally_CryptFile.obj
 0001:000285df       ?expandHeap@CCryptFile@@AAEHHPAUheapstruct@@@Z 100295df f   Rally_CryptFile.obj
 0001:00028650       ?removeHeap@CCryptFile@@AAEXPAUheapstruct@@@Z 10029650 f   Rally_CryptFile.obj
 0001:00028677       ?streamFileToHeap@CCryptFile@@AAEHPAU_iobuf@@PAUheapstruct@@@Z 10029677 f   Rally_CryptFile.obj
 0001:000286c5       ?putToHeap@CCryptFile@@AAEHEPAUheapstruct@@@Z 100296c5 f   Rally_CryptFile.obj
 0001:00028705       ?readBitmapFile@CCryptFile@@AAEHPAU_iobuf@@PAUbmpstruct@@@Z 10029705 f   Rally_CryptFile.obj
 0001:00028991       ?promoteTo24@CCryptFile@@AAEXPAUbmpstruct@@0@Z 10029991 f   Rally_CryptFile.obj
 0001:00028b10       ?process24gotpixel@CCryptFile@@AAEXEPAEPAUheapstruct@@@Z 10029b10 f   Rally_CryptFile.obj
 0001:00028b50       ?writeBitmapFile@CCryptFile@@AAEXPAU_iobuf@@PAUbmpstruct@@@Z 10029b50 f   Rally_CryptFile.obj
 0001:00028c47       ?resolveMaxEncode@CCryptFile@@AAEKPAUbmpstruct@@PAUlookupstruct@@@Z 10029c47 f   Rally_CryptFile.obj
 0001:0002902c       ?biggest_of_3@CCryptFile@@AAEIIII@Z 1002a02c f   Rally_CryptFile.obj
 0001:0002904d       ?longToStream@CCryptFile@@AAEXPAU_iobuf@@K@Z 1002a04d f   Rally_CryptFile.obj
 0001:00029092       ?streamToLong@CCryptFile@@AAEKPAU_iobuf@@@Z 1002a092 f   Rally_CryptFile.obj
 0001:00029116       ?calcEOLpad@CCryptFile@@AAEIHJ@Z 1002a116 f   Rally_CryptFile.obj
 0001:00029134       ?getIndexedPixel@CCryptFile@@AAE?AUpixstruct@@KPAUbmpstruct@@@Z 1002a134 f   Rally_CryptFile.obj
 0001:000291a0       ?setIndexedPixel@CCryptFile@@AAEXKPAUbmpstruct@@Upixstruct@@@Z 1002a1a0 f   Rally_CryptFile.obj
 0001:0002920a       ?encodeData@CCryptFile@@AAEXPAUbmpstruct@@PAUheapstruct@@PAUlookupstruct@@@Z 1002a20a f   Rally_CryptFile.obj
 0001:0002930e       ?getNextHeapBit@CCryptFile@@AAEEKHPAUheapstruct@@@Z 1002a30e f   Rally_CryptFile.obj
 0001:0002933b       ?decodeData@CCryptFile@@AAEHPAUbmpstruct@@PAUheapstruct@@@Z 1002a33b f   Rally_CryptFile.obj
 0001:00029705       ?hash_func@CCryptFile@@AAEHPAE@Z 1002a705 f   Rally_CryptFile.obj
 0001:0002972a       ?rotl4@CCryptFile@@AAEHH@Z 1002a72a f   Rally_CryptFile.obj
 0001:00029744       ?cryptoData@CCryptFile@@AAEXPAUheapstruct@@PAE@Z 1002a744 f   Rally_CryptFile.obj
 0001:000297b8       ?xor@CCryptFile@@AAEEEE@Z  1002a7b8 f   Rally_CryptFile.obj
 0001:000297cd       ?pow@CCryptFile@@AAEHHH@Z  1002a7cd f   Rally_CryptFile.obj
 0001:000297e3       ?stricmp@CCryptFile@@AAEHPBD0@Z 1002a7e3 f   Rally_CryptFile.obj
 0001:00029854       ?formatDataspace@CCryptFile@@AAEHPAUbmpstruct@@PAUheapstruct@@@Z 1002a854 f   Rally_CryptFile.obj
 0001:00029996       ?dumpFileDirectory@CCryptFile@@AAEXPAUheapstruct@@@Z 1002a996 f   Rally_CryptFile.obj
 0001:00029a64       ?dumpFileStats@CCryptFile@@AAEXPAUbmpstruct@@PAUheapstruct@@@Z 1002aa64 f   Rally_CryptFile.obj
 0001:00029bb6       ?addFileToArchive@CCryptFile@@AAEXPAUheapstruct@@PAEHPAD@Z 1002abb6 f   Rally_CryptFile.obj
 0001:00029da7       ?extractFile@CCryptFile@@AAEHPAUheapstruct@@PADHPAE@Z 1002ada7 f   Rally_CryptFile.obj
 0001:00029e86       ?checkExists@CCryptFile@@AAEHPAD@Z 1002ae86 f   Rally_CryptFile.obj
 0001:00029ead       ?fileSize@CCryptFile@@AAEHPAUheapstruct@@PAD@Z 1002aead f   Rally_CryptFile.obj
 0001:00029f42       ?flattenBitmap@CCryptFile@@AAEXPAUbmpstruct@@PAUlookupstruct@@@Z 1002af42 f   Rally_CryptFile.obj
 0001:0002a2c2       ??0CRallyEffects@@AAE@XZ   1002b2c2 f   Rally_Effects.obj
 0001:0002a418       ??0playerEffectsInfo_s@CRallyEffects@@QAE@XZ 1002b418 f i Rally_Effects.obj
 0001:0002a41b       ??1CRallyEffects@@AAE@XZ   1002b41b f   Rally_Effects.obj
 0001:0002a420       ?VidInit@CRallyEffects@@QAEXXZ 1002b420 f   Rally_Effects.obj
 0001:0002a498       ?render@CRallyEffects@@QAEXXZ 1002b498 f   Rally_Effects.obj
 0001:0002a499       ?renderTransTriangles@CRallyEffects@@QAEXXZ 1002b499 f   Rally_Effects.obj
 0001:0002a4d2       ?renderCalculateRPMs@CRallyEffects@@AAEXXZ 1002b4d2 f   Rally_Effects.obj
 0001:0002a7eb       ?renderFog@CRallyEffects@@AAEXXZ 1002b7eb f   Rally_Effects.obj
 0001:0002a841       ?renderSkidmarks@CRallyEffects@@AAEXXZ 1002b841 f   Rally_Effects.obj
 0001:0002a99d       ?renderPlayer@CRallyEffects@@QAEXPAUcl_entity_s@@H_N@Z 1002b99d f   Rally_Effects.obj
 0001:0002aa16       ?renderPlayerTransTriangles@CRallyEffects@@QAEXPAUplayerEffectsInfo_s@1@@Z 1002ba16 f   Rally_Effects.obj
 0001:0002aa41       ?renderPlayerCalcVariables@CRallyEffects@@AAEXPAUplayerEffectsInfo_s@1@@Z 1002ba41 f   Rally_Effects.obj
 0001:0002ae92       ?renderPlayerWheels@CRallyEffects@@AAEXPAUplayerEffectsInfo_s@1@@Z 1002be92 f   Rally_Effects.obj
 0001:0002b003       ?renderPlayerDust@CRallyEffects@@AAEXPAUplayerEffectsInfo_s@1@@Z 1002c003 f   Rally_Effects.obj
 0001:0002b86c       ?renderPlayerShadows@CRallyEffects@@AAEXPAUplayerEffectsInfo_s@1@@Z 1002c86c f   Rally_Effects.obj
 0001:0002c2bd       ??0Vector@@QAE@HHH@Z       1002d2bd f i Rally_Effects.obj
 0001:0002c2d6       ?Length@Vector@@QBEMXZ     1002d2d6 f i Rally_Effects.obj
 0001:0002c301       ?renderPlayerHP@CRallyEffects@@AAEXPAUplayerEffectsInfo_s@1@@Z 1002d301 f   Rally_Effects.obj
 0001:0002c382       ?renderPlayerCheckSkid@CRallyEffects@@AAEXPAUplayerEffectsInfo_s@1@@Z 1002d382 f   Rally_Effects.obj
 0001:0002d07c       ??0Vector@@QAE@ABV0@@Z     1002e07c f i Rally_Effects.obj
 0001:0002d10e       ?renderPlayerBrakeLights@CRallyEffects@@AAEXPAUplayerEffectsInfo_s@1@@Z 1002e10e f   Rally_Effects.obj
 0001:0002da5e       ??GVector@@QBE?AV0@XZ      1002ea5e f i Rally_Effects.obj
 0001:0002da7b       ?renderPlayerHeadLights@CRallyEffects@@AAEXPAUplayerEffectsInfo_s@1@@Z 1002ea7b f   Rally_Effects.obj
 0001:0002dc16       ?FlamePoly@@YAXVVector@@000@Z 1002ec16 f   Rally_Effects.obj
 0001:0002dca4       ?renderPlayerExhaust@CRallyEffects@@AAEXPAUplayerEffectsInfo_s@1@@Z 1002eca4 f   Rally_Effects.obj
 0001:0002e94a       ?renderPlayerSounds@CRallyEffects@@AAEXPAUplayerEffectsInfo_s@1@@Z 1002f94a f   Rally_Effects.obj
 0001:0002eb03       ?freeSkidmarks@CRallyEffects@@QAEXXZ 1002fb03 f   Rally_Effects.obj
 0001:0002eb36       ??0CFModFuncs@@QAE@XZ      1002fb36 f   rally_fmod.obj
 0001:0002eb40       ?Init@CFModFuncs@@QAE_NXZ  1002fb40 f   rally_fmod.obj
 0001:0002ef56       ??1CFModFuncs@@QAE@XZ      1002ff56 f   rally_fmod.obj
 0001:0002ef76       ?Init@CHudRallyHealth@@UAEHXZ 1002ff76 f   rally_hud_health.obj
 0001:0002efaf       ?Think@CHudRallyHealth@@UAEXXZ 1002ffaf f   rally_hud_health.obj
 0001:0002f099       ?Draw@CHudRallyHealth@@UAEHM@Z 10030099 f   rally_hud_health.obj
 0001:0002f14e       ?__MsgFunc_HudRadar@@YAHPBDHPAX@Z 1003014e f   rally_hud_radar.obj
 0001:0002f165       ?Init@CHudRadar@@UAEHXZ    10030165 f   rally_hud_radar.obj
 0001:0002f1c6       ?InitHUDData@CHudRadar@@UAEXXZ 100301c6 f   rally_hud_radar.obj
 0001:0002f335       ?Reset@CHudRadar@@UAEXXZ   10030335 f   rally_hud_radar.obj
 0001:0002f336       ?VidInit@CHudRadar@@UAEHXZ 10030336 f   rally_hud_radar.obj
 0001:0002f341       ?MsgFunc_HudRadar@CHudRadar@@QAEHPBDHPAX@Z 10030341 f   rally_hud_radar.obj
 0001:0002f3ba       ?Draw@CHudRadar@@UAEHM@Z   100303ba f   rally_hud_radar.obj
 0001:0002f456       ?OrthoTriDraw@CHudRadar@@QAEHM@Z 10030456 f   rally_hud_radar.obj
 0001:0002f964       ?fmodInit@CRallySound@@QAEXXZ 10030964 f   rally_sound.obj
 0001:0002fad5       ?IsSoundLoaded@CRallySound@@AAEHPAD@Z 10030ad5 f   rally_sound.obj
 0001:0002fb0f       ?LoadSound@CRallySound@@AAEPAUFSOUND_SAMPLE@@PADI@Z 10030b0f f   rally_sound.obj
 0001:0002fb6c       ?fmodPlay@CRallySound@@QAEXPAD_NH@Z 10030b6c f   rally_sound.obj
 0001:0002fb86       ?fmodPlay@CRallySound@@QAEXPAD_NHM@Z 10030b86 f   rally_sound.obj
 0001:0002fc26       ?fmodPlay3D@CRallySound@@QAEXPAD_NHVVector@@2@Z 10030c26 f   rally_sound.obj
 0001:0002fc6b       ?fmodPlay3D@CRallySound@@QAEXPAD_NHMVVector@@2@Z 10030c6b f   rally_sound.obj
 0001:0002fd63       ?fmodEngineStart@CRallySound@@QAEXHPAD@Z 10030d63 f   rally_sound.obj
 0001:0002fea9       ?fmodStartWhine@CRallySound@@QAEXXZ 10030ea9 f   rally_sound.obj
 0001:0002ff6d       ?fmodEngineChangePitch@CRallySound@@QAEXHHHVVector@@0_N@Z 10030f6d f   rally_sound.obj
 0001:00030227       ?fmodStopEngine@CRallySound@@QAEXXZ 10031227 f   rally_sound.obj
 0001:0003024c       ?fmodStartEngine@CRallySound@@QAEXXZ 1003124c f   rally_sound.obj
 0001:0003025d       ?fmodShutDown@CRallySound@@QAEXXZ 1003125d f   rally_sound.obj
 0001:0003030a       ?metacallback@@YGCPAD0H@Z  1003130a f   rally_sound.obj
 0001:0003036d       ?fmodFrame@CRallySound@@QAEXVVector@@00@Z 1003136d f   rally_sound.obj
 0001:00030467       ?fmodAddRemoteEngine@CRallySound@@QAEXHVVector@@0@Z 10031467 f   rally_sound.obj
 0001:0003059b       ?fmodPlayRemoteEngines@CRallySound@@QAEXXZ 1003159b f   rally_sound.obj
 0001:00030767       ?fmodStopRemoteEngines@CRallySound@@QAEXXZ 10031767 f   rally_sound.obj
 0001:00030792       ?fmodPlayMp3@CRallySound@@QAEXPAD@Z 10031792 f   rally_sound.obj
 0001:00030825       ?fmodStopMp3@CRallySound@@QAEXXZ 10031825 f   rally_sound.obj
 0001:00030862       ?fmodPauseMp3@CRallySound@@QAEXXZ 10031862 f   rally_sound.obj
 0001:00030885       ?fmodIsPausedMp3@CRallySound@@QAE_NXZ 10031885 f   rally_sound.obj
 0001:000308a1       ?fmodIsPlayingMp3@CRallySound@@QAE_NXZ 100318a1 f   rally_sound.obj
 0001:000308bd       ?fmodIsInternetRadioPlaying@CRallySound@@QAE_NXZ 100318bd f   rally_sound.obj
 0001:000308fc       ?fmodIsOpenMp3@CRallySound@@QAE_NXZ 100318fc f   rally_sound.obj
 0001:00030926       ?fmodSetMp3Balance@CRallySound@@QAEXH@Z 10031926 f   rally_sound.obj
 0001:0003095e       ?fmodSetMp3Volume@CRallySound@@QAEXH@Z 1003195e f   rally_sound.obj
 0001:00030996       ?fmodGetMp3Position@CRallySound@@QAEHXZ 10031996 f   rally_sound.obj
 0001:000309ba       ?fmodSetMp3Position@CRallySound@@QAEXH@Z 100319ba f   rally_sound.obj
 0001:000309d3       ?fmodGetMp3Length@CRallySound@@QAEHXZ 100319d3 f   rally_sound.obj
 0001:000309f7       ?fmodGetMp3Tag@CRallySound@@QAEPADPAD@Z 100319f7 f   rally_sound.obj
 0001:00030b22       ?fmodGetMp3Kbps@CRallySound@@QAEHXZ 10031b22 f   rally_sound.obj
 0001:00030b6f       ?fmodGetMp3Frequency@CRallySound@@QAEHXZ 10031b6f f   rally_sound.obj
 0001:00030b83       ?fmodIsStereoMp3@CRallySound@@QAE_NXZ 10031b83 f   rally_sound.obj
 0001:00030bc9       ??0CZLibFuncs@@QAE@XZ      10031bc9 f   rally_zlib.obj
 0001:00030bd6       ?Init@CZLibFuncs@@QAE_NXZ  10031bd6 f   rally_zlib.obj
 0001:00030c3b       ??1CZLibFuncs@@QAE@XZ      10031c3b f   rally_zlib.obj
 0001:00030c52       ?__MsgFunc_SetTimer@@YAHPBDHPAX@Z 10031c52 f   rallyhud.obj
 0001:00030c69       ?__MsgFunc_RaceInfo@@YAHPBDHPAX@Z 10031c69 f   rallyhud.obj
 0001:00030c80       ?__MsgFunc_FixAngle@@YAHPBDHPAX@Z 10031c80 f   rallyhud.obj
 0001:00030c97       ?__MsgFunc_Checkpoint@@YAHPBDHPAX@Z 10031c97 f   rallyhud.obj
 0001:00030cae       ?__MsgFunc_LapEnd@@YAHPBDHPAX@Z 10031cae f   rallyhud.obj
 0001:00030cc5       ?__MsgFunc_RaceEnd@@YAHPBDHPAX@Z 10031cc5 f   rallyhud.obj
 0001:00030cdc       ?__MsgFunc_Countdown@@YAHPBDHPAX@Z 10031cdc f   rallyhud.obj
 0001:00030cf3       ?__MsgFunc_Flashlight@@YAHPBDHPAX@Z 10031cf3 f   rallyhud.obj
 0001:00030d0a       ?__MsgFunc_Money@@YAHPBDHPAX@Z 10031d0a f   rallyhud.obj
 0001:00030d21       ?__MsgFunc_Horn@@YAHPBDHPAX@Z 10031d21 f   rallyhud.obj
 0001:00030d38       ?__MsgFunc_UserStats@@YAHPBDHPAX@Z 10031d38 f   rallyhud.obj
 0001:00030d4f       ?__MsgFunc_RallyScore@@YAHPBDHPAX@Z 10031d4f f   rallyhud.obj
 0001:00030d66       ?MsgFunc_SetTimer@CHudRally@@QAEHPBDHPAX@Z 10031d66 f   rallyhud.obj
 0001:00030db2       ?MsgFunc_Countdown@CHudRally@@QAEHPBDHPAX@Z 10031db2 f   rallyhud.obj
 0001:00030ebd       ?MsgFunc_Flashlight@CHudRally@@QAEHPBDHPAX@Z 10031ebd f   rallyhud.obj
 0001:00030f17       ?MsgFunc_RaceInfo@CHudRally@@QAEHPBDHPAX@Z 10031f17 f   rallyhud.obj
 0001:00030fd4       ?MsgFunc_FixAngle@CHudRally@@QAEHPBDHPAX@Z 10031fd4 f   rallyhud.obj
 0001:00030fdf       ?UpdateScoreboardPositions@@YAXH@Z 10031fdf f   rallyhud.obj
 0001:0003102d       ?MsgFunc_UserStats@CHudRally@@QAEHPBDHPAX@Z 1003202d f   rallyhud.obj
 0001:00031083       ?MsgFunc_Checkpoint@CHudRally@@QAEHPBDHPAX@Z 10032083 f   rallyhud.obj
 0001:0003111b       ?MsgFunc_LapEnd@CHudRally@@QAEHPBDHPAX@Z 1003211b f   rallyhud.obj
 0001:00031264       ?MsgFunc_RaceEnd@CHudRally@@QAEHPBDHPAX@Z 10032264 f   rallyhud.obj
 0001:0003145b       ?MsgFunc_Money@CHudRally@@QAEHPBDHPAX@Z 1003245b f   rallyhud.obj
 0001:0003147a       ?MsgFunc_Horn@CHudRally@@QAEHPBDHPAX@Z 1003247a f   rallyhud.obj
 0001:000314dc       ?MsgFunc_RallyScore@CHudRally@@QAEHPBDHPAX@Z 100324dc f   rallyhud.obj
 0001:00031523       ?DrawTime@CHudRally@@QAEXHHMHHHHH@Z 10032523 f   rallyhud.obj
 0001:00031874       ?DrawTime@CHudRally@@QAEXMHHHHH@Z 10032874 f   rallyhud.obj
 0001:000318ec       ?Init@CHudRally@@UAEHXZ    100328ec f   rallyhud.obj
 0001:000319d2       ?LoadCheckPoints@@YAXXZ    100329d2 f   rallyhud.obj
 0001:00031bb9       ?UpdatePlaces@@YAXXZ       10032bb9 f   rallyhud.obj
 0001:00031d23       ?Draw@CHudRally@@UAEHM@Z   10032d23 f   rallyhud.obj
 0001:0003284f       ?LoadAllWeaponSprites@WeaponsResource@@QAEXXZ 1003384f f   ammo.obj
 0001:00032877       ?CountAmmo@WeaponsResource@@QAEHH@Z 10033877 f   ammo.obj
 0001:0003288d       ?HasAmmo@WeaponsResource@@QAEHPAUWEAPON@@@Z 1003388d f   ammo.obj
 0001:000328e6       ?LoadWeaponSprites@WeaponsResource@@QAEXPAUWEAPON@@@Z 100338e6 f   ammo.obj
 0001:00032d20       ?GetFirstPos@WeaponsResource@@QAEPAUWEAPON@@H@Z 10033d20 f   ammo.obj
 0001:00032d76       ?GetNextActivePos@WeaponsResource@@QAEPAUWEAPON@@HH@Z 10033d76 f   ammo.obj
 0001:00032dbd       ?__MsgFunc_CurWeapon@@YAHPBDHPAX@Z 10033dbd f   ammo.obj
 0001:00032dd4       ?__MsgFunc_WeaponList@@YAHPBDHPAX@Z 10033dd4 f   ammo.obj
 0001:00032deb       ?__MsgFunc_AmmoX@@YAHPBDHPAX@Z 10033deb f   ammo.obj
 0001:00032e02       ?__MsgFunc_AmmoPickup@@YAHPBDHPAX@Z 10033e02 f   ammo.obj
 0001:00032e19       ?__MsgFunc_WeapPickup@@YAHPBDHPAX@Z 10033e19 f   ammo.obj
 0001:00032e30       ?__MsgFunc_HideWeapon@@YAHPBDHPAX@Z 10033e30 f   ammo.obj
 0001:00032e47       ?__MsgFunc_ItemPickup@@YAHPBDHPAX@Z 10033e47 f   ammo.obj
 0001:00032e5e       ?__CmdFunc_Slot1@@YAXXZ    10033e5e f   ammo.obj
 0001:00032e6a       ?__CmdFunc_Slot2@@YAXXZ    10033e6a f   ammo.obj
 0001:00032e76       ?__CmdFunc_Slot3@@YAXXZ    10033e76 f   ammo.obj
 0001:00032e82       ?__CmdFunc_Slot4@@YAXXZ    10033e82 f   ammo.obj
 0001:00032e8e       ?__CmdFunc_Slot5@@YAXXZ    10033e8e f   ammo.obj
 0001:00032e9a       ?__CmdFunc_Slot6@@YAXXZ    10033e9a f   ammo.obj
 0001:00032ea6       ?__CmdFunc_Slot7@@YAXXZ    10033ea6 f   ammo.obj
 0001:00032eb2       ?__CmdFunc_Slot8@@YAXXZ    10033eb2 f   ammo.obj
 0001:00032ebe       ?__CmdFunc_Slot9@@YAXXZ    10033ebe f   ammo.obj
 0001:00032eca       ?__CmdFunc_Slot10@@YAXXZ   10033eca f   ammo.obj
 0001:00032ed6       ?__CmdFunc_Close@@YAXXZ    10033ed6 f   ammo.obj
 0001:00032ee2       ?__CmdFunc_NextWeapon@@YAXXZ 10033ee2 f   ammo.obj
 0001:00032eee       ?__CmdFunc_PrevWeapon@@YAXXZ 10033eee f   ammo.obj
 0001:00032efa       ?Init@CHudAmmo@@UAEHXZ     10033efa f   ammo.obj
 0001:000330b5       ?Reset@CHudAmmo@@UAEXXZ    100340b5 f   ammo.obj
 0001:000330eb       ?VidInit@CHudAmmo@@UAEHXZ  100340eb f   ammo.obj
 0001:000331bd       ?Think@CHudAmmo@@UAEXXZ    100341bd f   ammo.obj
 0001:0003327e       ?GetAmmoPicFromWeapon@WeaponsResource@@QAEPAHHAAUrect_s@@@Z 1003427e f   ammo.obj
 0001:000332e2       ?SelectSlot@WeaponsResource@@QAEXHHH@Z 100342e2 f   ammo.obj
 0001:0003343c       ?MsgFunc_AmmoX@CHudAmmo@@QAEHPBDHPAX@Z 1003443c f   ammo.obj
 0001:0003346d       ?MsgFunc_AmmoPickup@CHudAmmo@@QAEHPBDHPAX@Z 1003446d f   ammo.obj
 0001:000334a5       ?MsgFunc_WeapPickup@CHudAmmo@@QAEHPBDHPAX@Z 100344a5 f   ammo.obj
 0001:000334ce       ?MsgFunc_ItemPickup@CHudAmmo@@QAEHPBDHPAX@Z 100344ce f   ammo.obj
 0001:000334f7       ?MsgFunc_HideWeapon@CHudAmmo@@QAEHPBDHPAX@Z 100344f7 f   ammo.obj
 0001:00033568       ?MsgFunc_CurWeapon@CHudAmmo@@QAEHPBDHPAX@Z 10034568 f   ammo.obj
 0001:000336d9       ?MsgFunc_WeaponList@CHudAmmo@@QAEHPBDHPAX@Z 100346d9 f   ammo.obj
 0001:000337b1       ?SlotInput@CHudAmmo@@QAEXH@Z 100347b1 f   ammo.obj
 0001:000337dd       ?UserCmd_Slot1@CHudAmmo@@QAAXXZ 100347dd f   ammo.obj
 0001:000337e9       ?UserCmd_Slot2@CHudAmmo@@QAAXXZ 100347e9 f   ammo.obj
 0001:000337f5       ?UserCmd_Slot3@CHudAmmo@@QAAXXZ 100347f5 f   ammo.obj
 0001:00033801       ?UserCmd_Slot4@CHudAmmo@@QAAXXZ 10034801 f   ammo.obj
 0001:0003380d       ?UserCmd_Slot5@CHudAmmo@@QAAXXZ 1003480d f   ammo.obj
 0001:00033819       ?UserCmd_Slot6@CHudAmmo@@QAAXXZ 10034819 f   ammo.obj
 0001:00033825       ?UserCmd_Slot7@CHudAmmo@@QAAXXZ 10034825 f   ammo.obj
 0001:00033831       ?UserCmd_Slot8@CHudAmmo@@QAAXXZ 10034831 f   ammo.obj
 0001:0003383d       ?UserCmd_Slot9@CHudAmmo@@QAAXXZ 1003483d f   ammo.obj
 0001:00033849       ?UserCmd_Slot10@CHudAmmo@@QAAXXZ 10034849 f   ammo.obj
 0001:00033855       ?UserCmd_Close@CHudAmmo@@QAAXXZ 10034855 f   ammo.obj
 0001:0003388b       ?UserCmd_NextWeapon@CHudAmmo@@QAAXXZ 1003488b f   ammo.obj
 0001:00033942       ?UserCmd_PrevWeapon@CHudAmmo@@QAAXXZ 10034942 f   ammo.obj
 0001:00033a02       ?Draw@CHudAmmo@@UAEHM@Z    10034a02 f   ammo.obj
 0001:00033d56       ?DrawBar@@YAHHHHHM@Z       10034d56 f   ammo.obj
 0001:00033df5       ?DrawAmmoBar@@YAXPAUWEAPON@@HHHH@Z 10034df5 f   ammo.obj
 0001:00033e92       ?DrawWList@CHudAmmo@@QAEHM@Z 10034e92 f   ammo.obj
 0001:000341ec       ?GetSpriteList@@YAPAUclient_sprite_s@@PAU1@PBDHH@Z 100351ec f   ammo.obj
 0001:00034231       ?Reset@WeaponsResource@@QAEXXZ 10035231 f i ammo.obj
 0001:00034266       ?__MsgFunc_SecAmmoVal@@YAHPBDHPAX@Z 10035266 f   ammo_secondary.obj
 0001:0003427d       ?__MsgFunc_SecAmmoIcon@@YAHPBDHPAX@Z 1003527d f   ammo_secondary.obj
 0001:00034294       ?Init@CHudAmmoSecondary@@UAEHXZ 10035294 f   ammo_secondary.obj
 0001:000342e1       ?Reset@CHudAmmoSecondary@@UAEXXZ 100352e1 f   ammo_secondary.obj
 0001:000342e7       ?VidInit@CHudAmmoSecondary@@UAEHXZ 100352e7 f   ammo_secondary.obj
 0001:000342eb       ?Draw@CHudAmmoSecondary@@UAEHM@Z 100352eb f   ammo_secondary.obj
 0001:000344b8       ?MsgFunc_SecAmmoIcon@CHudAmmoSecondary@@QAEHPBDHPAX@Z 100354b8 f   ammo_secondary.obj
 0001:000344e4       ?MsgFunc_SecAmmoVal@CHudAmmoSecondary@@QAEHPBDHPAX@Z 100354e4 f   ammo_secondary.obj
 0001:0003454a       ?AddToHistory@HistoryResource@@QAEXHHH@Z 1003554a f   ammohistory.obj
 0001:000345d7       ?AddToHistory@HistoryResource@@QAEXHPBDH@Z 100355d7 f   ammohistory.obj
 0001:00034671       ?CheckClearHistory@HistoryResource@@QAEXXZ 10035671 f   ammohistory.obj
 0001:0003468b       ?DrawAmmoHistory@HistoryResource@@QAEHM@Z 1003568b f   ammohistory.obj
 0001:00034997       ??0CCarInfo@@QAE@XZ        10035997 f   carinfo.obj
 0001:000349a8       ??0CCarInfo@@QAE@PADH@Z    100359a8 f   carinfo.obj
 0001:000349ec       ??0CCarInfo@@QAE@PAD@Z     100359ec f   carinfo.obj
 0001:000349fe       ??1CCarInfo@@QAE@XZ        100359fe f   carinfo.obj
 0001:00034a08       ?loadFromFile@CCarInfo@@QAEXPAD@Z 10035a08 f   carinfo.obj
 0001:00034a93       ?resetPointer@CCarInfo@@QAEXXZ 10035a93 f   carinfo.obj
 0001:00034a99       ?skipWhiteSpace@CCarInfo@@AAEXXZ 10035a99 f   carinfo.obj
 0001:00034ab9       ?getNextManufacturer@CCarInfo@@QAEXPAD@Z 10035ab9 f   carinfo.obj
 0001:00034b08       ?getNextModel@CCarInfo@@QAEXPAD@Z 10035b08 f   carinfo.obj
 0001:00034b65       ?getNextAttributeString@CCarInfo@@QAEXPAD0@Z 10035b65 f   carinfo.obj
 0001:00034c11       _HUD_GetHullBounds         10035c11 f   cdll_int.obj
 0001:00034c3f       _HUD_ConnectionlessPacket  10035c3f f   cdll_int.obj
 0001:00034c49       _HUD_PlayerMoveInit        10035c49 f   cdll_int.obj
 0001:00034c54       _HUD_PlayerMoveTexture     10035c54 f   cdll_int.obj
 0001:00034c5f       _HUD_PlayerMove            10035c5f f   cdll_int.obj
 0001:00034d58       _Initialize                10035d58 f   cdll_int.obj
 0001:00034e38       _HUD_VidInit               10035e38 f   cdll_int.obj
 0001:00034e4b       _HUD_Init                  10035e4b f   cdll_int.obj
 0001:00034e6e       _HUD_Redraw                10035e6e f   cdll_int.obj
 0001:00034ef8       _HUD_UpdateClientData      10035ef8 f   cdll_int.obj
 0001:00034f2a       _HUD_Reset                 10035f2a f   cdll_int.obj
 0001:00034f38       _HUD_Frame                 10035f38 f   cdll_int.obj
 0001:00034fef       _HUD_VoiceStatus           10035fef f   cdll_int.obj
 0001:00035004       _HUD_DirectorEvent         10036004 f   cdll_int.obj
 0001:0003501f       ??0CHud@@QAE@XZ            1003601f f i cdll_int.obj
 0001:000350bc       ??_ECHudAmmo@@UAEPAXI@Z    100360bc f i cdll_int.obj
 0001:000350bc       ??_GCHudAmmo@@UAEPAXI@Z    100360bc f i cdll_int.obj
 0001:000350d8       ??1CHudAmmo@@UAE@XZ        100360d8 f i cdll_int.obj
 0001:000350df       ??_ECHudHealth@@UAEPAXI@Z  100360df f i cdll_int.obj
 0001:000350df       ??_GCHudHealth@@UAEPAXI@Z  100360df f i cdll_int.obj
 0001:000350fb       ??1CHudHealth@@UAE@XZ      100360fb f i cdll_int.obj
 0001:00035102       ??_ECHudRally@@UAEPAXI@Z   10036102 f i cdll_int.obj
 0001:00035102       ??_GCHudRally@@UAEPAXI@Z   10036102 f i cdll_int.obj
 0001:0003511e       ??1CHudRally@@UAE@XZ       1003611e f i cdll_int.obj
 0001:00035125       ??_GCHudRallyHealth@@UAEPAXI@Z 10036125 f i cdll_int.obj
 0001:00035125       ??_ECHudRallyHealth@@UAEPAXI@Z 10036125 f i cdll_int.obj
 0001:00035141       ??1CHudRallyHealth@@UAE@XZ 10036141 f i cdll_int.obj
 0001:00035148       ??_ECHudGeiger@@UAEPAXI@Z  10036148 f i cdll_int.obj
 0001:00035148       ??_GCHudGeiger@@UAEPAXI@Z  10036148 f i cdll_int.obj
 0001:00035164       ??1CHudGeiger@@UAE@XZ      10036164 f i cdll_int.obj
 0001:0003516b       ??_ECHudMessage@@UAEPAXI@Z 1003616b f i cdll_int.obj
 0001:0003516b       ??_GCHudMessage@@UAEPAXI@Z 1003616b f i cdll_int.obj
 0001:00035187       ??1CHudMessage@@UAE@XZ     10036187 f i cdll_int.obj
 0001:0003518e       ??_ECHudStatusBar@@UAEPAXI@Z 1003618e f i cdll_int.obj
 0001:0003518e       ??_GCHudStatusBar@@UAEPAXI@Z 1003618e f i cdll_int.obj
 0001:000351aa       ??1CHudStatusBar@@UAE@XZ   100361aa f i cdll_int.obj
 0001:000351b1       ??_ECHudDeathNotice@@UAEPAXI@Z 100361b1 f i cdll_int.obj
 0001:000351b1       ??_GCHudDeathNotice@@UAEPAXI@Z 100361b1 f i cdll_int.obj
 0001:000351cd       ??1CHudDeathNotice@@UAE@XZ 100361cd f i cdll_int.obj
 0001:000351d4       ??_ECHudSayText@@UAEPAXI@Z 100361d4 f i cdll_int.obj
 0001:000351d4       ??_GCHudSayText@@UAEPAXI@Z 100361d4 f i cdll_int.obj
 0001:000351f0       ??1CHudSayText@@UAE@XZ     100361f0 f i cdll_int.obj
 0001:000351f7       ??_GCHudMenu@@UAEPAXI@Z    100361f7 f i cdll_int.obj
 0001:000351f7       ??_ECHudMenu@@UAEPAXI@Z    100361f7 f i cdll_int.obj
 0001:00035213       ??1CHudMenu@@UAE@XZ        10036213 f i cdll_int.obj
 0001:0003521a       ??_GCHudAmmoSecondary@@UAEPAXI@Z 1003621a f i cdll_int.obj
 0001:0003521a       ??_ECHudAmmoSecondary@@UAEPAXI@Z 1003621a f i cdll_int.obj
 0001:00035236       ??1CHudAmmoSecondary@@UAE@XZ 10036236 f i cdll_int.obj
 0001:0003523d       ??_ECHudTextMessage@@UAEPAXI@Z 1003623d f i cdll_int.obj
 0001:0003523d       ??_GCHudTextMessage@@UAEPAXI@Z 1003623d f i cdll_int.obj
 0001:00035259       ??1CHudTextMessage@@UAE@XZ 10036259 f i cdll_int.obj
 0001:00035260       ??_GCHudStatusIcons@@UAEPAXI@Z 10036260 f i cdll_int.obj
 0001:00035260       ??_ECHudStatusIcons@@UAEPAXI@Z 10036260 f i cdll_int.obj
 0001:0003527c       ??1CHudStatusIcons@@UAE@XZ 1003627c f i cdll_int.obj
 0001:00035283       ??_GCHudSpectator@@UAEPAXI@Z 10036283 f i cdll_int.obj
 0001:00035283       ??_ECHudSpectator@@UAEPAXI@Z 10036283 f i cdll_int.obj
 0001:0003529f       ??1CHudSpectator@@UAE@XZ   1003629f f i cdll_int.obj
 0001:000352a6       ??_GCHudRadar@@UAEPAXI@Z   100362a6 f i cdll_int.obj
 0001:000352a6       ??_ECHudRadar@@UAEPAXI@Z   100362a6 f i cdll_int.obj
 0001:000352c2       ??1CHudRadar@@UAE@XZ       100362c2 f i cdll_int.obj
 0001:000352c9       ?COM_Log@@YAXPAD0ZZ        100362c9 f   com_weapons.obj
 0001:00035328       ?HUD_SendWeaponAnim@@YAXHHH@Z 10036328 f   com_weapons.obj
 0001:0003534f       ?HUD_GetWeaponAnim@@YAHXZ  1003634f f   com_weapons.obj
 0001:00035355       ?HUD_PlaySound@@YAXPADM@Z  10036355 f   com_weapons.obj
 0001:00035381       ?HUD_PlaybackEvent@@YAXHPBUedict_s@@GMPAM1MMHHHH@Z 10036381 f   com_weapons.obj
 0001:000353ee       ?HUD_SetMaxSpeed@@YAXPBUedict_s@@M@Z 100363ee f   com_weapons.obj
 0001:000353ef       ?UTIL_WeaponTimeBase@@YAMXZ 100363ef f   com_weapons.obj
 0001:000353f6       ?U_Random@@YAIXZ           100363f6 f   com_weapons.obj
 0001:0003541f       ?U_Srand@@YAXI@Z           1003641f f   com_weapons.obj
 0001:00035435       ?UTIL_SharedRandomLong@@YAHIHH@Z 10036435 f   com_weapons.obj
 0001:0003546c       ?UTIL_SharedRandomFloat@@YAMIMM@Z 1003646c f   com_weapons.obj
 0001:000354ca       ?stub_PrecacheModel@@YAHPAD@Z 100364ca f   com_weapons.obj
 0001:000354cd       ?stub_PrecacheSound@@YAHPAD@Z 100364cd f   com_weapons.obj
 0001:000354d0       ?stub_PrecacheEvent@@YAGHPBD@Z 100364d0 f   com_weapons.obj
 0001:000354d4       ?stub_NameForFunction@@YAPBDK@Z 100364d4 f   com_weapons.obj
 0001:000354da       ?stub_SetModel@@YAXPAUedict_s@@PBD@Z 100364da f   com_weapons.obj
 0001:000354db       ?__MsgFunc_DeathMsg@@YAHPBDHPAX@Z 100364db f   death.obj
 0001:000354f2       ?GetClientColor@@YAPAMH@Z  100364f2 f   death.obj
 0001:00035528       ?Init@CHudDeathNotice@@UAEHXZ 10036528 f   death.obj
 0001:0003555c       ?InitHUDData@CHudDeathNotice@@UAEXXZ 1003655c f   death.obj
 0001:00035571       ?VidInit@CHudDeathNotice@@UAEHXZ 10036571 f   death.obj
 0001:0003558b       ?Draw@CHudDeathNotice@@UAEHM@Z 1003658b f   death.obj
 0001:000357c0       ?MsgFunc_DeathMsg@CHudDeathNotice@@QAEHPBDHPAX@Z 100367c0 f   death.obj
 0001:00035afd       ?Demo_WriteBuffer@@YAXHHPAE@Z 10036afd f   demo.obj
 0001:00035b40       _Demo_ReadBuffer           10036b40 f   demo.obj
 0001:00035bb0       _HUD_AddEntity             10036bb0 f   entity.obj
 0001:00035bf7       _HUD_TxferLocalOverrides   10036bf7 f   entity.obj
 0001:00035c57       _HUD_ProcessPlayerState    10036c57 f   entity.obj
 0001:00035def       _HUD_TxferPredictionData   10036def f   entity.obj
 0001:00035fd2       _HUD_CreateEntities        10036fd2 f   entity.obj
 0001:00035ff9       _HUD_StudioEvent           10036ff9 f   entity.obj
 0001:00036110       _HUD_TempEntUpdate         10037110 f   entity.obj
 0001:00036945       _HUD_GetUserEntity         10037945 f   entity.obj
 0001:00036948       ?GetEntity@@YAPAUcl_entity_s@@H@Z 10037948 f   ev_common.obj
 0001:00036954       ?GetViewEntity@@YAPAUcl_entity_s@@XZ 10037954 f   ev_common.obj
 0001:0003695a       ?EV_CreateTracer@@YAXPAM0@Z 1003795a f   ev_common.obj
 0001:00036970       ?EV_IsPlayer@@YAHH@Z       10037970 f   ev_common.obj
 0001:0003698a       ?EV_IsLocal@@YAHH@Z        1003798a f   ev_common.obj
 0001:000369a2       ?EV_GetGunPosition@@YAXPAUevent_args_s@@PAM1@Z 100379a2 f   ev_common.obj
 0001:00036a16       ?EV_EjectBrass@@YAXPAM0MHH@Z 10037a16 f   ev_common.obj
 0001:00036a56       ?EV_GetDefaultShellInfo@@YAXPAUevent_args_s@@PAM111111MMM@Z 10037a56 f   ev_common.obj
 0001:00036b72       ?EV_MuzzleFlash@@YAXXZ     10037b72 f   ev_common.obj
 0001:00036b83       ?EV_HookEvents@@YAXXZ      10037b83 f   events.obj
 0001:00036bb2       ??1CGameStudioModelRenderer@@UAE@XZ 10037bb2 f i GameStudioModelRenderer.obj
 0001:00036bb7       ??0CGameStudioModelRenderer@@QAE@XZ 10037bb7 f   GameStudioModelRenderer.obj
 0001:00036bc9       ??_GCGameStudioModelRenderer@@UAEPAXI@Z 10037bc9 f i GameStudioModelRenderer.obj
 0001:00036bc9       ??_ECGameStudioModelRenderer@@UAEPAXI@Z 10037bc9 f i GameStudioModelRenderer.obj
 0001:00036be5       ?R_StudioDrawPlayer@@YAHHPAUentity_state_s@@@Z 10037be5 f   GameStudioModelRenderer.obj
 0001:00036c0e       ?R_StudioDrawModel@@YAHH@Z 10037c0e f   GameStudioModelRenderer.obj
 0001:00036c1d       ?R_StudioInit@@YAXXZ       10037c1d f   GameStudioModelRenderer.obj
 0001:00036c27       _HUD_GetStudioModelInterface 10037c27 f   GameStudioModelRenderer.obj
 0001:00036c5a       ?__MsgFunc_Geiger@@YAHPBDHPAX@Z 10037c5a f   geiger.obj
 0001:00036c71       ?Init@CHudGeiger@@UAEHXZ   10037c71 f   geiger.obj
 0001:00036caf       ?VidInit@CHudGeiger@@UAEHXZ 10037caf f   geiger.obj
 0001:00036cb3       ?MsgFunc_Geiger@CHudGeiger@@QAEHPBDHPAX@Z 10037cb3 f   geiger.obj
 0001:00036cda       ?Draw@CHudGeiger@@UAEHM@Z  10037cda f   geiger.obj
 0001:00036e45       ?__MsgFunc_Health@@YAHPBDHPAX@Z 10037e45 f   health.obj
 0001:00036e5c       ?__MsgFunc_Damage@@YAHPBDHPAX@Z 10037e5c f   health.obj
 0001:00036e73       ?Init@CHudHealth@@UAEHXZ   10037e73 f   health.obj
 0001:00036e77       ?Reset@CHudHealth@@UAEXXZ  10037e77 f   health.obj
 0001:00036e78       ?VidInit@CHudHealth@@UAEHXZ 10037e78 f   health.obj
 0001:00036e7c       ?MsgFunc_Health@CHudHealth@@QAEHPBDHPAX@Z 10037e7c f   health.obj
 0001:00036ead       ?MsgFunc_Damage@CHudHealth@@QAEHPBDHPAX@Z 10037ead f   health.obj
 0001:00036f37       ?GetPainColor@CHudHealth@@QAEXAAH00@Z 10037f37 f   health.obj
 0001:00036f3a       ?Draw@CHudHealth@@UAEHM@Z  10037f3a f   health.obj
 0001:00036f40       ?CalcDamageDirection@CHudHealth@@AAEXVVector@@@Z 10037f40 f   health.obj
 0001:00036f43       ?DrawPain@CHudHealth@@AAEHM@Z 10037f43 f   health.obj
 0001:00036f49       ?DrawDamage@CHudHealth@@AAEHM@Z 10037f49 f   health.obj
 0001:00036f4f       ?UpdateTiles@CHudHealth@@AAEXMJ@Z 10037f4f f   health.obj
 0001:00036f7c       ??1CHLVoiceStatusHelper@@UAE@XZ 10037f7c f i hud.obj
 0001:00036f83       ??0CHLVoiceStatusHelper@@QAE@XZ 10037f83 f i hud.obj
 0001:00036f8c       ?GetPlayerTextColor@CHLVoiceStatusHelper@@UAEXHQAH@Z 10037f8c f i hud.obj
 0001:00036fe5       ?UpdateCursorState@CHLVoiceStatusHelper@@UAEXXZ 10037fe5 f i hud.obj
 0001:00036ff0       ?GetAckIconHeight@CHLVoiceStatusHelper@@UAEHXZ 10037ff0 f i hud.obj
 0001:00037003       ?CanShowSpeakerLabels@CHLVoiceStatusHelper@@UAE_NXZ 10038003 f i hud.obj
 0001:00037026       ??_GCHLVoiceStatusHelper@@UAEPAXI@Z 10038026 f i hud.obj
 0001:00037026       ??_ECHLVoiceStatusHelper@@UAEPAXI@Z 10038026 f i hud.obj
 0001:00037042       ?__MsgFunc_Logo@@YAHPBDHPAX@Z 10038042 f   hud.obj
 0001:0003705c       ?__MsgFunc_ResetHUD@@YAHPBDHPAX@Z 1003805c f   hud.obj
 0001:00037076       ?__MsgFunc_InitHUD@@YAHPBDHPAX@Z 10038076 f   hud.obj
 0001:00037093       ?__MsgFunc_SetFOV@@YAHPBDHPAX@Z 10038093 f   hud.obj
 0001:000370ad       ?__MsgFunc_Concuss@@YAHPBDHPAX@Z 100380ad f   hud.obj
 0001:000370c7       ?__MsgFunc_GameMode@@YAHPBDHPAX@Z 100380c7 f   hud.obj
 0001:000370e1       ?__CmdFunc_OpenCommandMenu@@YAXXZ 100380e1 f   hud.obj
 0001:000370f1       ?__CmdFunc_InputPlayerSpecial@@YAXXZ 100380f1 f   hud.obj
 0001:00037101       ?__CmdFunc_CloseCommandMenu@@YAXXZ 10038101 f   hud.obj
 0001:00037111       ?__CmdFunc_ForceCloseCommandMenu@@YAXXZ 10038111 f   hud.obj
 0001:00037121       ?__CmdFunc_ToggleServerBrowser@@YAXXZ 10038121 f   hud.obj
 0001:00037131       ?__MsgFunc_ValClass@@YAHPBDHPAX@Z 10038131 f   hud.obj
 0001:00037150       ?__MsgFunc_TeamNames@@YAHPBDHPAX@Z 10038150 f   hud.obj
 0001:0003716f       ?__MsgFunc_Feign@@YAHPBDHPAX@Z 1003816f f   hud.obj
 0001:0003718e       ?__MsgFunc_Detpack@@YAHPBDHPAX@Z 1003818e f   hud.obj
 0001:000371ad       ?__MsgFunc_VGUIMenu@@YAHPBDHPAX@Z 100381ad f   hud.obj
 0001:000371cc       ?__MsgFunc_VGUIClasses@@YAHPBDHPAX@Z 100381cc f   hud.obj
 0001:000371eb       ?__MsgFunc_MOTD@@YAHPBDHPAX@Z 100381eb f   hud.obj
 0001:0003720a       ?__MsgFunc_BuildSt@@YAHPBDHPAX@Z 1003820a f   hud.obj
 0001:00037229       ?__MsgFunc_RandomPC@@YAHPBDHPAX@Z 10038229 f   hud.obj
 0001:00037248       ?__MsgFunc_ServerName@@YAHPBDHPAX@Z 10038248 f   hud.obj
 0001:00037267       ?__MsgFunc_ScoreInfo@@YAHPBDHPAX@Z 10038267 f   hud.obj
 0001:00037286       ?__MsgFunc_TeamScore@@YAHPBDHPAX@Z 10038286 f   hud.obj
 0001:000372a5       ?__MsgFunc_TeamInfo@@YAHPBDHPAX@Z 100382a5 f   hud.obj
 0001:000372c4       ?__MsgFunc_Spectator@@YAHPBDHPAX@Z 100382c4 f   hud.obj
 0001:000372e3       ?__MsgFunc_AllowSpec@@YAHPBDHPAX@Z 100382e3 f   hud.obj
 0001:00037302       ?__MsgFunc_TextFiles@@YAHPBDHPAX@Z 10038302 f   hud.obj
 0001:00037321       ?mp3Frame@@YAXN@Z          10038321 f   hud.obj
 0001:0003733a       ?Init@CHud@@QAEXXZ         1003833a f   hud.obj
 0001:000376a4       ??1CHud@@QAE@XZ            100386a4 f   hud.obj
 0001:0003776a       ?GetSpriteIndex@CHud@@QAEHPBD@Z 1003876a f   hud.obj
 0001:000377a7       ?VidInit@CHud@@QAEXXZ      100387a7 f   hud.obj
 0001:00037a3e       ?MsgFunc_Logo@CHud@@QAAHPBDHPAX@Z 10038a3e f   hud.obj
 0001:00037a5d       ?COM_FileBase@@YAXPBDPAD@Z 10038a5d f   hud.obj
 0001:00037ad7       ?HUD_IsGame@@YAHPBD@Z      10038ad7 f   hud.obj
 0001:00037b1c       ?HUD_GetFOV@@YAMXZ         10038b1c f   hud.obj
 0001:00037b63       ?MsgFunc_SetFOV@CHud@@QAAHPBDHPAX@Z 10038b63 f   hud.obj
 0001:00037c00       ?AddHudElem@CHud@@QAEXPAVCHudBase@@@Z 10038c00 f   hud.obj
 0001:00037c49       ?GetSensitivity@CHud@@QAEMXZ 10038c49 f   hud.obj
 0001:00037c4d       ??_EIVoiceStatusHelper@@UAEPAXI@Z 10038c4d f i hud.obj
 0001:00037c4d       ??_GIVoiceStatusHelper@@UAEPAXI@Z 10038c4d f i hud.obj
 0001:00037c6a       ?createSingleton@CRallyEffects@@SAPAV1@XZ 10038c6a f i hud.obj
 0001:00037cb0       ?freeSingleton@CRallyEffects@@SAXXZ 10038cb0 f i hud.obj
 0001:00037ccb       ?createSingleton@CRallyVGUIFX@@SAPAV1@XZ 10038ccb f i hud.obj
 0001:00037d0e       ?freeSingleton@CRallyVGUIFX@@SAXXZ 10038d0e f i hud.obj
 0001:00037d29       ?MsgFunc_ResetHUD@CHud@@QAAHPBDHPAX@Z 10038d29 f   hud_msg.obj
 0001:00037d54       ?MsgFunc_InitHUD@CHud@@QAAXPBDHPAX@Z 10038d54 f   hud_msg.obj
 0001:00037d7f       ?MsgFunc_GameMode@CHud@@QAAHPBDHPAX@Z 10038d7f f   hud_msg.obj
 0001:00037d9e       ?MsgFunc_Damage@CHud@@QAAHPBDHPAX@Z 10038d9e f   hud_msg.obj
 0001:00037dd7       ?MsgFunc_Concuss@CHud@@QAAHPBDHPAX@Z 10038dd7 f   hud_msg.obj
 0001:00037e28       ?Think@CHud@@QAEXXZ        10038e28 f   hud_redraw.obj
 0001:00037ec9       ?Redraw@CHud@@QAEHMH@Z     10038ec9 f   hud_redraw.obj
 0001:00038066       ?ScaleColors@@YAXAAH00H@Z  10039066 f   hud_redraw.obj
 0001:000380a2       ?DrawHudString@CHud@@QAEHHHHPADHHH@Z 100390a2 f   hud_redraw.obj
 0001:000380ef       ?DrawHudNumberString@CHud@@QAEHHHHHHHH@Z 100390ef f   hud_redraw.obj
 0001:0003812f       ?DrawHudStringReverse@CHud@@QAEHHHHPADHHH@Z 1003912f f   hud_redraw.obj
 0001:00038187       ?DrawHudNumber@CHud@@QAEHHHHHHHH@Z 10039187 f   hud_redraw.obj
 0001:0003831e       ?DrawHudNumber2@CHud@@QAEHHHHHHHHH@Z 1003931e f   hud_redraw.obj
 0001:0003853d       ?GetNumWidth@CHud@@QAEHHH@Z 1003953d f   hud_redraw.obj
 0001:0003857b       ?ListResponse@@YAXPAUnet_response_s@@@Z 1003957b f   hud_servers.obj
 0001:0003858f       ?ServerResponse@@YAXPAUnet_response_s@@@Z 1003958f f   hud_servers.obj
 0001:000385a3       ?PingResponse@@YAXPAUnet_response_s@@@Z 100395a3 f   hud_servers.obj
 0001:000385b7       ?RulesResponse@@YAXPAUnet_response_s@@@Z 100395b7 f   hud_servers.obj
 0001:000385cb       ?PlayersResponse@@YAXPAUnet_response_s@@@Z 100395cb f   hud_servers.obj
 0001:000385df       ?ListResponse@CHudServers@@QAEXPAUnet_response_s@@@Z 100395df f   hud_servers.obj
 0001:00038650       ?ServerResponse@CHudServers@@QAEXPAUnet_response_s@@@Z 10039650 f   hud_servers.obj
 0001:00038766       ?PingResponse@CHudServers@@QAEXPAUnet_response_s@@@Z 10039766 f   hud_servers.obj
 0001:000387ad       ?RulesResponse@CHudServers@@QAEXPAUnet_response_s@@@Z 100397ad f   hud_servers.obj
 0001:000387d5       ?PlayersResponse@CHudServers@@QAEXPAUnet_response_s@@@Z 100397d5 f   hud_servers.obj
 0001:000387fc       ?CompareServers@CHudServers@@QAEHPAUserver_s@1@0@Z 100397fc f   hud_servers.obj
 0001:00038863       ?AddServer@CHudServers@@QAEXPAPAUserver_s@1@PAU21@@Z 10039863 f   hud_servers.obj
 0001:000388ca       ?Think@CHudServers@@QAEXN@Z 100398ca f   hud_servers.obj
 0001:00038927       ?QueryThink@CHudServers@@QAEXXZ 10039927 f   hud_servers.obj
 0001:000389ca       ?ServerListSize@CHudServers@@QAEHXZ 100399ca f   hud_servers.obj
 0001:000389eb       ?FindRequest@CHudServers@@QAEPAUrequest_s@1@HPAU21@@Z 100399eb f   hud_servers.obj
 0001:00038a05       ?RemoveServerFromList@CHudServers@@QAEXPAPAUrequest_s@1@PAU21@@Z 10039a05 f   hud_servers.obj
 0001:00038a2e       ?ClearRequestList@CHudServers@@QAEXPAPAUrequest_s@1@@Z 10039a2e f   hud_servers.obj
 0001:00038a55       ?ClearServerList@CHudServers@@QAEXPAPAUserver_s@1@@Z 10039a55 f   hud_servers.obj
 0001:00038a87       ?CompareField@@YAHPAUserver_s@CHudServers@@0PBDH@Z 10039a87 f   hud_servers.obj
 0001:00038b17       ?ServerListCompareFunc@@YGHPAUserver_s@CHudServers@@0PBD@Z 10039b17 f   hud_servers.obj
 0001:00038b41       ?FnServerCompare@@YAHPBX0@Z 10039b41 f   hud_servers.obj
 0001:00038b5a       ?SortServers@CHudServers@@QAEXPBD@Z 10039b5a f   hud_servers.obj
 0001:00038c0c       ?GetServer@CHudServers@@AAEPAUserver_s@1@H@Z 10039c0c f   hud_servers.obj
 0001:00038c28       ?GetServerInfo@CHudServers@@QAEPADH@Z 10039c28 f   hud_servers.obj
 0001:00038c3f       ?CancelRequest@CHudServers@@QAEXXZ 10039c3f f   hud_servers.obj
 0001:00038c5f       ?LoadMasterAddresses@CHudServers@@QAEHHPAHPAUnetadr_s@@@Z 10039c5f f   hud_servers.obj
 0001:00038edd       ?RequestList@CHudServers@@QAEXXZ 10039edd f   hud_servers.obj
 0001:00038f99       ?RequestBroadcastList@CHudServers@@QAEXH@Z 10039f99 f   hud_servers.obj
 0001:00039096       ?ServerPing@CHudServers@@QAEXH@Z 1003a096 f   hud_servers.obj
 0001:000390e0       ?ServerRules@CHudServers@@QAEXH@Z 1003a0e0 f   hud_servers.obj
 0001:0003912a       ?ServerPlayers@CHudServers@@QAEXH@Z 1003a12a f   hud_servers.obj
 0001:00039174       ?isQuerying@CHudServers@@QAEHXZ 1003a174 f   hud_servers.obj
 0001:00039180       ?GetServerCount@CHudServers@@QAEHXZ 1003a180 f   hud_servers.obj
 0001:00039187       ??0CHudServers@@QAE@XZ     1003a187 f   hud_servers.obj
 0001:000391d8       ??1CHudServers@@QAE@XZ     1003a1d8 f   hud_servers.obj
 0001:0003925c       ?ServersGetCount@@YAHXZ    1003a25c f   hud_servers.obj
 0001:0003926e       ?ServersIsQuerying@@YAHXZ  1003a26e f   hud_servers.obj
 0001:00039280       ?ServersGetInfo@@YAPBDH@Z  1003a280 f   hud_servers.obj
 0001:00039297       ?SortServers@@YAXPBD@Z     1003a297 f   hud_servers.obj
 0001:000392ab       ?ServersShutdown@@YAXXZ    1003a2ab f   hud_servers.obj
 0001:000392cd       ?ServersInit@@YAXXZ        1003a2cd f   hud_servers.obj
 0001:000392f2       ?ServersThink@@YAXN@Z      1003a2f2 f   hud_servers.obj
 0001:0003930b       ?ServersCancel@@YAXXZ      1003a30b f   hud_servers.obj
 0001:0003931b       ?ServersList@@YAXXZ        1003a31b f   hud_servers.obj
 0001:0003932b       ?BroadcastServersList@@YAXH@Z 1003a32b f   hud_servers.obj
 0001:0003933f       ?ServerPing@@YAXH@Z        1003a33f f   hud_servers.obj
 0001:00039353       ?ServerRules@@YAXH@Z       1003a353 f   hud_servers.obj
 0001:00039367       ?ServerPlayers@@YAXH@Z     1003a367 f   hud_servers.obj
 0001:0003937b       ?SpectatorMode@@YAXXZ      1003a37b f   hud_spectator.obj
 0001:000393c3       ?Init@CHudSpectator@@UAEHXZ 1003a3c3 f   hud_spectator.obj
 0001:0003944e       ?UTIL_StringToVector@@YAXPAMPBD@Z 1003a44e f   hud_spectator.obj
 0001:000394b9       ?SetSpectatorStartPosition@CHudSpectator@@QAEXXZ 1003a4b9 f   hud_spectator.obj
 0001:00039657       ?VidInit@CHudSpectator@@UAEHXZ 1003a657 f   hud_spectator.obj
 0001:000396f6       ?Draw@CHudSpectator@@UAEHM@Z 1003a6f6 f   hud_spectator.obj
 0001:00039992       ?DirectorEvent@CHudSpectator@@QAEXEIII@Z 1003a992 f   hud_spectator.obj
 0001:00039a5a       ?FindNextPlayer@CHudSpectator@@QAEX_N@Z 1003aa5a f   hud_spectator.obj
 0001:00039aea       ?HandleButtonsDown@CHudSpectator@@QAEXH@Z 1003aaea f   hud_spectator.obj
 0001:00039c48       ?HandleButtonsUp@CHudSpectator@@QAEXH@Z 1003ac48 f   hud_spectator.obj
 0001:00039c78       ?SetModes@CHudSpectator@@QAEXHH@Z 1003ac78 f   hud_spectator.obj
 0001:00039f15       ?IsActivePlayer@CHudSpectator@@QAE_NPAUcl_entity_s@@@Z 1003af15 f   hud_spectator.obj
 0001:00039f52       ?ParseOverviewFile@CHudSpectator@@QAE_NXZ 1003af52 f   hud_spectator.obj
 0001:0003a3c1       ?LoadMapSprites@CHudSpectator@@QAEXXZ 1003b3c1 f   hud_spectator.obj
 0001:0003a3e6       ?DrawOverviewLayer@CHudSpectator@@QAEXXZ 1003b3e6 f   hud_spectator.obj
 0001:0003a7f9       ?GetMapPosition@CHudSpectator@@QAEXPAM@Z 1003b7f9 f   hud_spectator.obj
 0001:0003a896       ?DrawOverviewEntities@CHudSpectator@@QAEXXZ 1003b896 f   hud_spectator.obj
 0001:0003b0a0       ?DrawOverview@CHudSpectator@@QAEXXZ 1003c0a0 f   hud_spectator.obj
 0001:0003b0dd       ?CheckOverviewEntities@CHudSpectator@@QAEXXZ 1003c0dd f   hud_spectator.obj
 0001:0003b11c       ?AddOverviewEntity@CHudSpectator@@QAE_NHPAUcl_entity_s@@PBD@Z 1003c11c f   hud_spectator.obj
 0001:0003b187       ?DeathMessage@CHudSpectator@@QAEXH@Z 1003c187 f   hud_spectator.obj
 0001:0003b1c6       ?AddOverviewEntityToList@CHudSpectator@@QAE_NHPAUcl_entity_s@@N@Z 1003c1c6 f   hud_spectator.obj
 0001:0003b212       ?UpdateClientData@CHud@@QAEHPAUclient_data_s@@M@Z 1003c212 f   hud_update.obj
 0001:0003b298       ?MoveToward@@YAMMMM@Z      1003c298 f   in_camera.obj
 0001:0003b360       ?VectorAngles@@YAXVVector@@PAM@Z 1003c360 f   in_camera.obj
 0001:0003b422       _CAM_Think                 1003c422 f   in_camera.obj
 0001:0003bfe0       ?CAM_Load_TV@@YAXXZ        1003cfe0 f   in_camera.obj
 0001:0003c196       ?CAM_Load_Spec@@YAXXZ      1003d196 f   in_camera.obj
 0001:0003c432       ?CAM_TV_Mode@@YAXVVector@@@Z 1003d432 f   in_camera.obj
 0001:0003c4f4       ?CAM_PitchUpDown@@YAXXZ    1003d4f4 f   in_camera.obj
 0001:0003c500       ?CAM_PitchUpUp@@YAXXZ      1003d500 f   in_camera.obj
 0001:0003c50c       ?CAM_PitchDownDown@@YAXXZ  1003d50c f   in_camera.obj
 0001:0003c518       ?CAM_PitchDownUp@@YAXXZ    1003d518 f   in_camera.obj
 0001:0003c524       ?CAM_YawLeftDown@@YAXXZ    1003d524 f   in_camera.obj
 0001:0003c530       ?CAM_YawLeftUp@@YAXXZ      1003d530 f   in_camera.obj
 0001:0003c53c       ?CAM_YawRightDown@@YAXXZ   1003d53c f   in_camera.obj
 0001:0003c548       ?CAM_YawRightUp@@YAXXZ     1003d548 f   in_camera.obj
 0001:0003c554       ?CAM_InDown@@YAXXZ         1003d554 f   in_camera.obj
 0001:0003c560       ?CAM_InUp@@YAXXZ           1003d560 f   in_camera.obj
 0001:0003c56c       ?CAM_OutDown@@YAXXZ        1003d56c f   in_camera.obj
 0001:0003c578       ?CAM_OutUp@@YAXXZ          1003d578 f   in_camera.obj
 0001:0003c584       ?CAM_ToThirdPerson@@YAXXZ  1003d584 f   in_camera.obj
 0001:0003c5e1       ?CAM_VGUI@@YAXXZ           1003d5e1 f   in_camera.obj
 0001:0003c624       ?CAM_ToFirstPerson@@YAXXZ  1003d624 f   in_camera.obj
 0001:0003c649       ?CAM_ToggleSnapto@@YAXXZ   1003d649 f   in_camera.obj
 0001:0003c676       ?CAM_Init@@YAXXZ           1003d676 f   in_camera.obj
 0001:0003c915       ?CAM_ClearStates@@YAXXZ    1003d915 f   in_camera.obj
 0001:0003c9ab       ?CAM_StartMouseMove@@YAXXZ 1003d9ab f   in_camera.obj
 0001:0003ca31       ?CAM_EndMouseMove@@YAXXZ   1003da31 f   in_camera.obj
 0001:0003ca40       ?CAM_StartDistance@@YAXXZ  1003da40 f   in_camera.obj
 0001:0003cab5       ?CAM_EndDistance@@YAXXZ    1003dab5 f   in_camera.obj
 0001:0003cac7       _CL_IsThirdPerson          1003dac7 f   in_camera.obj
 0001:0003cad3       _CL_CameraOffset           1003dad3 f   in_camera.obj
 0001:0003cb0e       ?KB_ConvertString@@YAHPADPAPAD@Z 1003db0e f   input.obj
 0001:0003cc01       _KB_Find                   1003dc01 f   input.obj
 0001:0003cc2d       ?KB_Add@@YAXPBDPAUkbutton_s@@@Z 1003dc2d f   input.obj
 0001:0003cc76       ?KB_Init@@YAXXZ            1003dc76 f   input.obj
 0001:0003ccae       ?KB_Shutdown@@YAXXZ        1003dcae f   input.obj
 0001:0003ccd1       ?KeyDown@@YAXPAUkbutton_s@@@Z 1003dcd1 f   input.obj
 0001:0003cd32       ?KeyUp@@YAXPAUkbutton_s@@@Z 1003dd32 f   input.obj
 0001:0003cd89       _HUD_Key_Event             1003dd89 f   input.obj
 0001:0003cda9       ?IN_BreakDown@@YAXXZ       1003dda9 f   input.obj
 0001:0003cdb5       ?IN_BreakUp@@YAXXZ         1003ddb5 f   input.obj
 0001:0003cdc1       ?IN_KLookDown@@YAXXZ       1003ddc1 f   input.obj
 0001:0003cdcd       ?IN_KLookUp@@YAXXZ         1003ddcd f   input.obj
 0001:0003cdd9       ?IN_JLookDown@@YAXXZ       1003ddd9 f   input.obj
 0001:0003cde5       ?IN_JLookUp@@YAXXZ         1003dde5 f   input.obj
 0001:0003cdf1       ?IN_MLookDown@@YAXXZ       1003ddf1 f   input.obj
 0001:0003cdfd       ?IN_UpDown@@YAXXZ          1003ddfd f   input.obj
 0001:0003ce09       ?IN_UpUp@@YAXXZ            1003de09 f   input.obj
 0001:0003ce15       ?IN_DownDown@@YAXXZ        1003de15 f   input.obj
 0001:0003ce21       ?IN_DownUp@@YAXXZ          1003de21 f   input.obj
 0001:0003ce2d       ?IN_LeftDown@@YAXXZ        1003de2d f   input.obj
 0001:0003ce39       ?IN_LeftUp@@YAXXZ          1003de39 f   input.obj
 0001:0003ce45       ?IN_RightDown@@YAXXZ       1003de45 f   input.obj
 0001:0003ce51       ?IN_RightUp@@YAXXZ         1003de51 f   input.obj
 0001:0003ce5d       ?IN_ForwardDown@@YAXXZ     1003de5d f   input.obj
 0001:0003ce69       ?IN_ForwardUp@@YAXXZ       1003de69 f   input.obj
 0001:0003ce75       ?IN_BackDown@@YAXXZ        1003de75 f   input.obj
 0001:0003ce81       ?IN_BackUp@@YAXXZ          1003de81 f   input.obj
 0001:0003ce8d       ?IN_LookupDown@@YAXXZ      1003de8d f   input.obj
 0001:0003ce99       ?IN_LookupUp@@YAXXZ        1003de99 f   input.obj
 0001:0003cea5       ?IN_LookdownDown@@YAXXZ    1003dea5 f   input.obj
 0001:0003ceb1       ?IN_LookdownUp@@YAXXZ      1003deb1 f   input.obj
 0001:0003cebd       ?IN_MoveleftDown@@YAXXZ    1003debd f   input.obj
 0001:0003cec9       ?IN_MoveleftUp@@YAXXZ      1003dec9 f   input.obj
 0001:0003ced5       ?IN_MoverightDown@@YAXXZ   1003ded5 f   input.obj
 0001:0003cee1       ?IN_MoverightUp@@YAXXZ     1003dee1 f   input.obj
 0001:0003ceed       ?IN_SpeedDown@@YAXXZ       1003deed f   input.obj
 0001:0003cef9       ?IN_SpeedUp@@YAXXZ         1003def9 f   input.obj
 0001:0003cf05       ?IN_StrafeDown@@YAXXZ      1003df05 f   input.obj
 0001:0003cf11       ?IN_StrafeUp@@YAXXZ        1003df11 f   input.obj
 0001:0003cf1d       ?IN_GearUp@@YAXXZ          1003df1d f   input.obj
 0001:0003cf46       ?IN_GearDown@@YAXXZ        1003df46 f   input.obj
 0001:0003cf79       ?IN_Attack2Down@@YAXXZ     1003df79 f   input.obj
 0001:0003cf89       ?IN_Attack2Up@@YAXXZ       1003df89 f   input.obj
 0001:0003cf95       ?IN_UseDown@@YAXXZ         1003df95 f   input.obj
 0001:0003cfa1       ?IN_UseUp@@YAXXZ           1003dfa1 f   input.obj
 0001:0003cfad       ?IN_JumpDown@@YAXXZ        1003dfad f   input.obj
 0001:0003cfb9       ?IN_JumpUp@@YAXXZ          1003dfb9 f   input.obj
 0001:0003cfc5       ?IN_DuckDown@@YAXXZ        1003dfc5 f   input.obj
 0001:0003cfd1       ?IN_DuckUp@@YAXXZ          1003dfd1 f   input.obj
 0001:0003cfdd       ?IN_ReloadDown@@YAXXZ      1003dfdd f   input.obj
 0001:0003cfe9       ?IN_ReloadUp@@YAXXZ        1003dfe9 f   input.obj
 0001:0003cff5       ?IN_Alt1Down@@YAXXZ        1003dff5 f   input.obj
 0001:0003d001       ?IN_Alt1Up@@YAXXZ          1003e001 f   input.obj
 0001:0003d00d       ?IN_GraphDown@@YAXXZ       1003e00d f   input.obj
 0001:0003d019       ?IN_GraphUp@@YAXXZ         1003e019 f   input.obj
 0001:0003d025       ?IN_AttackDown@@YAXXZ      1003e025 f   input.obj
 0001:0003d031       ?IN_AttackUp@@YAXXZ        1003e031 f   input.obj
 0001:0003d044       ?IN_Cancel@@YAXXZ          1003e044 f   input.obj
 0001:0003d04f       ?IN_Impulse@@YAXXZ         1003e04f f   input.obj
 0001:0003d066       ?IN_ScoreDown@@YAXXZ       1003e066 f   input.obj
 0001:0003d081       ?IN_ScoreUp@@YAXXZ         1003e081 f   input.obj
 0001:0003d09c       ?IN_MLookUp@@YAXXZ         1003e09c f   input.obj
 0001:0003d0c9       ?CL_KeyState@@YAMPAUkbutton_s@@@Z 1003e0c9 f   input.obj
 0001:0003d137       ?CL_AdjustAngles@@YAXMPAM@Z 1003e137 f   input.obj
 0001:0003d1a8       ?PowerOf@@YAMMM@Z          1003e1a8 f   input.obj
 0001:0003d1e3       ?Limit@@YAMMMM@Z           1003e1e3 f   input.obj
 0001:0003d205       ?FixYaw@@YAXXZ             1003e205 f   input.obj
 0001:0003d44d       _CL_CreateMove             1003e44d f   input.obj
 0001:0003dff4       ?CL_IsDead@@YAHXZ          1003eff4 f   input.obj
 0001:0003e000       ?CL_ButtonBits@@YAHH@Z     1003f000 f   input.obj
 0001:0003e13b       ?CL_ResetButtonBits@@YAXH@Z 1003f13b f   input.obj
 0001:0003e166       ?InitInput@@YAXXZ          1003f166 f   input.obj
 0001:0003e6eb       ?ShutdownInput@@YAXXZ      1003f6eb f   input.obj
 0001:0003e6f5       _HUD_Shutdown              1003f6f5 f   input.obj
 0001:0003e717       ?Force_CenterView_f@@YAXXZ 1003f717 f   inputw32.obj
 0001:0003e73e       _IN_ActivateMouse          1003f73e f   inputw32.obj
 0001:0003e76f       _IN_DeactivateMouse        1003f76f f   inputw32.obj
 0001:0003e799       ?IN_StartupMouse@@YAXXZ    1003f799 f   inputw32.obj
 0001:0003e852       ?IN_Shutdown@@YAXXZ        1003f852 f   inputw32.obj
 0001:0003e857       ?IN_GetMousePos@@YAXPAH0@Z 1003f857 f   inputw32.obj
 0001:0003e868       ?IN_ResetMouse@@YAXXZ      1003f868 f   inputw32.obj
 0001:0003e87d       _IN_MouseEvent             1003f87d f   inputw32.obj
 0001:0003e90c       ?IN_MouseMove@@YAXMPAUusercmd_s@@@Z 1003f90c f   inputw32.obj
 0001:0003eb8f       _IN_Accumulate             1003fb8f f   inputw32.obj
 0001:0003ebe2       _IN_ClearStates            1003fbe2 f   inputw32.obj
 0001:0003ebfc       ?IN_StartupJoystick@@YAXXZ 1003fbfc f   inputw32.obj
 0001:0003ed29       ?RawValuePointer@@YAPAKH@Z 1003fd29 f   inputw32.obj
 0001:0003ed65       ?Joy_AdvancedUpdate_f@@YAXXZ 1003fd65 f   inputw32.obj
 0001:0003eecb       ?IN_Commands@@YAXXZ        1003fecb f   inputw32.obj
 0001:0003eff5       ?IN_ReadJoystick@@YAHXZ    1003fff5 f   inputw32.obj
 0001:0003f04f       ?IN_JoyMove@@YAMMPAUusercmd_s@@@Z 1004004f f   inputw32.obj
 0001:0003f38c       ?IN_Move@@YAMMPAUusercmd_s@@@Z 1004038c f   inputw32.obj
 0001:0003f3c5       ?IN_Init@@YAXXZ            100403c5 f   inputw32.obj
 0001:0003f59e       ?__MsgFunc_ShowMenu@@YAHPBDHPAX@Z 1004059e f   menu.obj
 0001:0003f5b5       ?Init@CHudMenu@@UAEHXZ     100405b5 f   menu.obj
 0001:0003f5e1       ?InitHUDData@CHudMenu@@UAEXXZ 100405e1 f   menu.obj
 0001:0003f5ee       ?Reset@CHudMenu@@UAEXXZ    100405ee f   menu.obj
 0001:0003f5fa       ?VidInit@CHudMenu@@UAEHXZ  100405fa f   menu.obj
 0001:0003f5fe       ?Draw@CHudMenu@@UAEHM@Z    100405fe f   menu.obj
 0001:0003f6db       ?SelectMenuItem@CHudMenu@@QAEXH@Z 100406db f   menu.obj
 0001:0003f722       ?MsgFunc_ShowMenu@CHudMenu@@QAEHPBDHPAX@Z 10040722 f   menu.obj
 0001:0003f81f       ?__MsgFunc_HudText@@YAHPBDHPAX@Z 1004081f f   message.obj
 0001:0003f836       ?__MsgFunc_GameTitle@@YAHPBDHPAX@Z 10040836 f   message.obj
 0001:0003f84d       ?Init@CHudMessage@@UAEHXZ  1004084d f   message.obj
 0001:0003f88a       ?VidInit@CHudMessage@@UAEHXZ 1004088a f   message.obj
 0001:0003f8bd       ?Reset@CHudMessage@@UAEXXZ 100408bd f   message.obj
 0001:0003f8ee       ?FadeBlend@CHudMessage@@QAEMMMMM@Z 100408ee f   message.obj
 0001:0003f956       ?XPosition@CHudMessage@@QAEHMHH@Z 10040956 f   message.obj
 0001:0003f9cb       ?YPosition@CHudMessage@@QAEHMH@Z 100409cb f   message.obj
 0001:0003fa47       ?MessageScanNextChar@CHudMessage@@QAEXXZ 10040a47 f   message.obj
 0001:0003fbf6       ?MessageScanStart@CHudMessage@@QAEXXZ 10040bf6 f   message.obj
 0001:0003fd2a       ?MessageDrawScan@CHudMessage@@QAEXPAUclient_textmessage_t@@M@Z 10040d2a f   message.obj
 0001:0003fef9       ?Draw@CHudMessage@@UAEHM@Z 10040ef9 f   message.obj
 0001:000401dc       ?MessageAdd@CHudMessage@@QAEXPBDM@Z 100411dc f   message.obj
 0001:00040347       ?MsgFunc_HudText@CHudMessage@@QAEHPBDHPAX@Z 10041347 f   message.obj
 0001:0004038e       ?MsgFunc_GameTitle@CHudMessage@@QAEHPBDHPAX@Z 1004138e f   message.obj
 0001:000403c5       ?BEGIN_READ@@YAXPAXH@Z     100413c5 f   parsemsg.obj
 0001:000403e6       ?READ_CHAR@@YAHXZ          100413e6 f   parsemsg.obj
 0001:00040415       ?READ_BYTE@@YAHXZ          10041415 f   parsemsg.obj
 0001:00040444       ?READ_SHORT@@YAHXZ         10041444 f   parsemsg.obj
 0001:00040482       ?READ_WORD@@YAHXZ          10041482 f   parsemsg.obj
 0001:00040487       ?READ_LONG@@YAHXZ          10041487 f   parsemsg.obj
 0001:000404d4       ?READ_FLOAT@@YAMXZ         100414d4 f   parsemsg.obj
 0001:00040508       ?READ_STRING@@YAPADXZ      10041508 f   parsemsg.obj
 0001:0004054b       ?READ_COORD@@YAMXZ         1004154b f   parsemsg.obj
 0001:00040562       ?READ_ANGLE@@YAMXZ         10041562 f   parsemsg.obj
 0001:00040579       ?READ_HIRESANGLE@@YAMXZ    10041579 f   parsemsg.obj
 0001:00040590       _PM_ShowClipBox            10041590 f   pm_debug.obj
 0001:000405dd       _PM_ParticleLine           100415dd f   pm_debug.obj
 0001:0004067f       _PM_DrawRectangle          1004167f f   pm_debug.obj
 0001:000406f6       _PM_DrawPhysEntBBox        100416f6 f   pm_debug.obj
 0001:00040989       _PM_DrawBBox               10041989 f   pm_debug.obj
 0001:00040a4a       _PM_ViewEntity             10041a4a f   pm_debug.obj
 0001:00040ae9       _anglemod                  10041ae9 f   pm_math.obj
 0001:00040b0d       _AngleVectors              10041b0d f   pm_math.obj
 0001:00040c19       _AngleVectorsTranspose     10041c19 f   pm_math.obj
 0001:00040d20       _AngleMatrix               10041d20 f   pm_math.obj
 0001:00040e1b       _AngleIMatrix              10041e1b f   pm_math.obj
 0001:00040f16       _NormalizeAngles           10041f16 f   pm_math.obj
 0001:00040f50       _InterpolateAngles         10041f50 f   pm_math.obj
 0001:00040fc3       _AngleBetweenVectors       10041fc3 f   pm_math.obj
 0001:00041037       _VectorTransform           10042037 f   pm_math.obj
 0001:00041093       _VectorCompare             10042093 f   pm_math.obj
 0001:000410bc       _VectorMA                  100420bc f   pm_math.obj
 0001:000410eb       __DotProduct               100420eb f   pm_math.obj
 0001:00041108       __VectorSubtract           10042108 f   pm_math.obj
 0001:0004112d       __VectorAdd                1004212d f   pm_math.obj
 0001:00041152       __VectorCopy               10042152 f   pm_math.obj
 0001:0004116b       _CrossProduct              1004216b f   pm_math.obj
 0001:000411a6       _Length                    100421a6 f   pm_math.obj
 0001:000411ce       _VectorNormalize           100421ce f   pm_math.obj
 0001:00041222       _VectorInverse             10042222 f   pm_math.obj
 0001:0004123d       _VectorScale               1004223d f   pm_math.obj
 0001:00041261       _Q_log2                    10042261 f   pm_math.obj
 0001:0004126d       _VectorMatrix              1004226d f   pm_math.obj
 0001:000412fb       _VectorAngles              100422fb f   pm_math.obj
 0001:000413df       _Global_DLLEXPORT_Info     100423df f   pm_shared.obj
 0001:000413f2       _PM_SwapTextures           100423f2 f   pm_shared.obj
 0001:0004145a       _PM_SortTextures           1004245a f   pm_shared.obj
 0001:000414ba       _PM_InitTextureTypes       100424ba f   pm_shared.obj
 0001:0004174f       _PM_FindTextureType        1004274f f   pm_shared.obj
 0001:000417a8       _PM_MapTextureTypeStepType 100427a8 f   pm_shared.obj
 0001:000417e3       _PM_CatagorizeTextureType  100427e3 f   pm_shared.obj
 0001:000418ae       _PM_AddToTouched           100428ae f   pm_shared.obj
 0001:00041938       _PM_CheckVelocity          10042938 f   pm_shared.obj
 0001:000419e3       _PM_ClipVelocity           100429e3 f   pm_shared.obj
 0001:00041a25       _PM_AddCorrectGravity      10042a25 f   pm_shared.obj
 0001:00041a97       _PM_FixupGravityVelocity   10042a97 f   pm_shared.obj
 0001:00041aee       _PM_AirAccelerate          10042aee f   pm_shared.obj
 0001:00041b9a       _PM_WaterMove              10042b9a f   pm_shared.obj
 0001:00041e4d       _PM_AirMove                10042e4d f   pm_shared.obj
 0001:00041f6d       _PM_InWater                10042f6d f   pm_shared.obj
 0001:00041f80       _PM_CheckWater             10042f80 f   pm_shared.obj
 0001:00042125       _PM_CatagorizePosition     10043125 f   pm_shared.obj
 0001:00042460       _PM_GetRandomStuckOffsets  10043460 f   pm_shared.obj
 0001:000424ad       _PM_ResetStuckOffsets      100434ad f   pm_shared.obj
 0001:000424c1       _PM_CheckStuck             100434c1 f   pm_shared.obj
 0001:00042787       _GetChaseOrigin            10043787 f   pm_shared.obj
 0001:00042841       _PM_SpectatorMove          10043841 f   pm_shared.obj
 0001:00042ba7       _PM_AddGravity             10043ba7 f   pm_shared.obj
 0001:00042bff       _PM_PushEntity             10043bff f   pm_shared.obj
 0001:00042cb0       _PM_Physics_Toss           10043cb0 f   pm_shared.obj
 0001:00042f7a       _PM_NoClip                 10043f7a f   pm_shared.obj
 0001:00043021       _PM_CheckFalling           10044021 f   pm_shared.obj
 0001:00043038       _PM_PlayWaterSounds        10044038 f   pm_shared.obj
 0001:00043081       _PM_DropPunchAngle         10044081 f   pm_shared.obj
 0001:000430c4       _PM_CheckParamters         100440c4 f   pm_shared.obj
 0001:0004324d       _PM_ReduceTimers           1004424d f   pm_shared.obj
 0001:0004331d       _PM_SetStats               1004431d f   pm_shared.obj
 0001:00043346       _PM_PlayerMove             10044346 f   pm_shared.obj
 0001:0004365e       _PM_CreateStuckTable       1004465e f   pm_shared.obj
 0001:0004385b       _PM_Move                   1004485b f   pm_shared.obj
 0001:000438ef       _PM_GetInfo                100448ef f   pm_shared.obj
 0001:00043917       _PM_Init                   10044917 f   pm_shared.obj
 0001:0004395c       ?__MsgFunc_SayText@@YAHPBDHPAX@Z 1004495c f   saytext.obj
 0001:00043973       ?Init@CHudSayText@@UAEHXZ  10044973 f   saytext.obj
 0001:000439b8       ?InitHUDData@CHudSayText@@UAEXXZ 100449b8 f   saytext.obj
 0001:000439e9       ?VidInit@CHudSayText@@UAEHXZ 100449e9 f   saytext.obj
 0001:000439ed       ?ScrollTextUp@@YAHXZ       100449ed f   saytext.obj
 0001:00043a58       ?Draw@CHudSayText@@UAEHM@Z 10044a58 f   saytext.obj
 0001:00043b97       ?MsgFunc_SayText@CHudSayText@@QAEHPBDHPAX@Z 10044b97 f   saytext.obj
 0001:00043bc8       ?SayTextPrint@CHudSayText@@QAEXPBDHH@Z 10044bc8 f   saytext.obj
 0001:00043d14       ?EnsureTextFitsInOneLineAndWrapIfHaveTo@CHudSayText@@QAEXH@Z 10044d14 f   saytext.obj
 0001:00043ea0       ?__MsgFunc_StatusIcon@@YAHPBDHPAX@Z 10044ea0 f   status_icons.obj
 0001:00043eb7       ?Init@CHudStatusIcons@@UAEHXZ 10044eb7 f   status_icons.obj
 0001:00043ee3       ?VidInit@CHudStatusIcons@@UAEHXZ 10044ee3 f   status_icons.obj
 0001:00043ee7       ?Reset@CHudStatusIcons@@UAEXXZ 10044ee7 f   status_icons.obj
 0001:00043f03       ?Draw@CHudStatusIcons@@UAEHM@Z 10044f03 f   status_icons.obj
 0001:00043f5f       ?MsgFunc_StatusIcon@CHudStatusIcons@@QAEHPBDHPAX@Z 10044f5f f   status_icons.obj
 0001:00043fbf       ?EnableIcon@CHudStatusIcons@@QAEXPADEEE@Z 10044fbf f   status_icons.obj
 0001:000440b2       ?DisableIcon@CHudStatusIcons@@QAEXPAD@Z 100450b2 f   status_icons.obj
 0001:000440f5       ?__MsgFunc_StatusText@@YAHPBDHPAX@Z 100450f5 f   statusbar.obj
 0001:0004410c       ?__MsgFunc_StatusValue@@YAHPBDHPAX@Z 1004510c f   statusbar.obj
 0001:00044123       ?Init@CHudStatusBar@@UAEHXZ 10045123 f   statusbar.obj
 0001:00044175       ?VidInit@CHudStatusBar@@UAEHXZ 10045175 f   statusbar.obj
 0001:00044179       ?Reset@CHudStatusBar@@UAEXXZ 10045179 f   statusbar.obj
 0001:000441bb       ?ParseStatusString@CHudStatusBar@@QAEXH@Z 100451bb f   statusbar.obj
 0001:000443bb       ?Draw@CHudStatusBar@@UAEHM@Z 100453bb f   statusbar.obj
 0001:000444fa       ?MsgFunc_StatusText@CHudStatusBar@@QAEHPBDHPAX@Z 100454fa f   statusbar.obj
 0001:00044563       ?MsgFunc_StatusValue@CHudStatusBar@@QAEHPBDHPAX@Z 10045563 f   statusbar.obj
 0001:000445a4       ?AngleMatrix@@YAXPBMPAY03M@Z 100455a4 f   studio_util.obj
 0001:0004469f       ?VectorCompare@@YAHPBM0@Z  1004569f f   studio_util.obj
 0001:000446c8       ?CrossProduct@@YAXPBM0PAM@Z 100456c8 f   studio_util.obj
 0001:00044703       ?VectorTransform@@YAXPBMQAY03MPAM@Z 10045703 f   studio_util.obj
 0001:0004475f       ?ConcatTransforms@@YAXQAY03M00@Z 1004575f f   studio_util.obj
 0001:00044899       ?AngleQuaternion@@YAXPAMQAM@Z 10045899 f   studio_util.obj
 0001:00044967       ?QuaternionSlerp@@YAXQAM0M0@Z 10045967 f   studio_util.obj
 0001:00044aee       ?QuaternionMatrix@@YAXQAMPAY03M@Z 10045aee f   studio_util.obj
 0001:00044bd8       ?MatrixCopy@@YAXQAY03M0@Z  10045bd8 f   studio_util.obj
 0001:00044beb       ?Init@CStudioModelRenderer@@UAEXXZ 10045beb f   StudioModelRenderer.obj
 0001:00044c97       ??0CStudioModelRenderer@@QAE@XZ 10045c97 f   StudioModelRenderer.obj
 0001:00044ced       ??_GCStudioModelRenderer@@UAEPAXI@Z 10045ced f i StudioModelRenderer.obj
 0001:00044ced       ??_ECStudioModelRenderer@@UAEPAXI@Z 10045ced f i StudioModelRenderer.obj
 0001:00044d09       ??1CStudioModelRenderer@@UAE@XZ 10045d09 f   StudioModelRenderer.obj
 0001:00044d10       ?StudioCalcBoneAdj@CStudioModelRenderer@@UAEXMPAMPBE1E@Z 10045d10 f   StudioModelRenderer.obj
 0001:00044ea3       ?StudioCalcBoneQuaterion@CStudioModelRenderer@@UAEXHMPAUmstudiobone_t@@PAUmstudioanim_t@@PAM2@Z 10045ea3 f   StudioModelRenderer.obj
 0001:00045036       ?StudioCalcBonePosition@CStudioModelRenderer@@UAEXHMPAUmstudiobone_t@@PAUmstudioanim_t@@PAM2@Z 10046036 f   StudioModelRenderer.obj
 0001:00045141       ?StudioSlerpBones@CStudioModelRenderer@@UAEXQAY03MQAY02M01M@Z 10046141 f   StudioModelRenderer.obj
 0001:0004523d       ?StudioSetupBones@CStudioModelRenderer@@UAEXXZ 1004623d f   StudioModelRenderer.obj
 0001:0004588e       ?StudioSaveBones@CStudioModelRenderer@@UAEXXZ 1004688e f   StudioModelRenderer.obj
 0001:00045921       ?StudioMergeBones@CStudioModelRenderer@@UAEXPAUmodel_s@@@Z 10046921 f   StudioModelRenderer.obj
 0001:00045b41       ?StudioGetAnim@CStudioModelRenderer@@UAEPAUmstudioanim_t@@PAUmodel_s@@PAUmstudioseqdesc_t@@@Z 10046b41 f   StudioModelRenderer.obj
 0001:00045bd8       ?StudioFxTransform@CStudioModelRenderer@@UAEXPAUcl_entity_s@@QAY03M@Z 10046bd8 f   StudioModelRenderer.obj
 0001:00045cf0       ?StudioCalcRotations@CStudioModelRenderer@@UAEXQAY02MPAY03MPAUmstudioseqdesc_t@@PAUmstudioanim_t@@M@Z 10046cf0 f   StudioModelRenderer.obj
 0001:00045ef9       ?StudioEstimateInterpolant@CStudioModelRenderer@@UAEMXZ 10046ef9 f   StudioModelRenderer.obj
 0001:00045f44       ?StudioEstimateFrame@CStudioModelRenderer@@UAEMPAUmstudioseqdesc_t@@@Z 10046f44 f   StudioModelRenderer.obj
 0001:00046010       ?TerrainTrace@CStudioModelRenderer@@QAE_NPAM00_N0@Z 10047010 f   StudioModelRenderer.obj
 0001:0004612e       ?WasInPVS@@YA_NH@Z         1004712e f   StudioModelRenderer.obj
 0001:00046148       ?SetIsInPVS@@YAXHH@Z       10047148 f   StudioModelRenderer.obj
 0001:00046196       ?StudioRallyRender@CStudioModelRenderer@@UAEXXZ 10047196 f   StudioModelRenderer.obj
 0001:00047532       ?StudioSetUpTransform@CStudioModelRenderer@@UAEXH@Z 10048532 f   StudioModelRenderer.obj
 0001:000476f2       ?StudioProcessGait@CStudioModelRenderer@@UAEXPAUentity_state_s@@@Z 100486f2 f   StudioModelRenderer.obj
 0001:00047adf       ?StudioDrawPlayer@CStudioModelRenderer@@UAEHHPAUentity_state_s@@@Z 10048adf f   StudioModelRenderer.obj
 0001:00047e7d       ??0cl_entity_s@@QAE@ABU0@@Z 10048e7d f i StudioModelRenderer.obj
 0001:00047ff4       ??0entity_state_s@@QAE@ABU0@@Z 10048ff4 f i StudioModelRenderer.obj
 0001:0004831d       ??0position_history_t@@QAE@ABU0@@Z 1004931d f i StudioModelRenderer.obj
 0001:0004834e       ??0latchedvars_t@@QAE@ABU0@@Z 1004934e f i StudioModelRenderer.obj
 0001:000483a7       ?StudioCalcAttachments@CStudioModelRenderer@@UAEXXZ 100493a7 f   StudioModelRenderer.obj
 0001:00048427       ?StudioDrawModel@CStudioModelRenderer@@UAEHH@Z 10049427 f   StudioModelRenderer.obj
 0001:000487b9       ?StudioRenderModel@CStudioModelRenderer@@UAEXXZ 100497b9 f   StudioModelRenderer.obj
 0001:00048843       ?StudioRenderFinal_Software@CStudioModelRenderer@@UAEXXZ 10049843 f   StudioModelRenderer.obj
 0001:000488ff       ?StudioRenderFinal_Hardware@CStudioModelRenderer@@UAEXXZ 100498ff f   StudioModelRenderer.obj
 0001:000489ec       ?StudioRenderFinal@CStudioModelRenderer@@UAEXXZ 100499ec f   StudioModelRenderer.obj
 0001:00048a07       ?__MsgFunc_TextMsg@@YAHPBDHPAX@Z 10049a07 f   text_message.obj
 0001:00048a1e       ?Init@CHudTextMessage@@UAEHXZ 10049a1e f   text_message.obj
 0001:00048a4a       ?LocaliseTextString@CHudTextMessage@@SAPADPBDPADH@Z 10049a4a f   text_message.obj
 0001:00048ade       ?BufferedLocaliseTextString@CHudTextMessage@@SAPADPBD@Z 10049ade f   text_message.obj
 0001:00048afa       ?LookupString@CHudTextMessage@@QAEPADPBDPAH@Z 10049afa f   text_message.obj
 0001:00048b41       ?StripEndNewlineFromString@@YAXPAD@Z 10049b41 f   text_message.obj
 0001:00048b61       ?ConvertCRtoNL@@YAPADPAD@Z 10049b61 f   text_message.obj
 0001:00048b7b       ?MsgFunc_TextMsg@CHudTextMessage@@QAEHPBDHPAX@Z 10049b7b f   text_message.obj
 0001:00048d2d       ?Draw_Triangles@@YAXXZ     10049d2d f   tri.obj
 0001:00048d2e       _HUD_DrawNormalTriangles   10049d2e f   tri.obj
 0001:00048d59       _HUD_DrawTransparentTriangles 10049d59 f   tri.obj
 0001:00048da5       ?HUD_DrawOrthoTriangles@@YAXXZ 10049da5 f   tri.obj
 0001:00048ff2       ?Length@@YAMPBM@Z          10049ff2 f   util.obj
 0001:0004901a       ?VectorAngles@@YAXPBMPAM@Z 1004a01a f   util.obj
 0001:000490fe       ?VectorNormalize@@YAMPAM@Z 1004a0fe f   util.obj
 0001:00049152       ?VectorInverse@@YAXPAM@Z   1004a152 f   util.obj
 0001:0004916d       ?VectorScale@@YAXPBMMPAM@Z 1004a16d f   util.obj
 0001:00049191       ?VectorMA@@YAXPBMM0PAM@Z   1004a191 f   util.obj
 0001:000491c0       ?LoadSprite@@YAHPBD@Z      1004a1c0 f   util.obj
 0001:0004921c       ?V_CalcBob@@YAMPAUref_params_s@@@Z 1004a21c f   view.obj
 0001:00049359       ?V_CalcRoll@@YAMVVector@@0MM@Z 1004a359 f   view.obj
 0001:000493d7       ?V_StartPitchDrift@@YAXXZ  1004a3d7 f   view.obj
 0001:0004941f       ?V_StopPitchDrift@@YAXXZ   1004a41f f   view.obj
 0001:0004943e       ?V_DriftPitch@@YAXPAUref_params_s@@@Z 1004a43e f   view.obj
 0001:0004958e       ?V_CalcGunAngle@@YAXPAUref_params_s@@@Z 1004a58e f   view.obj
 0001:000496b1       ?V_AddIdle@@YAXPAUref_params_s@@@Z 1004a6b1 f   view.obj
 0001:00049725       ?V_CalcViewRoll@@YAXPAUref_params_s@@@Z 1004a725 f   view.obj
 0001:0004977c       ?V_CalcIntermissionRefdef@@YAXPAUref_params_s@@@Z 1004a77c f   view.obj
 0001:00049866       ?V_CalcNormalRefdef@@YAXPAUref_params_s@@@Z 1004a866 f   view.obj
 0001:0004a4da       ?V_GetInEyePos@@YAXHPAM0@Z 1004b4da f   view.obj
 0001:0004a57e       ?V_CalcSpectatorRefdef@@YAXPAUref_params_s@@@Z 1004b57e f   view.obj
 0001:0004ac82       _V_CalcRefdef              1004bc82 f   view.obj
 0001:0004ae1e       ?V_DropPunchAngle@@YAXMPAM@Z 1004be1e f   view.obj
 0001:0004ae60       ?V_PunchAxis@@YAXHM@Z      1004be60 f   view.obj
 0001:0004ae70       ?V_Init@@YAXXZ             1004be70 f   view.obj
 0001:0004af6e       _LoadLibraryA@4            1004bf6e f   kernel32:KERNEL32.dll
 0001:0004af74       _FreeLibrary@4             1004bf74 f   kernel32:KERNEL32.dll
 0001:0004af7a       _GetProcAddress@8          1004bf7a f   kernel32:KERNEL32.dll
 0001:0004af80       _GetCursorPos@4            1004bf80 f   user32:USER32.dll
 0001:0004af86       _SetCursorPos@8            1004bf86 f   user32:USER32.dll
 0001:0004af8c       _SystemParametersInfoA@16  1004bf8c f   user32:USER32.dll
 0001:0004af92       _joyGetDevCapsA@12         1004bf92 f   winmm:WINMM.dll
 0001:0004af98       _joyGetPosEx@8             1004bf98 f   winmm:WINMM.dll
 0001:0004af9e       _joyGetNumDevs@0           1004bf9e f   winmm:WINMM.dll
 0001:0004afa4       ?getCursor@Scheme@vgui@@UAEPAVCursor@2@W4SchemeCursor@12@@Z 1004bfa4 f   vgui:vgui.dll
 0001:0004afaa       ?setCursor@Scheme@vgui@@UAEXW4SchemeCursor@12@PAVCursor@2@@Z 1004bfaa f   vgui:vgui.dll
 0001:0004afb0       ?getFont@Scheme@vgui@@UAEPAVFont@2@W4SchemeFont@12@@Z 1004bfb0 f   vgui:vgui.dll
 0001:0004afb6       ?setFont@Scheme@vgui@@UAEXW4SchemeFont@12@PAVFont@2@@Z 1004bfb6 f   vgui:vgui.dll
 0001:0004afbc       ?getColor@Scheme@vgui@@UAEXW4SchemeColor@12@AAH111@Z 1004bfbc f   vgui:vgui.dll
 0001:0004afc2       ?setColor@Scheme@vgui@@UAEXW4SchemeColor@12@HHHH@Z 1004bfc2 f   vgui:vgui.dll
 0001:0004afc8       ??AColor@vgui@@UAEHH@Z     1004bfc8 f   vgui:vgui.dll
 0001:0004afce       ?getColor@Color@vgui@@UAEXAAH000@Z 1004bfce f   vgui:vgui.dll
 0001:0004afd4       ?getColor@Color@vgui@@UAEXAAW4SchemeColor@Scheme@2@@Z 1004bfd4 f   vgui:vgui.dll
 0001:0004afda       ?setColor@Color@vgui@@UAEXHHHH@Z 1004bfda f   vgui:vgui.dll
 0001:0004afe0       ?setColor@Color@vgui@@UAEXW4SchemeColor@Scheme@2@@Z 1004bfe0 f   vgui:vgui.dll
 0001:0004afe6       ?init@Color@vgui@@EAEXXZ   1004bfe6 f   vgui:vgui.dll
 0001:0004afec       ?internalSetCursor@Panel@vgui@@MAEXXZ 1004bfec f   vgui:vgui.dll
 0001:0004aff2       ?internalFocusChanged@Panel@vgui@@MAEX_N@Z 1004bff2 f   vgui:vgui.dll
 0001:0004aff8       ?internalKeyFocusTicked@Panel@vgui@@MAEXXZ 1004bff8 f   vgui:vgui.dll
 0001:0004affe       ?internalKeyReleased@Panel@vgui@@MAEXW4KeyCode@2@@Z 1004bffe f   vgui:vgui.dll
 0001:0004b004       ?internalKeyTyped@Panel@vgui@@MAEXW4KeyCode@2@@Z 1004c004 f   vgui:vgui.dll
 0001:0004b00a       ?internalKeyPressed@Panel@vgui@@MAEXW4KeyCode@2@@Z 1004c00a f   vgui:vgui.dll
 0001:0004b010       ?internalMouseWheeled@Panel@vgui@@MAEXH@Z 1004c010 f   vgui:vgui.dll
 0001:0004b016       ?internalMouseReleased@Panel@vgui@@MAEXW4MouseCode@2@@Z 1004c016 f   vgui:vgui.dll
 0001:0004b01c       ?internalMouseDoublePressed@Panel@vgui@@MAEXW4MouseCode@2@@Z 1004c01c f   vgui:vgui.dll
 0001:0004b022       ?internalMousePressed@Panel@vgui@@MAEXW4MouseCode@2@@Z 1004c022 f   vgui:vgui.dll
 0001:0004b028       ?internalCursorExited@Panel@vgui@@MAEXXZ 1004c028 f   vgui:vgui.dll
 0001:0004b02e       ?internalCursorEntered@Panel@vgui@@MAEXXZ 1004c02e f   vgui:vgui.dll
 0001:0004b034       ?internalCursorMoved@Panel@vgui@@MAEXHH@Z 1004c034 f   vgui:vgui.dll
 0001:0004b03a       ?paintBuildOverlay@Panel@vgui@@MAEXXZ 1004c03a f   vgui:vgui.dll
 0001:0004b040       ?paint@Panel@vgui@@MAEXXZ  1004c040 f   vgui:vgui.dll
 0001:0004b046       ?paintBackground@Panel@vgui@@MAEXXZ 1004c046 f   vgui:vgui.dll
 0001:0004b04c       ?solve@Panel@vgui@@MAEXXZ  1004c04c f   vgui:vgui.dll
 0001:0004b052       ?drawTexturedRect@Panel@vgui@@MAEXHHHH@Z 1004c052 f   vgui:vgui.dll
 0001:0004b058       ?drawSetTexture@Panel@vgui@@MAEXH@Z 1004c058 f   vgui:vgui.dll
 0001:0004b05e       ?drawSetTextureRGBA@Panel@vgui@@MAEXHPBDHH@Z 1004c05e f   vgui:vgui.dll
 0001:0004b064       ?drawPrintChar@Panel@vgui@@MAEXD@Z 1004c064 f   vgui:vgui.dll
 0001:0004b06a       ?drawPrintChar@Panel@vgui@@MAEXHHD@Z 1004c06a f   vgui:vgui.dll
 0001:0004b070       ?drawPrintText@Panel@vgui@@MAEXPBDH@Z 1004c070 f   vgui:vgui.dll
 0001:0004b076       ?drawPrintText@Panel@vgui@@MAEXHHPBDH@Z 1004c076 f   vgui:vgui.dll
 0001:0004b07c       ?drawSetTextPos@Panel@vgui@@MAEXHH@Z 1004c07c f   vgui:vgui.dll
 0001:0004b082       ?drawSetTextColor@Panel@vgui@@MAEXW4SchemeColor@Scheme@2@@Z 1004c082 f   vgui:vgui.dll
 0001:0004b088       ?drawSetTextColor@Panel@vgui@@MAEXHHHH@Z 1004c088 f   vgui:vgui.dll
 0001:0004b08e       ?drawSetTextFont@Panel@vgui@@MAEXW4SchemeFont@Scheme@2@@Z 1004c08e f   vgui:vgui.dll
 0001:0004b094       ?drawSetTextFont@Panel@vgui@@MAEXPAVFont@2@@Z 1004c094 f   vgui:vgui.dll
 0001:0004b09a       ?drawOutlinedRect@Panel@vgui@@MAEXHHHH@Z 1004c09a f   vgui:vgui.dll
 0001:0004b0a0       ?drawFilledRect@Panel@vgui@@MAEXHHHH@Z 1004c0a0 f   vgui:vgui.dll
 0001:0004b0a6       ?drawSetColor@Panel@vgui@@MAEXW4SchemeColor@Scheme@2@@Z 1004c0a6 f   vgui:vgui.dll
 0001:0004b0ac       ?drawSetColor@Panel@vgui@@MAEXHHHH@Z 1004c0ac f   vgui:vgui.dll
 0001:0004b0b2       ?internalPerformLayout@Panel@vgui@@MAEXXZ 1004c0b2 f   vgui:vgui.dll
 0001:0004b0b8       ?performLayout@Panel@vgui@@MAEXXZ 1004c0b8 f   vgui:vgui.dll
 0001:0004b0be       ?setSurfaceBaseTraverse@Panel@vgui@@UAEXPAVSurfaceBase@2@@Z 1004c0be f   vgui:vgui.dll
 0001:0004b0c4       ?paintTraverse@Panel@vgui@@UAEXXZ 1004c0c4 f   vgui:vgui.dll
 0001:0004b0ca       ?paintTraverse@Panel@vgui@@MAEX_N@Z 1004c0ca f   vgui:vgui.dll
 0001:0004b0d0       ?solveTraverse@Panel@vgui@@UAEXXZ 1004c0d0 f   vgui:vgui.dll
 0001:0004b0d6       ?isCursorNone@Panel@vgui@@UAE_NXZ 1004c0d6 f   vgui:vgui.dll
 0001:0004b0dc       ?getLayoutInfo@Panel@vgui@@UAEPAVLayoutInfo@2@XZ 1004c0dc f   vgui:vgui.dll
 0001:0004b0e2       ?setLayoutInfo@Panel@vgui@@UAEXPAVLayoutInfo@2@@Z 1004c0e2 f   vgui:vgui.dll
 0001:0004b0e8       ?getVirtualSize@Panel@vgui@@UAEXAAH0@Z 1004c0e8 f   vgui:vgui.dll
 0001:0004b0ee       ?getApp@Panel@vgui@@UAEPAVApp@2@XZ 1004c0ee f   vgui:vgui.dll
 0001:0004b0f4       ?setAsMouseArena@Panel@vgui@@UAEX_N@Z 1004c0f4 f   vgui:vgui.dll
 0001:0004b0fa       ?setAsMouseCapture@Panel@vgui@@UAEX_N@Z 1004c0fa f   vgui:vgui.dll
 0001:0004b100       ?getBgColor@Panel@vgui@@UAEXAAH000@Z 1004c100 f   vgui:vgui.dll
 0001:0004b106       ?getBgColor@Panel@vgui@@UAEXAAVColor@2@@Z 1004c106 f   vgui:vgui.dll
 0001:0004b10c       ?getFgColor@Panel@vgui@@UAEXAAH000@Z 1004c10c f   vgui:vgui.dll
 0001:0004b112       ?getFgColor@Panel@vgui@@UAEXAAVColor@2@@Z 1004c112 f   vgui:vgui.dll
 0001:0004b118       ?setBgColor@Panel@vgui@@UAEXW4SchemeColor@Scheme@2@@Z 1004c118 f   vgui:vgui.dll
 0001:0004b11e       ?setBgColor@Panel@vgui@@UAEXHHHH@Z 1004c11e f   vgui:vgui.dll
 0001:0004b124       ?setBgColor@Panel@vgui@@UAEXVColor@2@@Z 1004c124 f   vgui:vgui.dll
 0001:0004b12a       ?setFgColor@Panel@vgui@@UAEXW4SchemeColor@Scheme@2@@Z 1004c12a f   vgui:vgui.dll
 0001:0004b130       ?setFgColor@Panel@vgui@@UAEXHHHH@Z 1004c130 f   vgui:vgui.dll
 0001:0004b136       ?setFgColor@Panel@vgui@@UAEXVColor@2@@Z 1004c136 f   vgui:vgui.dll
 0001:0004b13c       ?applyPersistanceText@Panel@vgui@@UAEXPBD@Z 1004c13c f   vgui:vgui.dll
 0001:0004b142       ?getPersistanceText@Panel@vgui@@UAEXPADH@Z 1004c142 f   vgui:vgui.dll
 0001:0004b148       ?createPropertyPanel@Panel@vgui@@UAEPAV12@XZ 1004c148 f   vgui:vgui.dll
 0001:0004b14e       ?repaintParent@Panel@vgui@@UAEXXZ 1004c14e f   vgui:vgui.dll
 0001:0004b154       ?removeAllChildren@Panel@vgui@@UAEXXZ 1004c154 f   vgui:vgui.dll
 0001:0004b15a       ?isBuildGroupEnabled@Panel@vgui@@UAE_NXZ 1004c15a f   vgui:vgui.dll
 0001:0004b160       ?setBuildGroup@Panel@vgui@@UAEXPAVBuildGroup@2@PBD@Z 1004c160 f   vgui:vgui.dll
 0001:0004b166       ?setEnabled@Panel@vgui@@UAEX_N@Z 1004c166 f   vgui:vgui.dll
 0001:0004b16c       ?isEnabled@Panel@vgui@@UAE_NXZ 1004c16c f   vgui:vgui.dll
 0001:0004b172       ?getSurfaceBase@Panel@vgui@@UAEPAVSurfaceBase@2@XZ 1004c172 f   vgui:vgui.dll
 0001:0004b178       ?getPreferredSize@Panel@vgui@@UAEXAAH0@Z 1004c178 f   vgui:vgui.dll
 0001:0004b17e       ?setPreferredSize@Panel@vgui@@UAEXHH@Z 1004c17e f   vgui:vgui.dll
 0001:0004b184       ?getPaintSize@Panel@vgui@@UAEXAAH0@Z 1004c184 f   vgui:vgui.dll
 0001:0004b18a       ?getInset@Panel@vgui@@UAEXAAH000@Z 1004c18a f   vgui:vgui.dll
 0001:0004b190       ?setPaintEnabled@Panel@vgui@@UAEX_N@Z 1004c190 f   vgui:vgui.dll
 0001:0004b196       ?setPaintBackgroundEnabled@Panel@vgui@@UAEX_N@Z 1004c196 f   vgui:vgui.dll
 0001:0004b19c       ?setPaintBorderEnabled@Panel@vgui@@UAEX_N@Z 1004c19c f   vgui:vgui.dll
 0001:0004b1a2       ?setBorder@Panel@vgui@@UAEXPAVBorder@2@@Z 1004c1a2 f   vgui:vgui.dll
 0001:0004b1a8       ?setAutoFocusNavEnabled@Panel@vgui@@UAEX_N@Z 1004c1a8 f   vgui:vgui.dll
 0001:0004b1ae       ?isAutoFocusNavEnabled@Panel@vgui@@UAE_NXZ 1004c1ae f   vgui:vgui.dll
 0001:0004b1b4       ?addFocusChangeSignal@Panel@vgui@@UAEXPAVFocusChangeSignal@2@@Z 1004c1b4 f   vgui:vgui.dll
 0001:0004b1ba       ?requestFocusNext@Panel@vgui@@UAEXXZ 1004c1ba f   vgui:vgui.dll
 0001:0004b1c0       ?requestFocusPrev@Panel@vgui@@UAEXXZ 1004c1c0 f   vgui:vgui.dll
 0001:0004b1c6       ?setFocusNavGroup@Panel@vgui@@UAEXPAVFocusNavGroup@2@@Z 1004c1c6 f   vgui:vgui.dll
 0001:0004b1cc       ?invalidateLayout@Panel@vgui@@UAEX_N@Z 1004c1cc f   vgui:vgui.dll
 0001:0004b1d2       ?setLayout@Panel@vgui@@UAEXPAVLayout@2@@Z 1004c1d2 f   vgui:vgui.dll
 0001:0004b1d8       ?getChild@Panel@vgui@@UAEPAV12@H@Z 1004c1d8 f   vgui:vgui.dll
 0001:0004b1de       ?getChildCount@Panel@vgui@@UAEHXZ 1004c1de f   vgui:vgui.dll
 0001:0004b1e4       ?hasFocus@Panel@vgui@@UAE_NXZ 1004c1e4 f   vgui:vgui.dll
 0001:0004b1ea       ?requestFocus@Panel@vgui@@UAEXXZ 1004c1ea f   vgui:vgui.dll
 0001:0004b1f0       ?getMinimumSize@Panel@vgui@@UAEXAAH0@Z 1004c1f0 f   vgui:vgui.dll
 0001:0004b1f6       ?setMinimumSize@Panel@vgui@@UAEXHH@Z 1004c1f6 f   vgui:vgui.dll
 0001:0004b1fc       ?getCursor@Panel@vgui@@UAEPAVCursor@2@XZ 1004c1fc f   vgui:vgui.dll
 0001:0004b202       ?setCursor@Panel@vgui@@UAEXPAVCursor@2@@Z 1004c202 f   vgui:vgui.dll
 0001:0004b208       ?setCursor@Panel@vgui@@UAEXW4SchemeCursor@Scheme@2@@Z 1004c208 f   vgui:vgui.dll
 0001:0004b20e       ?screenToLocal@Panel@vgui@@UAEXAAH0@Z 1004c20e f   vgui:vgui.dll
 0001:0004b214       ?localToScreen@Panel@vgui@@UAEXAAH0@Z 1004c214 f   vgui:vgui.dll
 0001:0004b21a       ?isWithinTraverse@Panel@vgui@@UAEPAV12@HH@Z 1004c21a f   vgui:vgui.dll
 0001:0004b220       ?isWithin@Panel@vgui@@UAE_NHH@Z 1004c220 f   vgui:vgui.dll
 0001:0004b226       ?removeRepaintSignal@Panel@vgui@@UAEXPAVRepaintSignal@2@@Z 1004c226 f   vgui:vgui.dll
 0001:0004b22c       ?addRepaintSignal@Panel@vgui@@UAEXPAVRepaintSignal@2@@Z 1004c22c f   vgui:vgui.dll
 0001:0004b232       ?removeInputSignal@Panel@vgui@@UAEXPAVInputSignal@2@@Z 1004c232 f   vgui:vgui.dll
 0001:0004b238       ?addInputSignal@Panel@vgui@@UAEXPAVInputSignal@2@@Z 1004c238 f   vgui:vgui.dll
 0001:0004b23e       ?wasKeyReleased@Panel@vgui@@UAE_NW4KeyCode@2@@Z 1004c23e f   vgui:vgui.dll
 0001:0004b244       ?wasKeyTyped@Panel@vgui@@UAE_NW4KeyCode@2@@Z 1004c244 f   vgui:vgui.dll
 0001:0004b24a       ?isKeyDown@Panel@vgui@@UAE_NW4KeyCode@2@@Z 1004c24a f   vgui:vgui.dll
 0001:0004b250       ?wasKeyPressed@Panel@vgui@@UAE_NW4KeyCode@2@@Z 1004c250 f   vgui:vgui.dll
 0001:0004b256       ?wasMouseReleased@Panel@vgui@@UAE_NW4MouseCode@2@@Z 1004c256 f   vgui:vgui.dll
 0001:0004b25c       ?isMouseDown@Panel@vgui@@UAE_NW4MouseCode@2@@Z 1004c25c f   vgui:vgui.dll
 0001:0004b262       ?wasMouseDoublePressed@Panel@vgui@@UAE_NW4MouseCode@2@@Z 1004c262 f   vgui:vgui.dll
 0001:0004b268       ?wasMousePressed@Panel@vgui@@UAE_NW4MouseCode@2@@Z 1004c268 f   vgui:vgui.dll
 0001:0004b26e       ?removeChild@Panel@vgui@@UAEXPAV12@@Z 1004c26e f   vgui:vgui.dll
 0001:0004b274       ?insertChildAt@Panel@vgui@@UAEXPAV12@H@Z 1004c274 f   vgui:vgui.dll
 0001:0004b27a       ?addChild@Panel@vgui@@UAEXPAV12@@Z 1004c27a f   vgui:vgui.dll
 0001:0004b280       ?setParent@Panel@vgui@@UAEXPAV12@@Z 1004c280 f   vgui:vgui.dll
 0001:0004b286       ?getClipRect@Panel@vgui@@UAEXAAH000@Z 1004c286 f   vgui:vgui.dll
 0001:0004b28c       ?getAbsExtents@Panel@vgui@@UAEXAAH000@Z 1004c28c f   vgui:vgui.dll
 0001:0004b292       ?repaintAll@Panel@vgui@@UAEXXZ 1004c292 f   vgui:vgui.dll
 0001:0004b298       ?repaint@Panel@vgui@@UAEXXZ 1004c298 f   vgui:vgui.dll
 0001:0004b29e       ?isVisibleUp@Panel@vgui@@UAE_NXZ 1004c29e f   vgui:vgui.dll
 0001:0004b2a4       ?isVisible@Panel@vgui@@UAE_NXZ 1004c2a4 f   vgui:vgui.dll
 0001:0004b2aa       ?setVisible@Panel@vgui@@UAEX_N@Z 1004c2aa f   vgui:vgui.dll
 0001:0004b2b0       ?getParent@Panel@vgui@@UAEPAV12@XZ 1004c2b0 f   vgui:vgui.dll
 0001:0004b2b6       ?getTall@Panel@vgui@@UAEHXZ 1004c2b6 f   vgui:vgui.dll
 0001:0004b2bc       ?getWide@Panel@vgui@@UAEHXZ 1004c2bc f   vgui:vgui.dll
 0001:0004b2c2       ?getBounds@Panel@vgui@@UAEXAAH000@Z 1004c2c2 f   vgui:vgui.dll
 0001:0004b2c8       ?setBounds@Panel@vgui@@UAEXHHHH@Z 1004c2c8 f   vgui:vgui.dll
 0001:0004b2ce       ?getSize@Panel@vgui@@UAEXAAH0@Z 1004c2ce f   vgui:vgui.dll
 0001:0004b2d4       ?setSize@Panel@vgui@@UAEXHH@Z 1004c2d4 f   vgui:vgui.dll
 0001:0004b2da       ?getPos@Panel@vgui@@UAEXAAH0@Z 1004c2da f   vgui:vgui.dll
 0001:0004b2e0       ?setPos@Panel@vgui@@UAEXHH@Z 1004c2e0 f   vgui:vgui.dll
 0001:0004b2e6       ?recomputeMinimumSize@Label@vgui@@MAEXXZ 1004c2e6 f   vgui:vgui.dll
 0001:0004b2ec       ?computeAlignment@Label@vgui@@MAEXAAH00000000000@Z 1004c2ec f   vgui:vgui.dll
 0001:0004b2f2       ?setContentFitted@Label@vgui@@UAEX_N@Z 1004c2f2 f   vgui:vgui.dll
 0001:0004b2f8       ?setContentAlignment@Label@vgui@@UAEXW4Alignment@12@@Z 1004c2f8 f   vgui:vgui.dll
 0001:0004b2fe       ?setTextAlignment@Label@vgui@@UAEXW4Alignment@12@@Z 1004c2fe f   vgui:vgui.dll
 0001:0004b304       ?getContentSize@Label@vgui@@UAEXAAH0@Z 1004c304 f   vgui:vgui.dll
 0001:0004b30a       ?getTextSize@Label@vgui@@UAEXAAH0@Z 1004c30a f   vgui:vgui.dll
 0001:0004b310       ?setFont@Label@vgui@@UAEXW4SchemeFont@Scheme@2@@Z 1004c310 f   vgui:vgui.dll
 0001:0004b316       ?setFont@Label@vgui@@UAEXPAVFont@2@@Z 1004c316 f   vgui:vgui.dll
 0001:0004b31c       ?setText@Label@vgui@@UAEXHPBD@Z 1004c31c f   vgui:vgui.dll
 0001:0004b322       ?setText@Label@vgui@@UAAXPBDZZ 1004c322 f   vgui:vgui.dll
 0001:0004b328       ?setImage@Label@vgui@@UAEXPAVImage@2@@Z 1004c328 f   vgui:vgui.dll
 0001:0004b32e       ?paint@Label@vgui@@MAEXXZ  1004c32e f   vgui:vgui.dll
 0001:0004b334       ?setFgColor@Label@vgui@@UAEXW4SchemeColor@Scheme@2@@Z 1004c334 f   vgui:vgui.dll
 0001:0004b33a       ?setFgColor@Label@vgui@@UAEXHHHH@Z 1004c33a f   vgui:vgui.dll
 0001:0004b340       ?createPropertyPanel@Label@vgui@@UAEPAVPanel@2@XZ 1004c340 f   vgui:vgui.dll
 0001:0004b346       ?init@Label@vgui@@AAEXHPBD_N@Z 1004c346 f   vgui:vgui.dll
 0001:0004b34c       ??0Panel@vgui@@QAE@HHHH@Z  1004c34c f   vgui:vgui.dll
 0001:0004b352       ?doPaint@Image@vgui@@UAEXPAVPanel@2@@Z 1004c352 f   vgui:vgui.dll
 0001:0004b358       ?paint@Image@vgui@@MAEXPAVPanel@2@@Z 1004c358 f   vgui:vgui.dll
 0001:0004b35e       ?drawTexturedRect@Image@vgui@@MAEXHHHH@Z 1004c35e f   vgui:vgui.dll
 0001:0004b364       ?drawSetTexture@Image@vgui@@MAEXH@Z 1004c364 f   vgui:vgui.dll
 0001:0004b36a       ?drawSetTextureRGBA@Image@vgui@@MAEXHPBDHH@Z 1004c36a f   vgui:vgui.dll
 0001:0004b370       ?drawPrintChar@Image@vgui@@MAEXD@Z 1004c370 f   vgui:vgui.dll
 0001:0004b376       ?drawPrintChar@Image@vgui@@MAEXHHD@Z 1004c376 f   vgui:vgui.dll
 0001:0004b37c       ?drawPrintText@Image@vgui@@MAEXPBDH@Z 1004c37c f   vgui:vgui.dll
 0001:0004b382       ?drawPrintText@Image@vgui@@MAEXHHPBDH@Z 1004c382 f   vgui:vgui.dll
 0001:0004b388       ?drawSetTextPos@Image@vgui@@MAEXHH@Z 1004c388 f   vgui:vgui.dll
 0001:0004b38e       ?drawSetTextColor@Image@vgui@@MAEXW4SchemeColor@Scheme@2@@Z 1004c38e f   vgui:vgui.dll
 0001:0004b394       ?drawSetTextColor@Image@vgui@@MAEXHHHH@Z 1004c394 f   vgui:vgui.dll
 0001:0004b39a       ?drawSetTextFont@Image@vgui@@MAEXW4SchemeFont@Scheme@2@@Z 1004c39a f   vgui:vgui.dll
 0001:0004b3a0       ?drawSetTextFont@Image@vgui@@MAEXPAVFont@2@@Z 1004c3a0 f   vgui:vgui.dll
 0001:0004b3a6       ?drawOutlinedRect@Image@vgui@@MAEXHHHH@Z 1004c3a6 f   vgui:vgui.dll
 0001:0004b3ac       ?drawFilledRect@Image@vgui@@MAEXHHHH@Z 1004c3ac f   vgui:vgui.dll
 0001:0004b3b2       ?drawSetColor@Image@vgui@@MAEXW4SchemeColor@Scheme@2@@Z 1004c3b2 f   vgui:vgui.dll
 0001:0004b3b8       ?drawSetColor@Image@vgui@@MAEXHHHH@Z 1004c3b8 f   vgui:vgui.dll
 0001:0004b3be       ?setSize@Image@vgui@@MAEXHH@Z 1004c3be f   vgui:vgui.dll
 0001:0004b3c4       ?getColor@Image@vgui@@UAEXAAVColor@2@@Z 1004c3c4 f   vgui:vgui.dll
 0001:0004b3ca       ?setColor@Image@vgui@@UAEXVColor@2@@Z 1004c3ca f   vgui:vgui.dll
 0001:0004b3d0       ?getSize@Image@vgui@@UAEXAAH0@Z 1004c3d0 f   vgui:vgui.dll
 0001:0004b3d6       ?getPos@Image@vgui@@UAEXAAH0@Z 1004c3d6 f   vgui:vgui.dll
 0001:0004b3dc       ?setPos@Image@vgui@@UAEXHH@Z 1004c3dc f   vgui:vgui.dll
 0001:0004b3e2       ?getInset@Border@vgui@@UAEXAAH000@Z 1004c3e2 f   vgui:vgui.dll
 0001:0004b3e8       ?setInset@Border@vgui@@UAEXHHHH@Z 1004c3e8 f   vgui:vgui.dll
 0001:0004b3ee       ?drawPrintChar@Border@vgui@@MAEXHHD@Z 1004c3ee f   vgui:vgui.dll
 0001:0004b3f4       ?drawPrintText@Border@vgui@@MAEXHHPBDH@Z 1004c3f4 f   vgui:vgui.dll
 0001:0004b3fa       ?drawSetTextPos@Border@vgui@@MAEXHH@Z 1004c3fa f   vgui:vgui.dll
 0001:0004b400       ?drawOutlinedRect@Border@vgui@@MAEXHHHH@Z 1004c400 f   vgui:vgui.dll
 0001:0004b406       ?drawFilledRect@Border@vgui@@MAEXHHHH@Z 1004c406 f   vgui:vgui.dll
 0001:0004b40c       ??0Color@vgui@@QAE@HHHH@Z  1004c40c f   vgui:vgui.dll
 0001:0004b412       ?init@LineBorder@vgui@@EAEXHVColor@2@@Z 1004c412 f   vgui:vgui.dll
 0001:0004b418       ?paint@LineBorder@vgui@@MAEXPAVPanel@2@@Z 1004c418 f   vgui:vgui.dll
 0001:0004b41e       ?setImage@ImagePanel@vgui@@UAEXPAVImage@2@@Z 1004c41e f   vgui:vgui.dll
 0001:0004b424       ?paintBackground@ImagePanel@vgui@@MAEXXZ 1004c424 f   vgui:vgui.dll
 0001:0004b42a       ??0Panel@vgui@@QAE@XZ      1004c42a f   vgui:vgui.dll
 0001:0004b430       ?setRGBA@Bitmap@vgui@@MAEXHHEEEE@Z 1004c430 f   vgui:vgui.dll
 0001:0004b436       ?paint@Bitmap@vgui@@UAEXPAVPanel@2@@Z 1004c436 f   vgui:vgui.dll
 0001:0004b43c       ?setSize@Bitmap@vgui@@MAEXHH@Z 1004c43c f   vgui:vgui.dll
 0001:0004b442       ?loadTGA@BitmapTGA@vgui@@EAE_NPAVInputStream@2@_N@Z 1004c442 f   vgui:vgui.dll
 0001:0004b448       ?setButtonController@Button@vgui@@MAEXPAVButtonController@2@@Z 1004c448 f   vgui:vgui.dll
 0001:0004b44e       ?fireActionSignal@Button@vgui@@UAEXXZ 1004c44e f   vgui:vgui.dll
 0001:0004b454       ?isMouseClickEnabled@Button@vgui@@UAE_NW4MouseCode@2@@Z 1004c454 f   vgui:vgui.dll
 0001:0004b45a       ?setMouseClickEnabled@Button@vgui@@UAEXW4MouseCode@2@_N@Z 1004c45a f   vgui:vgui.dll
 0001:0004b460       ?setButtonBorderEnabled@Button@vgui@@UAEX_N@Z 1004c460 f   vgui:vgui.dll
 0001:0004b466       ?isArmed@Button@vgui@@UAE_NXZ 1004c466 f   vgui:vgui.dll
 0001:0004b46c       ?setButtonGroup@Button@vgui@@UAEXPAVButtonGroup@2@@Z 1004c46c f   vgui:vgui.dll
 0001:0004b472       ?addActionSignal@Button@vgui@@UAEXPAVActionSignal@2@@Z 1004c472 f   vgui:vgui.dll
 0001:0004b478       ?doClick@Button@vgui@@UAEXXZ 1004c478 f   vgui:vgui.dll
 0001:0004b47e       ?isSelected@Button@vgui@@UAE_NXZ 1004c47e f   vgui:vgui.dll
 0001:0004b484       ?setArmed@Button@vgui@@UAEX_N@Z 1004c484 f   vgui:vgui.dll
 0001:0004b48a       ?setSelectedDirect@Button@vgui@@UAEX_N@Z 1004c48a f   vgui:vgui.dll
 0001:0004b490       ?setSelected@Button@vgui@@UAEX_N@Z 1004c490 f   vgui:vgui.dll
 0001:0004b496       ?paintBackground@Button@vgui@@MAEXXZ 1004c496 f   vgui:vgui.dll
 0001:0004b49c       ?createPropertyPanel@Button@vgui@@UAEPAVPanel@2@XZ 1004c49c f   vgui:vgui.dll
 0001:0004b4a2       ??0ImagePanel@vgui@@QAE@PAVImage@1@@Z 1004c4a2 f   vgui:vgui.dll
 0001:0004b4a8       ??0Label@vgui@@QAE@PBD@Z   1004c4a8 f   vgui:vgui.dll
 0001:0004b4ae       ?setFont@TextImage@vgui@@UAEXW4SchemeFont@Scheme@2@@Z 1004c4ae f   vgui:vgui.dll
 0001:0004b4b4       ?setFont@TextImage@vgui@@UAEXPAVFont@2@@Z 1004c4b4 f   vgui:vgui.dll
 0001:0004b4ba       ?setText@TextImage@vgui@@UAEXHPBD@Z 1004c4ba f   vgui:vgui.dll
 0001:0004b4c0       ?setText@TextImage@vgui@@UAEXPBD@Z 1004c4c0 f   vgui:vgui.dll
 0001:0004b4c6       ?getFont@TextImage@vgui@@UAEPAVFont@2@XZ 1004c4c6 f   vgui:vgui.dll
 0001:0004b4cc       ?getTextSizeWrapped@TextImage@vgui@@UAEXAAH0@Z 1004c4cc f   vgui:vgui.dll
 0001:0004b4d2       ?getTextSize@TextImage@vgui@@UAEXAAH0@Z 1004c4d2 f   vgui:vgui.dll
 0001:0004b4d8       ?init@TextImage@vgui@@EAEXHPBD@Z 1004c4d8 f   vgui:vgui.dll
 0001:0004b4de       ?paint@TextImage@vgui@@MAEXPAVPanel@2@@Z 1004c4de f   vgui:vgui.dll
 0001:0004b4e4       ?setSize@TextImage@vgui@@UAEXHH@Z 1004c4e4 f   vgui:vgui.dll
 0001:0004b4ea       ??0Slider@vgui@@QAE@HHHH_N@Z 1004c4ea f   vgui:vgui.dll
 0001:0004b4f0       ??0ScrollBar@vgui@@QAE@HHHH_N@Z 1004c4f0 f   vgui:vgui.dll
 0001:0004b4f6       ??0Button@vgui@@QAE@PBDHH@Z 1004c4f6 f   vgui:vgui.dll
 0001:0004b4fc       ?fireMinimizingSignal@Frame@vgui@@UAEXXZ 1004c4fc f   vgui:vgui.dll
 0001:0004b502       ?fireClosingSignal@Frame@vgui@@UAEXXZ 1004c502 f   vgui:vgui.dll
 0001:0004b508       ?setCloseButtonVisible@Frame@vgui@@UAEX_N@Z 1004c508 f   vgui:vgui.dll
 0001:0004b50e       ?setMaximizeButtonVisible@Frame@vgui@@UAEX_N@Z 1004c50e f   vgui:vgui.dll
 0001:0004b514       ?setMinimizeButtonVisible@Frame@vgui@@UAEX_N@Z 1004c514 f   vgui:vgui.dll
 0001:0004b51a       ?setTrayButtonVisible@Frame@vgui@@UAEX_N@Z 1004c51a f   vgui:vgui.dll
 0001:0004b520       ?setMenuButtonVisible@Frame@vgui@@UAEX_N@Z 1004c520 f   vgui:vgui.dll
 0001:0004b526       ?addFrameSignal@Frame@vgui@@UAEXPAVFrameSignal@2@@Z 1004c526 f   vgui:vgui.dll
 0001:0004b52c       ?isSizeable@Frame@vgui@@UAE_NXZ 1004c52c f   vgui:vgui.dll
 0001:0004b532       ?isMoveable@Frame@vgui@@UAE_NXZ 1004c532 f   vgui:vgui.dll
 0001:0004b538       ?setSizeable@Frame@vgui@@UAEX_N@Z 1004c538 f   vgui:vgui.dll
 0001:0004b53e       ?setMoveable@Frame@vgui@@UAEX_N@Z 1004c53e f   vgui:vgui.dll
 0001:0004b544       ?getTitle@Frame@vgui@@UAEXPADH@Z 1004c544 f   vgui:vgui.dll
 0001:0004b54a       ?setTitle@Frame@vgui@@UAEXPBD@Z 1004c54a f   vgui:vgui.dll
 0001:0004b550       ?getClient@Frame@vgui@@UAEPAVPanel@2@XZ 1004c550 f   vgui:vgui.dll
 0001:0004b556       ?isInternal@Frame@vgui@@UAE_NXZ 1004c556 f   vgui:vgui.dll
 0001:0004b55c       ?setInternal@Frame@vgui@@UAEX_N@Z 1004c55c f   vgui:vgui.dll
 0001:0004b562       ?paintBackground@Frame@vgui@@UAEXXZ 1004c562 f   vgui:vgui.dll
 0001:0004b568       ?setVisible@Frame@vgui@@UAEX_N@Z 1004c568 f   vgui:vgui.dll
 0001:0004b56e       ?setSize@Frame@vgui@@UAEXHH@Z 1004c56e f   vgui:vgui.dll
 0001:0004b574       ?getTextImage@TextPanel@vgui@@UAEPAVTextImage@2@XZ 1004c574 f   vgui:vgui.dll
 0001:0004b57a       ?setFont@TextPanel@vgui@@UAEXW4SchemeFont@Scheme@2@@Z 1004c57a f   vgui:vgui.dll
 0001:0004b580       ?setFont@TextPanel@vgui@@UAEXPAVFont@2@@Z 1004c580 f   vgui:vgui.dll
 0001:0004b586       ?setText@TextPanel@vgui@@UAEXPBD@Z 1004c586 f   vgui:vgui.dll
 0001:0004b58c       ?paint@TextPanel@vgui@@MAEXXZ 1004c58c f   vgui:vgui.dll
 0001:0004b592       ?setFgColor@TextPanel@vgui@@UAEXW4SchemeColor@Scheme@2@@Z 1004c592 f   vgui:vgui.dll
 0001:0004b598       ?setFgColor@TextPanel@vgui@@UAEXHHHH@Z 1004c598 f   vgui:vgui.dll
 0001:0004b59e       ?setSize@TextPanel@vgui@@UAEXHH@Z 1004c59e f   vgui:vgui.dll
 0001:0004b5a4       ?close@FileInputStream@vgui@@UAEXXZ 1004c5a4 f   vgui:vgui.dll
 0001:0004b5aa       ?close@FileInputStream@vgui@@UAEXAA_N@Z 1004c5aa f   vgui:vgui.dll
 0001:0004b5b0       ?readUChar@FileInputStream@vgui@@UAEEAA_N@Z 1004c5b0 f   vgui:vgui.dll
 0001:0004b5b6       ?readUChar@FileInputStream@vgui@@UAEXPAEHAA_N@Z 1004c5b6 f   vgui:vgui.dll
 0001:0004b5bc       ?getAvailable@FileInputStream@vgui@@UAEHAA_N@Z 1004c5bc f   vgui:vgui.dll
 0001:0004b5c2       ?seekEnd@FileInputStream@vgui@@UAEXAA_N@Z 1004c5c2 f   vgui:vgui.dll
 0001:0004b5c8       ?seekRelative@FileInputStream@vgui@@UAEXHAA_N@Z 1004c5c8 f   vgui:vgui.dll
 0001:0004b5ce       ?seekStart@FileInputStream@vgui@@UAEXAA_N@Z 1004c5ce f   vgui:vgui.dll
 0001:0004b5d4       ?getMiniApp@DesktopIcon@vgui@@UAEPAVMiniApp@2@XZ 1004c5d4 f   vgui:vgui.dll
 0001:0004b5da       ?setDesktop@DesktopIcon@vgui@@UAEXPAVDesktop@2@@Z 1004c5da f   vgui:vgui.dll
 0001:0004b5e0       ?setImage@DesktopIcon@vgui@@UAEXPAVImage@2@@Z 1004c5e0 f   vgui:vgui.dll
 0001:0004b5e6       ?doActivate@DesktopIcon@vgui@@UAEXXZ 1004c5e6 f   vgui:vgui.dll
 0001:0004b5ec       ?paintBackground@DesktopIcon@vgui@@MAEXXZ 1004c5ec f   vgui:vgui.dll
 0001:0004b5f2       ?getDefaultCursor@Cursor@vgui@@UAE?AW4DefaultCursor@12@XZ 1004c5f2 f   vgui:vgui.dll
 0001:0004b5f8       ?getBitmap@Cursor@vgui@@UAEPAVBitmap@2@XZ 1004c5f8 f   vgui:vgui.dll
 0001:0004b5fe       ?privateInit@Cursor@vgui@@EAEXPAVBitmap@2@HH@Z 1004c5fe f   vgui:vgui.dll
 0001:0004b604       ?getHotspot@Cursor@vgui@@UAEXAAH0@Z 1004c604 f   vgui:vgui.dll
 0001:0004b60a       ?internalTick@App@vgui@@MAEXXZ 1004c60a f   vgui:vgui.dll
 0001:0004b610       ?platTick@App@vgui@@MAEXXZ 1004c610 f   vgui:vgui.dll
 0001:0004b616       ?surfaceBaseDeleted@App@vgui@@MAEXPAVSurfaceBase@2@@Z 1004c616 f   vgui:vgui.dll
 0001:0004b61c       ?surfaceBaseCreated@App@vgui@@MAEXPAVSurfaceBase@2@@Z 1004c61c f   vgui:vgui.dll
 0001:0004b622       ?setMouseFocus@App@vgui@@EAEXPAVPanel@2@@Z 1004c622 f   vgui:vgui.dll
 0001:0004b628       ?updateMouseFocus@App@vgui@@EAEXHHPAVSurfaceBase@2@@Z 1004c628 f   vgui:vgui.dll
 0001:0004b62e       ?init@App@vgui@@EAEXXZ     1004c62e f   vgui:vgui.dll
 0001:0004b634       ?internalKeyReleased@App@vgui@@UAEXW4KeyCode@2@PAVSurfaceBase@2@@Z 1004c634 f   vgui:vgui.dll
 0001:0004b63a       ?internalKeyTyped@App@vgui@@UAEXW4KeyCode@2@PAVSurfaceBase@2@@Z 1004c63a f   vgui:vgui.dll
 0001:0004b640       ?internalKeyPressed@App@vgui@@UAEXW4KeyCode@2@PAVSurfaceBase@2@@Z 1004c640 f   vgui:vgui.dll
 0001:0004b646       ?internalMouseWheeled@App@vgui@@UAEXHPAVSurfaceBase@2@@Z 1004c646 f   vgui:vgui.dll
 0001:0004b64c       ?internalMouseReleased@App@vgui@@UAEXW4MouseCode@2@PAVSurfaceBase@2@@Z 1004c64c f   vgui:vgui.dll
 0001:0004b652       ?internalMouseDoublePressed@App@vgui@@UAEXW4MouseCode@2@PAVSurfaceBase@2@@Z 1004c652 f   vgui:vgui.dll
 0001:0004b658       ?internalMousePressed@App@vgui@@UAEXW4MouseCode@2@PAVSurfaceBase@2@@Z 1004c658 f   vgui:vgui.dll
 0001:0004b65e       ?internalCursorMoved@App@vgui@@UAEXHHPAVSurfaceBase@2@@Z 1004c65e f   vgui:vgui.dll
 0001:0004b664       ?run@App@vgui@@UAEXXZ      1004c664 f   vgui:vgui.dll
 0001:0004b66a       ?setMinimumTickMillisInterval@App@vgui@@UAEXH@Z 1004c66a f   vgui:vgui.dll
 0001:0004b670       ?getCursorOveride@App@vgui@@UAEPAVCursor@2@XZ 1004c670 f   vgui:vgui.dll
 0001:0004b676       ?setCursorOveride@App@vgui@@UAEXPAVCursor@2@@Z 1004c676 f   vgui:vgui.dll
 0001:0004b67c       ?getRegistryInteger@App@vgui@@UAE_NPBDAAH@Z 1004c67c f   vgui:vgui.dll
 0001:0004b682       ?setRegistryInteger@App@vgui@@UAE_NPBDH@Z 1004c682 f   vgui:vgui.dll
 0001:0004b688       ?getRegistryString@App@vgui@@UAE_NPBDPADH@Z 1004c688 f   vgui:vgui.dll
 0001:0004b68e       ?setRegistryString@App@vgui@@UAE_NPBD0@Z 1004c68e f   vgui:vgui.dll
 0001:0004b694       ?internalSetMouseArena@App@vgui@@UAEXHHHH_N@Z 1004c694 f   vgui:vgui.dll
 0001:0004b69a       ?reset@App@vgui@@UAEXXZ    1004c69a f   vgui:vgui.dll
 0001:0004b6a0       ?getClipboardText@App@vgui@@UAEHHPADH@Z 1004c6a0 f   vgui:vgui.dll
 0001:0004b6a6       ?setClipboardText@App@vgui@@UAEXPBDH@Z 1004c6a6 f   vgui:vgui.dll
 0001:0004b6ac       ?getClipboardTextCount@App@vgui@@UAEHXZ 1004c6ac f   vgui:vgui.dll
 0001:0004b6b2       ?getKeyCodeText@App@vgui@@UAEXW4KeyCode@2@PADH@Z 1004c6b2 f   vgui:vgui.dll
 0001:0004b6b8       ?getKeyCodeChar@App@vgui@@UAEDW4KeyCode@2@_N@Z 1004c6b8 f   vgui:vgui.dll
 0001:0004b6be       ?getTimeMillis@App@vgui@@UAEJXZ 1004c6be f   vgui:vgui.dll
 0001:0004b6c4       ?enableBuildMode@App@vgui@@UAEXXZ 1004c6c4 f   vgui:vgui.dll
 0001:0004b6ca       ?getScheme@App@vgui@@UAEPAVScheme@2@XZ 1004c6ca f   vgui:vgui.dll
 0001:0004b6d0       ?setScheme@App@vgui@@UAEXPAVScheme@2@@Z 1004c6d0 f   vgui:vgui.dll
 0001:0004b6d6       ?repaintAll@App@vgui@@UAEXXZ 1004c6d6 f   vgui:vgui.dll
 0001:0004b6dc       ?getFocus@App@vgui@@UAEPAVPanel@2@XZ 1004c6dc f   vgui:vgui.dll
 0001:0004b6e2       ?requestFocus@App@vgui@@UAEXPAVPanel@2@@Z 1004c6e2 f   vgui:vgui.dll
 0001:0004b6e8       ?setMouseArena@App@vgui@@UAEXHHHH_N@Z 1004c6e8 f   vgui:vgui.dll
 0001:0004b6ee       ?setMouseArena@App@vgui@@UAEXPAVPanel@2@@Z 1004c6ee f   vgui:vgui.dll
 0001:0004b6f4       ?setMouseCapture@App@vgui@@UAEXPAVPanel@2@@Z 1004c6f4 f   vgui:vgui.dll
 0001:0004b6fa       ?getCursorPos@App@vgui@@UAEXAAH0@Z 1004c6fa f   vgui:vgui.dll
 0001:0004b700       ?setCursorPos@App@vgui@@UAEXHH@Z 1004c700 f   vgui:vgui.dll
 0001:0004b706       ?addTickSignal@App@vgui@@UAEXPAVTickSignal@2@@Z 1004c706 f   vgui:vgui.dll
 0001:0004b70c       ?wasKeyReleased@App@vgui@@UAE_NW4KeyCode@2@PAVPanel@2@@Z 1004c70c f   vgui:vgui.dll
 0001:0004b712       ?wasKeyTyped@App@vgui@@UAE_NW4KeyCode@2@PAVPanel@2@@Z 1004c712 f   vgui:vgui.dll
 0001:0004b718       ?isKeyDown@App@vgui@@UAE_NW4KeyCode@2@PAVPanel@2@@Z 1004c718 f   vgui:vgui.dll
 0001:0004b71e       ?wasKeyPressed@App@vgui@@UAE_NW4KeyCode@2@PAVPanel@2@@Z 1004c71e f   vgui:vgui.dll
 0001:0004b724       ?wasMouseReleased@App@vgui@@UAE_NW4MouseCode@2@PAVPanel@2@@Z 1004c724 f   vgui:vgui.dll
 0001:0004b72a       ?isMouseDown@App@vgui@@UAE_NW4MouseCode@2@PAVPanel@2@@Z 1004c72a f   vgui:vgui.dll
 0001:0004b730       ?wasMouseDoublePressed@App@vgui@@UAE_NW4MouseCode@2@PAVPanel@2@@Z 1004c730 f   vgui:vgui.dll
 0001:0004b736       ?wasMousePressed@App@vgui@@UAE_NW4MouseCode@2@PAVPanel@2@@Z 1004c736 f   vgui:vgui.dll
 0001:0004b73c       ?externalTick@App@vgui@@UAEXXZ 1004c73c f   vgui:vgui.dll
 0001:0004b742       ?stop@App@vgui@@UAEXXZ     1004c742 f   vgui:vgui.dll
 0001:0004b748       ?start@App@vgui@@UAEXXZ    1004c748 f   vgui:vgui.dll
 0001:0004b74e       ?setName@MiniApp@vgui@@MAEXPBD@Z 1004c74e f   vgui:vgui.dll
 0001:0004b754       ?getName@MiniApp@vgui@@UAEXPADH@Z 1004c754 f   vgui:vgui.dll
 0001:0004b75a       ?recomputeScroll@ScrollPanel@vgui@@UAEXXZ 1004c75a f   vgui:vgui.dll
 0001:0004b760       ?validate@ScrollPanel@vgui@@UAEXXZ 1004c760 f   vgui:vgui.dll
 0001:0004b766       ?getVerticalScrollBar@ScrollPanel@vgui@@UAEPAVScrollBar@2@XZ 1004c766 f   vgui:vgui.dll
 0001:0004b76c       ?getHorizontalScrollBar@ScrollPanel@vgui@@UAEPAVScrollBar@2@XZ 1004c76c f   vgui:vgui.dll
 0001:0004b772       ?recomputeClientSize@ScrollPanel@vgui@@UAEXXZ 1004c772 f   vgui:vgui.dll
 0001:0004b778       ?getScrollValue@ScrollPanel@vgui@@UAEXAAH0@Z 1004c778 f   vgui:vgui.dll
 0001:0004b77e       ?setScrollValue@ScrollPanel@vgui@@UAEXHH@Z 1004c77e f   vgui:vgui.dll
 0001:0004b784       ?getClientClip@ScrollPanel@vgui@@UAEPAVPanel@2@XZ 1004c784 f   vgui:vgui.dll
 0001:0004b78a       ?getClient@ScrollPanel@vgui@@UAEPAVPanel@2@XZ 1004c78a f   vgui:vgui.dll
 0001:0004b790       ?setScrollBarAutoVisible@ScrollPanel@vgui@@UAEX_N0@Z 1004c790 f   vgui:vgui.dll
 0001:0004b796       ?setScrollBarVisible@ScrollPanel@vgui@@UAEX_N0@Z 1004c796 f   vgui:vgui.dll
 0001:0004b79c       ?setSize@ScrollPanel@vgui@@MAEXHH@Z 1004c79c f   vgui:vgui.dll
 0001:0004b7a2       ?fireIntChangeSignal@ScrollBar@vgui@@UAEXXZ 1004c7a2 f   vgui:vgui.dll
 0001:0004b7a8       ?validate@ScrollBar@vgui@@UAEXXZ 1004c7a8 f   vgui:vgui.dll
 0001:0004b7ae       ?setButtonPressedScrollValue@ScrollBar@vgui@@UAEXH@Z 1004c7ae f   vgui:vgui.dll
 0001:0004b7b4       ?doButtonPressed@ScrollBar@vgui@@UAEXH@Z 1004c7b4 f   vgui:vgui.dll
 0001:0004b7ba       ?getSlider@ScrollBar@vgui@@UAEPAVSlider@2@XZ 1004c7ba f   vgui:vgui.dll
 0001:0004b7c0       ?setSlider@ScrollBar@vgui@@UAEXPAVSlider@2@@Z 1004c7c0 f   vgui:vgui.dll
 0001:0004b7c6       ?getButton@ScrollBar@vgui@@UAEPAVButton@2@H@Z 1004c7c6 f   vgui:vgui.dll
 0001:0004b7cc       ?setButton@ScrollBar@vgui@@UAEXPAVButton@2@H@Z 1004c7cc f   vgui:vgui.dll
 0001:0004b7d2       ?hasFullRange@ScrollBar@vgui@@UAE_NXZ 1004c7d2 f   vgui:vgui.dll
 0001:0004b7d8       ?isVertical@ScrollBar@vgui@@UAE_NXZ 1004c7d8 f   vgui:vgui.dll
 0001:0004b7de       ?setRangeWindowEnabled@ScrollBar@vgui@@UAEX_N@Z 1004c7de f   vgui:vgui.dll
 0001:0004b7e4       ?setRangeWindow@ScrollBar@vgui@@UAEXH@Z 1004c7e4 f   vgui:vgui.dll
 0001:0004b7ea       ?setRange@ScrollBar@vgui@@UAEXHH@Z 1004c7ea f   vgui:vgui.dll
 0001:0004b7f0       ?addIntChangeSignal@ScrollBar@vgui@@UAEXPAVIntChangeSignal@2@@Z 1004c7f0 f   vgui:vgui.dll
 0001:0004b7f6       ?getValue@ScrollBar@vgui@@UAEHXZ 1004c7f6 f   vgui:vgui.dll
 0001:0004b7fc       ?setValue@ScrollBar@vgui@@UAEXH@Z 1004c7fc f   vgui:vgui.dll
 0001:0004b802       ?performLayout@ScrollBar@vgui@@MAEXXZ 1004c802 f   vgui:vgui.dll
 0001:0004b808       ?setSize@ScrollBar@vgui@@UAEXHH@Z 1004c808 f   vgui:vgui.dll
 0001:0004b80e       ?fireIntChangeSignal@Slider@vgui@@MAEXXZ 1004c80e f   vgui:vgui.dll
 0001:0004b814       ?privateMouseReleased@Slider@vgui@@UAEXW4MouseCode@2@PAVPanel@2@@Z 1004c814 f   vgui:vgui.dll
 0001:0004b81a       ?privateMousePressed@Slider@vgui@@UAEXW4MouseCode@2@PAVPanel@2@@Z 1004c81a f   vgui:vgui.dll
 0001:0004b820       ?privateCursorMoved@Slider@vgui@@UAEXHHPAVPanel@2@@Z 1004c820 f   vgui:vgui.dll
 0001:0004b826       ?recomputeValueFromNobPos@Slider@vgui@@EAEXXZ 1004c826 f   vgui:vgui.dll
 0001:0004b82c       ?recomputeNobPosFromValue@Slider@vgui@@EAEXXZ 1004c82c f   vgui:vgui.dll
 0001:0004b832       ?setButtonOffset@Slider@vgui@@UAEXH@Z 1004c832 f   vgui:vgui.dll
 0001:0004b838       ?hasFullRange@Slider@vgui@@UAE_NXZ 1004c838 f   vgui:vgui.dll
 0001:0004b83e       ?getNobPos@Slider@vgui@@UAEXAAH0@Z 1004c83e f   vgui:vgui.dll
 0001:0004b844       ?setRangeWindowEnabled@Slider@vgui@@UAEX_N@Z 1004c844 f   vgui:vgui.dll
 0001:0004b84a       ?setRangeWindow@Slider@vgui@@UAEXH@Z 1004c84a f   vgui:vgui.dll
 0001:0004b850       ?getRange@Slider@vgui@@UAEXAAH0@Z 1004c850 f   vgui:vgui.dll
 0001:0004b856       ?setRange@Slider@vgui@@UAEXHH@Z 1004c856 f   vgui:vgui.dll
 0001:0004b85c       ?addIntChangeSignal@Slider@vgui@@UAEXPAVIntChangeSignal@2@@Z 1004c85c f   vgui:vgui.dll
 0001:0004b862       ?isVertical@Slider@vgui@@UAE_NXZ 1004c862 f   vgui:vgui.dll
 0001:0004b868       ?getValue@Slider@vgui@@UAEHXZ 1004c868 f   vgui:vgui.dll
 0001:0004b86e       ?setValue@Slider@vgui@@UAEXH@Z 1004c86e f   vgui:vgui.dll
 0001:0004b874       ?paintBackground@Slider@vgui@@MAEXXZ 1004c874 f   vgui:vgui.dll
 0001:0004b87a       ?setSize@Slider@vgui@@UAEXHH@Z 1004c87a f   vgui:vgui.dll
 0001:0004b880       ?getId@Font@vgui@@UAEHXZ   1004c880 f   vgui:vgui.dll
 0001:0004b886       ?getTall@Font@vgui@@UAEHXZ 1004c886 f   vgui:vgui.dll
 0001:0004b88c       ?getTextSize@Font@vgui@@UAEXPBDAAH1@Z 1004c88c f   vgui:vgui.dll
 0001:0004b892       ?getCharABCwide@Font@vgui@@UAEXHAAH00@Z 1004c892 f   vgui:vgui.dll
 0001:0004b898       ?getCharRGBA@Font@vgui@@UAEXHHHHHPAE@Z 1004c898 f   vgui:vgui.dll
 0001:0004b89e       ?init@Font@vgui@@EAEXPBDPAXHHHMH_N222@Z 1004c89e f   vgui:vgui.dll
 0001:0004b8a4       ??0BitmapTGA@vgui@@QAE@PAVInputStream@1@_N@Z 1004c8a4 f   vgui:vgui.dll
 0001:0004b8aa       ??0ToggleButton@vgui@@QAE@PBDHH@Z 1004c8aa f   vgui:vgui.dll
 0001:0004b8b0       ??0Bitmap@vgui@@QAE@XZ     1004c8b0 f   vgui:vgui.dll
 0001:0004b8b6       ??0Label@vgui@@QAE@PBDHH@Z 1004c8b6 f   vgui:vgui.dll
 0001:0004b8bc       ??0TextPanel@vgui@@QAE@PBDHHHH@Z 1004c8bc f   vgui:vgui.dll
 0001:0004b8c2       ??0TextEntry@vgui@@QAE@PBDHHHH@Z 1004c8c2 f   vgui:vgui.dll
 0001:0004b8c8       ??0LoweredBorder@vgui@@QAE@XZ 1004c8c8 f   vgui:vgui.dll
 0001:0004b8ce       ??0TextGrid@vgui@@QAE@HHHHHH@Z 1004c8ce f   vgui:vgui.dll
 0001:0004b8d4       ??0EtchedBorder@vgui@@QAE@XZ 1004c8d4 f   vgui:vgui.dll
 0001:0004b8da       ?printf@TextGrid@vgui@@UAAHPBDZZ 1004c8da f   vgui:vgui.dll
 0001:0004b8e0       ?vprintf@TextGrid@vgui@@UAEHPBDPAD@Z 1004c8e0 f   vgui:vgui.dll
 0001:0004b8e6       ?setXY@TextGrid@vgui@@UAEXHH@Z 1004c8e6 f   vgui:vgui.dll
 0001:0004b8ec       ?newLine@TextGrid@vgui@@UAEXXZ 1004c8ec f   vgui:vgui.dll
 0001:0004b8f2       ?setGridSize@TextGrid@vgui@@UAEXHH@Z 1004c8f2 f   vgui:vgui.dll
 0001:0004b8f8       ?paintBackground@TextGrid@vgui@@MAEXXZ 1004c8f8 f   vgui:vgui.dll
 0001:0004b8fe       ?keyFocusTicked@TextEntry@vgui@@MAEXPAVPanel@2@@Z 1004c8fe f   vgui:vgui.dll
 0001:0004b904       ?keyReleased@TextEntry@vgui@@MAEXW4KeyCode@2@PAVPanel@2@@Z 1004c904 f   vgui:vgui.dll
 0001:0004b90a       ?keyTyped@TextEntry@vgui@@MAEXW4KeyCode@2@PAVPanel@2@@Z 1004c90a f   vgui:vgui.dll
 0001:0004b910       ?keyPressed@TextEntry@vgui@@MAEXW4KeyCode@2@PAVPanel@2@@Z 1004c910 f   vgui:vgui.dll
 0001:0004b916       ?mouseWheeled@TextEntry@vgui@@MAEXHPAVPanel@2@@Z 1004c916 f   vgui:vgui.dll
 0001:0004b91c       ?mouseReleased@TextEntry@vgui@@MAEXW4MouseCode@2@PAVPanel@2@@Z 1004c91c f   vgui:vgui.dll
 0001:0004b922       ?mouseDoublePressed@TextEntry@vgui@@MAEXW4MouseCode@2@PAVPanel@2@@Z 1004c922 f   vgui:vgui.dll
 0001:0004b928       ?mousePressed@TextEntry@vgui@@MAEXW4MouseCode@2@PAVPanel@2@@Z 1004c928 f   vgui:vgui.dll
 0001:0004b92e       ?cursorExited@TextEntry@vgui@@MAEXPAVPanel@2@@Z 1004c92e f   vgui:vgui.dll
 0001:0004b934       ?cursorEntered@TextEntry@vgui@@MAEXPAVPanel@2@@Z 1004c934 f   vgui:vgui.dll
 0001:0004b93a       ?cursorMoved@TextEntry@vgui@@MAEXHHPAVPanel@2@@Z 1004c93a f   vgui:vgui.dll
 0001:0004b940       ?selectCheck@TextEntry@vgui@@MAEXXZ 1004c940 f   vgui:vgui.dll
 0001:0004b946       ?cursorToPixelSpace@TextEntry@vgui@@MAEHH@Z 1004c946 f   vgui:vgui.dll
 0001:0004b94c       ?getSelectedPixelRange@TextEntry@vgui@@MAE_NAAH0@Z 1004c94c f   vgui:vgui.dll
 0001:0004b952       ?getSelectedRange@TextEntry@vgui@@MAE_NAAH0@Z 1004c952 f   vgui:vgui.dll
 0001:0004b958       ?fireActionSignal@TextEntry@vgui@@MAEXXZ 1004c958 f   vgui:vgui.dll
 0001:0004b95e       ?setCharAt@TextEntry@vgui@@MAEXDH@Z 1004c95e f   vgui:vgui.dll
 0001:0004b964       ?setTextHidden@TextEntry@vgui@@UAEX_N@Z 1004c964 f   vgui:vgui.dll
 0001:0004b96a       ?setFont@TextEntry@vgui@@UAEXPAVFont@2@@Z 1004c96a f   vgui:vgui.dll
 0001:0004b970       ?addActionSignal@TextEntry@vgui@@UAEXPAVActionSignal@2@@Z 1004c970 f   vgui:vgui.dll
 0001:0004b976       ?doDeleteSelected@TextEntry@vgui@@UAEXXZ 1004c976 f   vgui:vgui.dll
 0001:0004b97c       ?doPasteSelected@TextEntry@vgui@@UAEXXZ 1004c97c f   vgui:vgui.dll
 0001:0004b982       ?doPaste@TextEntry@vgui@@UAEXXZ 1004c982 f   vgui:vgui.dll
 0001:0004b988       ?doCopySelected@TextEntry@vgui@@UAEXXZ 1004c988 f   vgui:vgui.dll
 0001:0004b98e       ?doSelectNone@TextEntry@vgui@@UAEXXZ 1004c98e f   vgui:vgui.dll
 0001:0004b994       ?doDelete@TextEntry@vgui@@UAEXXZ 1004c994 f   vgui:vgui.dll
 0001:0004b99a       ?doBackspace@TextEntry@vgui@@UAEXXZ 1004c99a f   vgui:vgui.dll
 0001:0004b9a0       ?doInsertChar@TextEntry@vgui@@UAEXD@Z 1004c9a0 f   vgui:vgui.dll
 0001:0004b9a6       ?doGotoEndOfLine@TextEntry@vgui@@UAEXXZ 1004c9a6 f   vgui:vgui.dll
 0001:0004b9ac       ?doGotoFirstOfLine@TextEntry@vgui@@UAEXXZ 1004c9ac f   vgui:vgui.dll
 0001:0004b9b2       ?doGotoRight@TextEntry@vgui@@UAEXXZ 1004c9b2 f   vgui:vgui.dll
 0001:0004b9b8       ?doGotoLeft@TextEntry@vgui@@UAEXXZ 1004c9b8 f   vgui:vgui.dll
 0001:0004b9be       ?resetCursorBlink@TextEntry@vgui@@UAEXXZ 1004c9be f   vgui:vgui.dll
 0001:0004b9c4       ?getText@TextEntry@vgui@@UAEXHPADH@Z 1004c9c4 f   vgui:vgui.dll
 0001:0004b9ca       ?setText@TextEntry@vgui@@UAEXPBDH@Z 1004c9ca f   vgui:vgui.dll
 0001:0004b9d0       ?paintBackground@TextEntry@vgui@@MAEXXZ 1004c9d0 f   vgui:vgui.dll
 0001:0004b9d6       ?paint@EtchedBorder@vgui@@MAEXPAVPanel@2@@Z 1004c9d6 f   vgui:vgui.dll
 0001:0004b9dc       ?paint@LoweredBorder@vgui@@MAEXPAVPanel@2@@Z 1004c9dc f   vgui:vgui.dll
 0001:0004b9e2       ??0Color@vgui@@QAE@W4SchemeColor@Scheme@1@@Z 1004c9e2 f   vgui:vgui.dll
 0001:0004b9e8       ??0ScrollPanel@vgui@@QAE@HHHH@Z 1004c9e8 f   vgui:vgui.dll
 0001:0004b9ee       ??0HeaderPanel@vgui@@QAE@HHHH@Z 1004c9ee f   vgui:vgui.dll
 0001:0004b9f4       ?privateKeyTyped@TablePanel@vgui@@EAEXW4KeyCode@2@PAVPanel@2@@Z 1004c9f4 f   vgui:vgui.dll
 0001:0004b9fa       ?privateMouseDoublePressed@TablePanel@vgui@@EAEXW4MouseCode@2@PAVPanel@2@@Z 1004c9fa f   vgui:vgui.dll
 0001:0004ba00       ?privateMousePressed@TablePanel@vgui@@EAEXW4MouseCode@2@PAVPanel@2@@Z 1004ca00 f   vgui:vgui.dll
 0001:0004ba06       ?stopCellEditing@TablePanel@vgui@@UAEXXZ 1004ca06 f   vgui:vgui.dll
 0001:0004ba0c       ?setEditableCell@TablePanel@vgui@@UAEXHH@Z 1004ca0c f   vgui:vgui.dll
 0001:0004ba12       ?setCellSectionEnabled@TablePanel@vgui@@UAEX_N@Z 1004ca12 f   vgui:vgui.dll
 0001:0004ba18       ?setRowSelectionEnabled@TablePanel@vgui@@UAEX_N@Z 1004ca18 f   vgui:vgui.dll
 0001:0004ba1e       ?setColumnSelectionEnabled@TablePanel@vgui@@UAEX_N@Z 1004ca1e f   vgui:vgui.dll
 0001:0004ba24       ?setHeaderPanel@TablePanel@vgui@@UAEXPAVHeaderPanel@2@@Z 1004ca24 f   vgui:vgui.dll
 0001:0004ba2a       ?getSelectedCell@TablePanel@vgui@@UAEXAAH0@Z 1004ca2a f   vgui:vgui.dll
 0001:0004ba30       ?setSelectedCell@TablePanel@vgui@@UAEXHH@Z 1004ca30 f   vgui:vgui.dll
 0001:0004ba36       ?setColumnExtents@TablePanel@vgui@@UAEXHHH@Z 1004ca36 f   vgui:vgui.dll
 0001:0004ba3c       ?getColumnCount@TablePanel@vgui@@UAEHXZ 1004ca3c f   vgui:vgui.dll
 0001:0004ba42       ?setGridSize@TablePanel@vgui@@UAEXHH@Z 1004ca42 f   vgui:vgui.dll
 0001:0004ba48       ?setGridVisible@TablePanel@vgui@@UAEX_N0@Z 1004ca48 f   vgui:vgui.dll
 0001:0004ba4e       ?setColumnCount@TablePanel@vgui@@UAEXH@Z 1004ca4e f   vgui:vgui.dll
 0001:0004ba54       ?setCellEditingEnabled@TablePanel@vgui@@UAEX_N@Z 1004ca54 f   vgui:vgui.dll
 0001:0004ba5a       ?paint@TablePanel@vgui@@MAEXXZ 1004ca5a f   vgui:vgui.dll
 0001:0004ba60       ?getVirtualSize@TablePanel@vgui@@UAEXAAH0@Z 1004ca60 f   vgui:vgui.dll
 0001:0004ba66       ?isWithinTraverse@TablePanel@vgui@@MAEPAVPanel@2@HH@Z 1004ca66 f   vgui:vgui.dll
 0001:0004ba6c       ??0Label@vgui@@QAE@PBDHHHH@Z 1004ca6c f   vgui:vgui.dll
 0001:0004ba72       ??0TablePanel@vgui@@QAE@HHHHH@Z 1004ca72 f   vgui:vgui.dll
 0001:0004ba78       ?vgui_strdup@vgui@@YAPADPBD@Z 1004ca78 f   vgui:vgui.dll
 0001:0004ba7e       ?vgui_strcpy@vgui@@YAXPADHPBD@Z 1004ca7e f   vgui:vgui.dll
 0001:0004ba84       ?readLine@DataInputStream@vgui@@UAEXPADHAA_N@Z 1004ca84 f   vgui:vgui.dll
 0001:0004ba8a       ??0DataInputStream@vgui@@QAE@PAVInputStream@1@@Z 1004ca8a f   vgui:vgui.dll
 0001:0004ba90       ?privateMouseReleased@HeaderPanel@vgui@@UAEXW4MouseCode@2@PAVPanel@2@@Z 1004ca90 f   vgui:vgui.dll
 0001:0004ba96       ?privateMousePressed@HeaderPanel@vgui@@UAEXW4MouseCode@2@PAVPanel@2@@Z 1004ca96 f   vgui:vgui.dll
 0001:0004ba9c       ?privateCursorMoved@HeaderPanel@vgui@@UAEXHHPAVPanel@2@@Z 1004ca9c f   vgui:vgui.dll
 0001:0004baa2       ?fireChangeSignal@HeaderPanel@vgui@@UAEXXZ 1004caa2 f   vgui:vgui.dll
 0001:0004baa8       ?addChangeSignal@HeaderPanel@vgui@@UAEXPAVChangeSignal@2@@Z 1004caa8 f   vgui:vgui.dll
 0001:0004baae       ?getSectionExtents@HeaderPanel@vgui@@UAEXHAAH0@Z 1004caae f   vgui:vgui.dll
 0001:0004bab4       ?getSectionCount@HeaderPanel@vgui@@UAEHXZ 1004cab4 f   vgui:vgui.dll
 0001:0004baba       ?setSliderPos@HeaderPanel@vgui@@UAEXHH@Z 1004caba f   vgui:vgui.dll
 0001:0004bac0       ?addSectionPanel@HeaderPanel@vgui@@UAEXPAVPanel@2@@Z 1004cac0 f   vgui:vgui.dll
 0001:0004bac6       ?performLayout@HeaderPanel@vgui@@MAEXXZ 1004cac6 f   vgui:vgui.dll
 0001:0004bacc       ?readDouble@DataInputStream@vgui@@UAENAA_N@Z 1004cacc f   vgui:vgui.dll
 0001:0004bad2       ?readFloat@DataInputStream@vgui@@UAEMAA_N@Z 1004cad2 f   vgui:vgui.dll
 0001:0004bad8       ?readULong@DataInputStream@vgui@@UAEKAA_N@Z 1004cad8 f   vgui:vgui.dll
 0001:0004bade       ?readLong@DataInputStream@vgui@@UAEJAA_N@Z 1004cade f   vgui:vgui.dll
 0001:0004bae4       ?readUInt@DataInputStream@vgui@@UAEIAA_N@Z 1004cae4 f   vgui:vgui.dll
 0001:0004baea       ?readInt@DataInputStream@vgui@@UAEHAA_N@Z 1004caea f   vgui:vgui.dll
 0001:0004baf0       ?readUShort@DataInputStream@vgui@@UAEGAA_N@Z 1004caf0 f   vgui:vgui.dll
 0001:0004baf6       ?readShort@DataInputStream@vgui@@UAEFAA_N@Z 1004caf6 f   vgui:vgui.dll
 0001:0004bafc       ?readChar@DataInputStream@vgui@@UAEDAA_N@Z 1004cafc f   vgui:vgui.dll
 0001:0004bb02       ?readBool@DataInputStream@vgui@@UAE_NAA_N@Z 1004cb02 f   vgui:vgui.dll
 0001:0004bb08       ?close@DataInputStream@vgui@@UAEXXZ 1004cb08 f   vgui:vgui.dll
 0001:0004bb0e       ?seekStart@DataInputStream@vgui@@UAEXAA_N@Z 1004cb0e f   vgui:vgui.dll
 0001:0004bb14       ?seekRelative@DataInputStream@vgui@@UAEXHAA_N@Z 1004cb14 f   vgui:vgui.dll
 0001:0004bb1a       ?seekEnd@DataInputStream@vgui@@UAEXAA_N@Z 1004cb1a f   vgui:vgui.dll
 0001:0004bb20       ?getAvailable@DataInputStream@vgui@@UAEHAA_N@Z 1004cb20 f   vgui:vgui.dll
 0001:0004bb26       ?readUChar@DataInputStream@vgui@@UAEXPAEHAA_N@Z 1004cb26 f   vgui:vgui.dll
 0001:0004bb2c       ?readUChar@DataInputStream@vgui@@UAEEAA_N@Z 1004cb2c f   vgui:vgui.dll
 0001:0004bb32       ?close@DataInputStream@vgui@@UAEXAA_N@Z 1004cb32 f   vgui:vgui.dll
 0001:0004bb38       ??0Button@vgui@@QAE@PBDHHHH@Z 1004cb38 f   vgui:vgui.dll
 0001:0004bb3e       ?performLayout@Layout@vgui@@UAEXPAVPanel@2@@Z 1004cb3e f   vgui:vgui.dll
 0001:0004bb44       ?createLayoutInfo@BorderLayout@vgui@@UAEPAVLayoutInfo@2@W4Alignment@12@@Z 1004cb44 f   vgui:vgui.dll
 0001:0004bb4a       ?performLayout@BorderLayout@vgui@@UAEXPAVPanel@2@@Z 1004cb4a f   vgui:vgui.dll
 0001:0004bb50       ?addModeInfo@SurfaceBase@vgui@@MAEXHHH@Z 1004cb50 f   vgui:vgui.dll
 0001:0004bb56       ?setEmulatedCursorPos@SurfaceBase@vgui@@UAEXHH@Z 1004cb56 f   vgui:vgui.dll
 0001:0004bb5c       ?setEmulatedCursorVisible@SurfaceBase@vgui@@UAEX_N@Z 1004cb5c f   vgui:vgui.dll
 0001:0004bb62       ?getApp@SurfaceBase@vgui@@UAEPAVApp@2@XZ 1004cb62 f   vgui:vgui.dll
 0001:0004bb68       ?getModeInfo@SurfaceBase@vgui@@UAE_NHAAH00@Z 1004cb68 f   vgui:vgui.dll
 0001:0004bb6e       ?getModeInfoCount@SurfaceBase@vgui@@UAEHXZ 1004cb6e f   vgui:vgui.dll
 0001:0004bb74       ?resetModeInfo@SurfaceBase@vgui@@UAEXXZ 1004cb74 f   vgui:vgui.dll
 0001:0004bb7a       ?requestSwap@SurfaceBase@vgui@@UAEXXZ 1004cb7a f   vgui:vgui.dll
 0001:0004bb80       ?getPanel@SurfaceBase@vgui@@UAEPAVPanel@2@XZ 1004cb80 f   vgui:vgui.dll
 0001:0004bb86       ??0LineBorder@vgui@@QAE@VColor@1@@Z 1004cb86 f   vgui:vgui.dll
 0001:0004bb8c       ??0FileInputStream@vgui@@QAE@PBD_N@Z 1004cb8c f   vgui:vgui.dll
 0001:0004bb92       ??0TextImage@vgui@@QAE@PBD@Z 1004cb92 f   vgui:vgui.dll
 0001:0004bb98       ??0Color@vgui@@QAE@XZ      1004cb98 f   vgui:vgui.dll
 0001:0004bb9e       ??0Font@vgui@@QAE@PBDPAXHHHMH_N222@Z 1004cb9e f   vgui:vgui.dll
 0001:0004bba4       ??0Image@vgui@@QAE@XZ      1004cba4 f   vgui:vgui.dll
 0001:0004bbaa       ?getInstance@App@vgui@@SAPAV12@XZ 1004cbaa f   vgui:vgui.dll
 0001:0004bbb0       ?recreateContext@Surface@vgui@@MAE_NXZ 1004cbb0 f   vgui:vgui.dll
 0001:0004bbb6       ?createPlat@Surface@vgui@@MAE_NXZ 1004cbb6 f   vgui:vgui.dll
 0001:0004bbbc       ?applyChanges@Surface@vgui@@MAEXXZ 1004cbbc f   vgui:vgui.dll
 0001:0004bbc2       ?popMakeCurrent@Surface@vgui@@MAEXPAVPanel@2@@Z 1004cbc2 f   vgui:vgui.dll
 0001:0004bbc8       ?pushMakeCurrent@Surface@vgui@@MAEXPAVPanel@2@_N@Z 1004cbc8 f   vgui:vgui.dll
 0001:0004bbce       ?swapBuffers@Surface@vgui@@MAEXXZ 1004cbce f   vgui:vgui.dll
 0001:0004bbd4       ?setCursor@Surface@vgui@@MAEXPAVCursor@2@@Z 1004cbd4 f   vgui:vgui.dll
 0001:0004bbda       ?enableMouseCapture@Surface@vgui@@MAEX_N@Z 1004cbda f   vgui:vgui.dll
 0001:0004bbe0       ?invalidate@Surface@vgui@@MAEXPAVPanel@2@@Z 1004cbe0 f   vgui:vgui.dll
 0001:0004bbe6       ?drawTexturedRect@Surface@vgui@@MAEXHHHH@Z 1004cbe6 f   vgui:vgui.dll
 0001:0004bbec       ?drawSetTexture@Surface@vgui@@MAEXH@Z 1004cbec f   vgui:vgui.dll
 0001:0004bbf2       ?drawSetTextureRGBA@Surface@vgui@@MAEXHPBDHH@Z 1004cbf2 f   vgui:vgui.dll
 0001:0004bbf8       ?drawPrintText@Surface@vgui@@MAEXPBDH@Z 1004cbf8 f   vgui:vgui.dll
 0001:0004bbfe       ?drawSetTextPos@Surface@vgui@@MAEXHH@Z 1004cbfe f   vgui:vgui.dll
 0001:0004bc04       ?drawSetTextColor@Surface@vgui@@MAEXHHHH@Z 1004cc04 f   vgui:vgui.dll
 0001:0004bc0a       ?drawSetTextFont@Surface@vgui@@MAEXPAVFont@2@@Z 1004cc0a f   vgui:vgui.dll
 0001:0004bc10       ?drawOutlinedRect@Surface@vgui@@MAEXHHHH@Z 1004cc10 f   vgui:vgui.dll
 0001:0004bc16       ?drawFilledRect@Surface@vgui@@MAEXHHHH@Z 1004cc16 f   vgui:vgui.dll
 0001:0004bc1c       ?drawSetColor@Surface@vgui@@MAEXHHHH@Z 1004cc1c f   vgui:vgui.dll
 0001:0004bc22       ?createNewTextureID@Surface@vgui@@MAEHXZ 1004cc22 f   vgui:vgui.dll
 0001:0004bc28       ?isWithin@Surface@vgui@@UAE_NHH@Z 1004cc28 f   vgui:vgui.dll
 0001:0004bc2e       ?hasFocus@Surface@vgui@@UAE_NXZ 1004cc2e f   vgui:vgui.dll
 0001:0004bc34       ?createPopup@Surface@vgui@@UAEXPAVPanel@2@@Z 1004cc34 f   vgui:vgui.dll
 0001:0004bc3a       ?setAsTopMost@Surface@vgui@@UAEX_N@Z 1004cc3a f   vgui:vgui.dll
 0001:0004bc40       ?setWindowedMode@Surface@vgui@@UAEXXZ 1004cc40 f   vgui:vgui.dll
 0001:0004bc46       ?setFullscreenMode@Surface@vgui@@UAE_NHHH@Z 1004cc46 f   vgui:vgui.dll
 0001:0004bc4c       ?setTitle@Surface@vgui@@UAEXPBD@Z 1004cc4c f   vgui:vgui.dll
 0001:0004bc52       ?getModeInfoCount@Surface@vgui@@UAEHXZ 1004cc52 f   vgui:vgui.dll
 0001:0004bc58       ??1SurfaceBase@vgui@@IAE@XZ 1004cc58 f   vgui:vgui.dll
 0001:0004bc5e       ?paintBackground@MenuSeparator@vgui@@MAEXXZ 1004cc5e f   vgui:vgui.dll
 0001:0004bc64       ?getCursor@BuildGroup@vgui@@MAEPAVCursor@2@PAVPanel@2@@Z 1004cc64 f   vgui:vgui.dll
 0001:0004bc6a       ?keyTyped@BuildGroup@vgui@@MAEXW4KeyCode@2@PAVPanel@2@@Z 1004cc6a f   vgui:vgui.dll
 0001:0004bc70       ?mouseDoublePressed@BuildGroup@vgui@@MAEXW4MouseCode@2@PAVPanel@2@@Z 1004cc70 f   vgui:vgui.dll
 0001:0004bc76       ?mouseReleased@BuildGroup@vgui@@MAEXW4MouseCode@2@PAVPanel@2@@Z 1004cc76 f   vgui:vgui.dll
 0001:0004bc7c       ?mousePressed@BuildGroup@vgui@@MAEXW4MouseCode@2@PAVPanel@2@@Z 1004cc7c f   vgui:vgui.dll
 0001:0004bc82       ?cursorMoved@BuildGroup@vgui@@MAEXHHPAVPanel@2@@Z 1004cc82 f   vgui:vgui.dll
 0001:0004bc88       ?panelAdded@BuildGroup@vgui@@MAEXPAVPanel@2@PBD@Z 1004cc88 f   vgui:vgui.dll
 0001:0004bc8e       ?fireCurrentPanelChangeSignal@BuildGroup@vgui@@EAEXXZ 1004cc8e f   vgui:vgui.dll
 0001:0004bc94       ?applySnap@BuildGroup@vgui@@EAEXPAVPanel@2@@Z 1004cc94 f   vgui:vgui.dll
 0001:0004bc9a       ?copyPropertiesToClipboard@BuildGroup@vgui@@UAEXXZ 1004cc9a f   vgui:vgui.dll
 0001:0004bca0       ?getCurrentPanel@BuildGroup@vgui@@UAEPAVPanel@2@XZ 1004cca0 f   vgui:vgui.dll
 0001:0004bca6       ?addCurrentPanelChangeSignal@BuildGroup@vgui@@UAEXPAVChangeSignal@2@@Z 1004cca6 f   vgui:vgui.dll
 0001:0004bcac       ?isEnabled@BuildGroup@vgui@@UAE_NXZ 1004ccac f   vgui:vgui.dll
 0001:0004bcb2       ?setEnabled@BuildGroup@vgui@@UAEX_N@Z 1004ccb2 f   vgui:vgui.dll
 0001:0004bcb8       _htons@4                   1004ccb8 f   wsock32:WSOCK32.dll
 0001:0004bcbe       _AVIStreamGetFrame@8       1004ccbe f   vfw32:AVIFIL32.dll
 0001:0004bcc4       _AVIStreamSampleToTime@8   1004ccc4 f   vfw32:AVIFIL32.dll
 0001:0004bcca       _AVIStreamLength@4         1004ccca f   vfw32:AVIFIL32.dll
 0001:0004bcd0       _AVIFileRelease@4          1004ccd0 f   vfw32:AVIFIL32.dll
 0001:0004bcd6       _AVIStreamRelease@4        1004ccd6 f   vfw32:AVIFIL32.dll
 0001:0004bcdc       _AVIStreamGetFrameOpen@8   1004ccdc f   vfw32:AVIFIL32.dll
 0001:0004bce2       _AVIFileGetStream@16       1004cce2 f   vfw32:AVIFIL32.dll
 0001:0004bce8       _AVIFileOpenA@16           1004cce8 f   vfw32:AVIFIL32.dll
 0001:0004bcee       _AVIStreamGetFrameClose@4  1004ccee f   vfw32:AVIFIL32.dll
 0001:0004bcf4       _AVIStreamTimeToSample@8   1004ccf4 f   vfw32:AVIFIL32.dll
 0001:0004bcfa       _strcpy                    1004ccfa f   MSVCRT:MSVCRT.dll
 0001:0004bd00       _sprintf                   1004cd00 f   MSVCRT:MSVCRT.dll
 0001:0004bd06       __purecall                 1004cd06 f   MSVCRT:MSVCRT.dll
 0001:0004bd0c       __ftol                     1004cd0c f   MSVCRT:MSVCRT.dll
 0001:0004bd12       ??3@YAXPAX@Z               1004cd12 f   MSVCRT:MSVCRT.dll
 0001:0004bd18       _memset                    1004cd18 f   MSVCRT:MSVCRT.dll
 0001:0004bd1e       _exit                      1004cd1e f   MSVCRT:MSVCRT.dll
 0001:0004bd24       ??2@YAPAXI@Z               1004cd24 f   MSVCRT:MSVCRT.dll
 0001:0004bd2a       _vsprintf                  1004cd2a f   MSVCRT:MSVCRT.dll
 0001:0004bd30       _strcmp                    1004cd30 f   MSVCRT:MSVCRT.dll
 0001:0004bd36       _fclose                    1004cd36 f   MSVCRT:MSVCRT.dll
 0001:0004bd3c       _ftell                     1004cd3c f   MSVCRT:MSVCRT.dll
 0001:0004bd42       _fseek                     1004cd42 f   MSVCRT:MSVCRT.dll
 0001:0004bd48       _fread                     1004cd48 f   MSVCRT:MSVCRT.dll
 0001:0004bd4e       _fopen                     1004cd4e f   MSVCRT:MSVCRT.dll
 0001:0004bd54       __snprintf                 1004cd54 f   MSVCRT:MSVCRT.dll
 0001:0004bd5a       _fwrite                    1004cd5a f   MSVCRT:MSVCRT.dll
 0001:0004bd60       _memcmp                    1004cd60 f   MSVCRT:MSVCRT.dll
 0001:0004bd66       _memcpy                    1004cd66 f   MSVCRT:MSVCRT.dll
 0001:0004bd6c       __onexit                   1004cd6c f   MSVCRT:atonexit.obj
 0001:0004bd98       _atexit                    1004cd98 f   MSVCRT:atonexit.obj
 0001:0004bdaa       ___CxxFrameHandler         1004cdaa f   MSVCRT:MSVCRT.dll
 0001:0004bdb0       __EH_prolog                1004cdb0 f   MSVCRT:ehprolog.obj
 0001:0004bdd0       _atof                      1004cdd0 f   MSVCRT:MSVCRT.dll
 0001:0004bde0       __chkstk                   1004cde0 f   MSVCRT:chkstk.obj
 0001:0004bde0       __alloca_probe             1004cde0 f   MSVCRT:chkstk.obj
 0001:0004be10       _strcat                    1004ce10 f   MSVCRT:MSVCRT.dll
 0001:0004be16       _fmod                      1004ce16 f   MSVCRT:MSVCRT.dll
 0001:0004be1c       _fgetc                     1004ce1c f   MSVCRT:MSVCRT.dll
 0001:0004be22       _getc                      1004ce22 f   MSVCRT:MSVCRT.dll
 0001:0004be28       _malloc                    1004ce28 f   MSVCRT:MSVCRT.dll
 0001:0004be2e       _free                      1004ce2e f   MSVCRT:MSVCRT.dll
 0001:0004be34       _sin                       1004ce34 f   MSVCRT:MSVCRT.dll
 0001:0004be3a       _cos                       1004ce3a f   MSVCRT:MSVCRT.dll
 0001:0004be40       _strncmp                   1004ce40 f   MSVCRT:MSVCRT.dll
 0001:0004be46       _strlen                    1004ce46 f   MSVCRT:MSVCRT.dll
 0001:0004be4c       __vsnprintf                1004ce4c f   MSVCRT:MSVCRT.dll
 0001:0004be52       _atoi                      1004ce52 f   MSVCRT:MSVCRT.dll
 0001:0004be58       _strncpy                   1004ce58 f   MSVCRT:MSVCRT.dll
 0001:0004be5e       _sscanf                    1004ce5e f   MSVCRT:MSVCRT.dll
 0001:0004be64       ??_L@YGXPAXIHP6EX0@Z1@Z    1004ce64 f   MSVCRT:ehvecctr.obj
 0001:0004bee6       ??_M@YGXPAXIHP6EX0@Z@Z     1004cee6 f   MSVCRT:ehvecdtr.obj
 0001:0004bf66       ?__ArrayUnwind@@YGXPAXIHP6EX0@Z@Z 1004cf66 f   MSVCRT:ehvecdtr.obj
 0001:0004bfda       __getdcwd                  1004cfda f   MSVCRT:MSVCRT.dll
 0001:0004bfe0       __getdrive                 1004cfe0 f   MSVCRT:MSVCRT.dll
 0001:0004bfe6       _isspace                   1004cfe6 f   MSVCRT:MSVCRT.dll
 0001:0004bfec       ??0type_info@@AAE@ABV0@@Z  1004cfec f   MSVCRT:ti_inst.obj
 0001:0004bff7       ??_Etype_info@@UAEPAXI@Z   1004cff7 f i MSVCRT:ti_inst.obj
 0001:0004bff7       ??_Gtype_info@@UAEPAXI@Z   1004cff7 f i MSVCRT:ti_inst.obj
 0001:0004c013       ??4type_info@@AAEAAV0@ABV0@@Z 1004d013 f   MSVCRT:ti_inst.obj
 0001:0004c018       _memmove                   1004d018 f   MSVCRT:MSVCRT.dll
 0001:0004c01e       _strchr                    1004d01e f   MSVCRT:MSVCRT.dll
 0001:0004c024       _strncat                   1004d024 f   MSVCRT:MSVCRT.dll
 0001:0004c02a       _atan2                     1004d02a f   MSVCRT:MSVCRT.dll
 0001:0004c030       _sqrt                      1004d030 f   MSVCRT:MSVCRT.dll
 0001:0004c036       _strstr                    1004d036 f   MSVCRT:MSVCRT.dll
 0001:0004c03c       _fabs                      1004d03c f   MSVCRT:MSVCRT.dll
 0001:0004c042       __filelength               1004d042 f   MSVCRT:MSVCRT.dll
 0001:0004c048       _calloc                    1004d048 f   MSVCRT:MSVCRT.dll
 0001:0004c04e       _fscanf                    1004d04e f   MSVCRT:MSVCRT.dll
 0001:0004c054       _fprintf                   1004d054 f   MSVCRT:MSVCRT.dll
 0001:0004c05a       _abs                       1004d05a f   MSVCRT:MSVCRT.dll
 0001:0004c060       _printf                    1004d060 f   MSVCRT:MSVCRT.dll
 0001:0004c066       _tolower                   1004d066 f   MSVCRT:MSVCRT.dll
 0001:0004c06c       _srand                     1004d06c f   MSVCRT:MSVCRT.dll
 0001:0004c072       _time                      1004d072 f   MSVCRT:MSVCRT.dll
 0001:0004c078       _rand                      1004d078 f   MSVCRT:MSVCRT.dll
 0001:0004c07e       _qsort                     1004d07e f   MSVCRT:MSVCRT.dll
 0001:0004c084       _isalnum                   1004d084 f   MSVCRT:MSVCRT.dll
 0001:0004c08a       _pow                       1004d08a f   MSVCRT:MSVCRT.dll
 0001:0004c090       _acos                      1004d090 f   MSVCRT:MSVCRT.dll
 0001:0004c096       _toupper                   1004d096 f   MSVCRT:MSVCRT.dll
 0001:0004c09c       __isctype                  1004d09c f   MSVCRT:MSVCRT.dll
 0001:0004c0a2       __CRT_INIT@12              1004d0a2 f   MSVCRT:crtdll.obj
 0001:0004c14d       __DllMainCRTStartup@12     1004d14d f   MSVCRT:crtdll.obj
 0001:0004c1ea       ___dllonexit               1004d1ea f   MSVCRT:MSVCRT.dll
 0001:0004c1f0       __except_handler3          1004d1f0 f   MSVCRT:MSVCRT.dll
 0001:0004c1f6       ?terminate@@YAXXZ          1004d1f6 f   MSVCRT:MSVCRT.dll
 0001:0004c1fc       ??1type_info@@UAE@XZ       1004d1fc f   MSVCRT:MSVCRT.dll
 0001:0004c202       __initterm                 1004d202 f   MSVCRT:MSVCRT.dll
 0001:0004c208       _DllMain@12                1004d208 f   MSVCRT:dllmain.obj
 0001:0004c230       _DisableThreadLibraryCalls@4 1004d230 f   kernel32:KERNEL32.dll
 0001:0004c236       __strupr                   1004d236 f   MSVCRT:MSVCRT.dll
 0001:0004c23c       __stricmp                  1004d23c f   MSVCRT:MSVCRT.dll
 0001:0004c242       __strnicmp                 1004d242 f   MSVCRT:MSVCRT.dll
 0001:0004c248       __strcmpi                  1004d248 f   MSVCRT:MSVCRT.dll
 0002:0000001c       __real@4@00000000000000000000 1004f01c     ev_hldm.obj
 0002:00000020       __real@4@3ffecccccd0000000000 1004f020     ev_hldm.obj
 0002:00000024       __real@4@40038000000000000000 1004f024     ev_hldm.obj
 0002:00000028       __real@8@3fff8000000000000000 1004f028     ev_hldm.obj
 0002:00000030       __real@4@3fff8000000000000000 1004f030     ev_hldm.obj
 0002:00000034       __real@4@bffe8000000000000000 1004f034     ev_hldm.obj
 0002:00000038       __real@4@3ffe8000000000000000 1004f038     ev_hldm.obj
 0002:0000003c       __real@4@400c8000000000000000 1004f03c     ev_hldm.obj
 0002:00000040       __real@4@3ffeeb851f0000000000 1004f040     ev_hldm.obj
 0002:00000044       __real@4@4003a000000000000000 1004f044     ev_hldm.obj
 0002:00000048       __real@4@c002c000000000000000 1004f048     ev_hldm.obj
 0002:0000004c       __real@4@40018000000000000000 1004f04c     ev_hldm.obj
 0002:00000050       __real@4@c0008000000000000000 1004f050     ev_hldm.obj
 0002:00000054       ??_7Scheme@vgui@@6B@       1004f054     ev_hldm.obj
 0002:0000006c       __real@4@3ffbb280f10000000000 1004f06c     ev_hldm.obj
 0002:00000070       __real@4@400a8000000000000000 1004f070     ev_hldm.obj
 0002:00000074       __real@4@3ffcb1d14e0000000000 1004f074     ev_hldm.obj
 0002:00000078       __real@4@3ffab2aae30000000000 1004f078     ev_hldm.obj
 0002:0000007c       __real@4@3ffefae1480000000000 1004f07c     ev_hldm.obj
 0002:00000080       __real@4@40048000000000000000 1004f080     ev_hldm.obj
 0002:00000084       __real@4@4001c000000000000000 1004f084     ev_hldm.obj
 0002:00000088       __real@4@c002a000000000000000 1004f088     ev_hldm.obj
 0002:0000008c       ??_7Color@vgui@@6B@        1004f08c     ev_hldm.obj
 0002:000000a4       ??_7Panel@vgui@@6B@        1004f0a4     ev_hldm.obj
 0002:000002a0       __real@4@3ffef333330000000000 1004f2a0     ev_hldm.obj
 0002:000002a4       __real@4@c001a000000000000000 1004f2a4     ev_hldm.obj
 0002:000002a8       ??_7Label@vgui@@6B@        1004f2a8     ev_hldm.obj
 0002:000004d4       ??_7Image@vgui@@6B@        1004f4d4     ev_hldm.obj
 0002:00000534       __real@4@40008000000000000000 1004f534     ev_hldm.obj
 0002:00000538       ??_7Border@vgui@@6B@       1004f538     ev_hldm.obj
 0002:000005a0       ??_7LineBorder@vgui@@6B@   1004f5a0     ev_hldm.obj
 0002:0000060c       ??_7ImagePanel@vgui@@6B@   1004f60c     ev_hldm.obj
 0002:0000080c       ??_7Bitmap@vgui@@6B@       1004f80c     ev_hldm.obj
 0002:00000870       ??_7BitmapTGA@vgui@@6B@    1004f870     ev_hldm.obj
 0002:000008d8       ??_7InputSignal@vgui@@6B@  1004f8d8     ev_hldm.obj
 0002:00000904       ??_7Button@vgui@@6B@       1004f904     ev_hldm.obj
 0002:00000b64       __real@4@3ffee666660000000000 1004fb64     ev_hldm.obj
 0002:00000b68       __real@4@3ffe99999a0000000000 1004fb68     ev_hldm.obj
 0002:00000b6c       __real@4@3ffec8c8c90000000000 1004fb6c     ev_hldm.obj
 0002:00000b70       __real@4@3ffd99999a0000000000 1004fb70     ev_hldm.obj
 0002:00000b78       __real@8@3ffd9999999999999800 1004fb78     ev_hldm.obj
 0002:00000b80       __real@4@4006c800000000000000 1004fb80     ev_hldm.obj
 0002:00000b84       __real@4@4004a000000000000000 1004fb84     ev_hldm.obj
 0002:00000b88       __real@8@3ff8a3d70a3d70a3d800 1004fb88     ev_hldm.obj
 0002:00000b90       __real@4@4005c800000000000000 1004fb90     ev_hldm.obj
 0002:00000b94       __real@4@3ffccccccd0000000000 1004fb94     ev_hldm.obj
 0002:00000b98       __real@8@3ff78080808080808000 1004fb98     ev_hldm.obj
 0002:00000ba0       __real@8@3ffaccccccccccccd000 1004fba0     ev_hldm.obj
 0002:00000ba8       __real@4@40028000000000000000 1004fba8     ev_hldm.obj
 0002:00000bac       __real@4@3ffbcccccd0000000000 1004fbac     ev_hldm.obj
 0002:00000bb0       __real@4@4006ff00000000000000 1004fbb0     ev_hldm.obj
 0002:00000bb8       __real@8@4000a000000000000000 1004fbb8     ev_hldm.obj
 0002:00000bc0       __real@8@40068000000000000000 1004fbc0     ev_hldm.obj
 0002:00000bc8       __real@4@4002a000000000000000 1004fbc8     ev_hldm.obj
 0002:00000bd0       __real@8@3ffe8000000000000000 1004fbd0     ev_hldm.obj
 0002:00000bd8       __real@8@3ff6a3d70a3d70a3d800 1004fbd8     ev_hldm.obj
 0002:00000be0       __real@4@4001a000000000000000 1004fbe0     ev_hldm.obj
 0002:00000be4       __real@4@3ffeb333330000000000 1004fbe4     ev_hldm.obj
 0002:00000be8       __real@4@3ffba3d70a0000000000 1004fbe8     ev_hldm.obj
 0002:00000bec       __real@4@4000a000000000000000 1004fbec     ev_hldm.obj
 0002:00000bf0       __real@4@400fc34f800000000000 1004fbf0     ev_hldm.obj
 0002:00000bf4       __real@4@4000e000000000000000 1004fbf4     ev_hldm.obj
 0002:00000bf8       __real@4@3ffb99999a0000000000 1004fbf8     ev_hldm.obj
 0002:00000bfc       __real@4@3ffc99999a0000000000 1004fbfc     ev_hldm.obj
 0002:00000c00       __real@4@4003cc00000000000000 1004fc00     ev_hldm.obj
 0002:00000c04       __real@4@40068000000000000000 1004fc04     ev_hldm.obj
 0002:00000c08       __real@8@3ffd8000000000000000 1004fc08     ev_hldm.obj
 0002:00000c10       __real@4@40058000000000000000 1004fc10     ev_hldm.obj
 0002:00000c14       __real@4@4002d000000000000000 1004fc14     ev_hldm.obj
 0002:00000c18       __real@4@4002b000000000000000 1004fc18     ev_hldm.obj
 0002:00000c20       __real@8@4002a000000000000000 1004fc20     ev_hldm.obj
 0002:00000c28       __real@8@3ff9ccccccccccccd000 1004fc28     ev_hldm.obj
 0002:00000c30       ??_7CBasePlayer@@6B@       1004fc30     hl_weapons.obj
 0002:00000e3c       ??_7CBaseMonster@@6B@      1004fe3c     hl_weapons.obj
 0002:00001030       __real@4@4000c000000000000000 10050030     hl_weapons.obj
 0002:00001038       __real@8@00000000000000000000 10050038     hl_weapons.obj
 0002:00001040       __real@4@4008c400000000000000 10050040     hl_weapons.obj
 0002:00001044       __real@4@3ffec000000000000000 10050044     hl_weapons.obj
 0002:00001048       __real@4@3ffd8000000000000000 10050048     hl_weapons.obj
 0002:0000104c       __real@4@3fff8ccccd0000000000 1005004c     hl_weapons.obj
 0002:00001050       __real@4@4003f000000000000000 10050050     hl_weapons.obj
 0002:00001054       ??_7CVoiceStatus@@6BCDefaultInputSignal@vgui@@@ 10050054     voice_status.obj
 0002:00001080       ??_7CVoiceStatus@@6BCHudBase@@@ 10050080     voice_status.obj
 0002:000010a0       ??_7CDefaultInputSignal@vgui@@6B@ 100500a0     voice_status.obj
 0002:000010cc       ??_7CHudBase@@6B@          100500cc     voice_status.obj
 0002:000010e8       __real@8@3ffe9999999999999800 100500e8     voice_status.obj
 0002:000010f0       ??_7ActionSignal@vgui@@6B@ 100500f0     voice_status.obj
 0002:000010f4       ??_7TextImage@vgui@@6B@    100500f4     voice_status.obj
 0002:00001174       ??_7CVoiceTweakOKButton@@6B@ 10050174     voice_vgui_tweakdlg.obj
 0002:00001178       __real@4@3ff8a3d70a3d70a3d800 10050178     voice_vgui_tweakdlg.obj
 0002:0000117c       ??_7CVoiceVGUITweakDlg@@6BICheckButton2Handler@vgui@@@ 1005017c     voice_vgui_tweakdlg.obj
 0002:00001180       ??_7CVoiceVGUITweakDlg@@6BCMenuPanel@@@ 10050180     voice_vgui_tweakdlg.obj
 0002:00001390       ??_7ICheckButton2Handler@vgui@@6B@ 10050390     voice_vgui_tweakdlg.obj
 0002:00001394       ??_7CMenuPanel@@6B@        10050394     voice_vgui_tweakdlg.obj
 0002:000015a4       ??_7Frame@vgui@@6B@        100505a4     voice_vgui_tweakdlg.obj
 0002:000017e4       ??_7TextPanel@vgui@@6B@    100507e4     voice_vgui_tweakdlg.obj
 0002:000019f0       ??_7InputStream@vgui@@6B@  100509f0     voice_vgui_tweakdlg.obj
 0002:00001a0c       ??_7FileInputStream@vgui@@6B@ 10050a0c     voice_vgui_tweakdlg.obj
 0002:00001a2c       ??_7DesktopIcon@vgui@@6B@  10050a2c     voice_vgui_tweakdlg.obj
 0002:00001c38       ??_7Cursor@vgui@@6B@       10050c38     voice_vgui_tweakdlg.obj
 0002:00001c48       ??_7App@vgui@@6B@          10050c48     voice_vgui_tweakdlg.obj
 0002:00001d24       ??_7MiniApp@vgui@@6B@      10050d24     voice_vgui_tweakdlg.obj
 0002:00001d30       ??_7ScrollPanel@vgui@@6B@  10050d30     voice_vgui_tweakdlg.obj
 0002:00001f58       ??_7ScrollBar@vgui@@6B@    10050f58     voice_vgui_tweakdlg.obj
 0002:00002194       ??_7Slider@vgui@@6B@       10051194     voice_vgui_tweakdlg.obj
 0002:000023d4       ??_7Font@vgui@@6B@         100513d4     voice_vgui_tweakdlg.obj
 0002:000023ec       ??_7CImageButton@@6B@      100513ec     rally_vgui.obj
 0002:00002658       ??_7CManuImageButton@@6B@  10051658     rally_vgui.obj
 0002:000028c4       ??_7CRaceImageButton@@6B@  100518c4     rally_vgui.obj
 0002:00002b30       ??_7MemoryInputStream@@6B@ 10051b30     rally_vgui.obj
 0002:00002b4c       ??_7CClassImageButton@@6B@ 10051b4c     rally_vgui.obj
 0002:00002db8       __real@8@3ffbccccccccccccd000 10051db8     rally_vgui.obj
 0002:00002dc0       ??_7CPartsListButton@@6B@  10051dc0     rally_vgui.obj
 0002:00003028       ??_7CProgressBar@@6B@      10052028     rally_vgui.obj
 0002:00003224       ??_7C3DModelPanel@@6B@     10052224     rally_vgui.obj
 0002:00003420       ??_7CCustResImageLabel@@6B@ 10052420     rally_vgui.obj
 0002:00003654       ??_7CRallySlider@@6B@      10052654     rally_vgui.obj
 0002:000038a4       ??_7CImageCheckButton@@6B@ 100528a4     rally_vgui.obj
 0002:00003b04       ??_7CAnimFrame@@6B@        10052b04     rally_vgui.obj
 0002:00003b68       ??_7CAviImage@@6B@         10052b68     rally_vgui.obj
 0002:00003d9c       __real@4@4008fa00000000000000 10052d9c     rally_vgui.obj
 0002:00003da0       ??_7Slider2@vgui@@6B@      10052da0     rally_vgui.obj
 0002:00003ff0       ??_7ToggleButton@vgui@@6B@ 10052ff0     rally_vgui.obj
 0002:00004270       __real@4@4004c800000000000000 10053270     rally_vguifx.obj
 0002:00004278       __real@8@3ff7b60b60b60b60b800 10053278     rally_vguifx.obj
 0002:00004280       __real@8@4000c90fdaa22168c000 10053280     rally_vguifx.obj
 0002:00004288       __real@4@4008f9c0000000000000 10053288     rally_vguifx.obj
 0002:0000428c       __real@4@4002c000000000000000 1005328c     rally_vguifx.obj
 0002:00004290       __real@4@c003d000000000000000 10053290     rally_vguifx.obj
 0002:00004294       __real@4@4003d000000000000000 10053294     rally_vguifx.obj
 0002:00004298       __real@4@c0038000000000000000 10053298     rally_vguifx.obj
 0002:0000429c       __real@4@c003f000000000000000 1005329c     rally_vguifx.obj
 0002:000042a0       __real@4@c0048000000000000000 100532a0     rally_vguifx.obj
 0002:000042a4       __real@4@c005a000000000000000 100532a4     rally_vguifx.obj
 0002:000042a8       __real@4@c004c800000000000000 100532a8     rally_vguifx.obj
 0002:000042ac       __real@4@4005a000000000000000 100532ac     rally_vguifx.obj
 0002:000042b0       __real@4@4005dc00000000000000 100532b0     rally_vguifx.obj
 0002:000042b4       __real@4@c0018000000000000000 100532b4     rally_vguifx.obj
 0002:000042b8       __real@8@c006b400000000000000 100532b8     rally_vguifx.obj
 0002:000042c0       __real@8@4006b400000000000000 100532c0     rally_vguifx.obj
 0002:000042c8       __real@8@4007b400000000000000 100532c8     rally_vguifx.obj
 0002:000042d0       __real@4@c006b400000000000000 100532d0     rally_vguifx.obj
 0002:000042d4       __real@4@4006b400000000000000 100532d4     rally_vguifx.obj
 0002:000042d8       __real@4@4007b400000000000000 100532d8     rally_vguifx.obj
 0002:000042dc       ??_7CCheckButton2@vgui@@6BPanel@1@@ 100532dc     vgui_checkbutton2.obj
 0002:000044d8       ??_7CCheckButton2@vgui@@6BCDefaultInputSignal@1@@ 100534d8     vgui_checkbutton2.obj
 0002:00004504       __real@4@4004c000000000000000 10053504     vgui_ClassMenu.obj
 0002:00004508       __real@4@40059800000000000000 10053508     vgui_ClassMenu.obj
 0002:0000450c       __real@4@4005a400000000000000 1005350c     vgui_ClassMenu.obj
 0002:00004510       __real@4@4004e800000000000000 10053510     vgui_ClassMenu.obj
 0002:00004514       __real@4@40048800000000000000 10053514     vgui_ClassMenu.obj
 0002:00004518       __real@4@4005d600000000000000 10053518     vgui_ClassMenu.obj
 0002:0000451c       __real@4@4005f000000000000000 1005351c     vgui_ClassMenu.obj
 0002:00004520       __real@4@40078200000000000000 10053520     vgui_ClassMenu.obj
 0002:00004524       __real@4@4007bb00000000000000 10053524     vgui_ClassMenu.obj
 0002:00004528       __real@4@4006b000000000000000 10053528     vgui_ClassMenu.obj
 0002:0000452c       __real@4@40088980000000000000 1005352c     vgui_ClassMenu.obj
 0002:00004530       ??_7CTransparentPanel@@6B@ 10053530     vgui_ClassMenu.obj
 0002:0000472c       __real@4@4005f800000000000000 1005372c     vgui_ClassMenu.obj
 0002:00004730       __real@4@4006e600000000000000 10053730     vgui_ClassMenu.obj
 0002:00004734       __real@4@3ff5ccccccccccccd000 10053734     vgui_ClassMenu.obj
 0002:00004738       __real@4@3ff68888888888888800 10053738     vgui_ClassMenu.obj
 0002:0000473c       ??_7CClassMenuPanel@@6B@   1005373c     vgui_ClassMenu.obj
 0002:00004954       ??_7CMenuHandler_TextWindow@@6B@ 10053954     vgui_ClassMenu.obj
 0002:00004958       ??_7CHandler_MenuButtonOver@@6B@ 10053958     vgui_ClassMenu.obj
 0002:00004984       __real@4@4006fa00000000000000 10053984     vgui_ClassMenu.obj
 0002:00004988       __real@4@40068c00000000000000 10053988     vgui_ClassMenu.obj
 0002:0000498c       __real@4@40049000000000000000 1005398c     vgui_ClassMenu.obj
 0002:00004990       __real@4@4004b800000000000000 10053990     vgui_ClassMenu.obj
 0002:00004994       ??_7CMenuHandler_RallySound@@6B@ 10053994     vgui_ClassMenu.obj
 0002:00004998       ??_7CMenuHandler_RallyCommand@@6B@ 10053998     vgui_ClassMenu.obj
 0002:0000499c       __real@4@4007aa00000000000000 1005399c     vgui_ClassMenu.obj
 0002:000049a0       __real@4@4008a000000000000000 100539a0     vgui_ClassMenu.obj
 0002:000049a4       __real@4@40078980000000000000 100539a4     vgui_ClassMenu.obj
 0002:000049a8       __real@4@4006a000000000000000 100539a8     vgui_ClassMenu.obj
 0002:000049ac       __real@4@4007f000000000000000 100539ac     vgui_ClassMenu.obj
 0002:000049b0       ??_7Handler@?%E:\_hlr_code\cl_dll\vgui_ConsolePanel.cpp756510431@@6B@ 100539b0     vgui_ConsolePanel.obj
 0002:000049b4       ??_7ConsolePanel@@6B@      100539b4     vgui_ConsolePanel.obj
 0002:00004bc0       ??_7TextGrid@vgui@@6B@     10053bc0     vgui_ConsolePanel.obj
 0002:00004dd0       ??_7TextEntry@vgui@@6BInputSignal@1@@ 10053dd0     vgui_ConsolePanel.obj
 0002:00004dfc       ??_7TextEntry@vgui@@6BPanel@1@@ 10053dfc     vgui_ConsolePanel.obj
 0002:00005058       ??_7EtchedBorder@vgui@@6B@ 10054058     vgui_ConsolePanel.obj
 0002:000050c0       ??_7LoweredBorder@vgui@@6B@ 100540c0     vgui_ConsolePanel.obj
 0002:00005128       ??_7ControlConfigPanel@@6B@ 10054128     vgui_ControlConfigPanel.obj
 0002:00005324       ??_7FooTablePanel@?%E:\_hlr_code\cl_dll\vgui_ControlConfigPanel.cpp2412129099@@6B@ 10054324     vgui_ControlConfigPanel.obj
 0002:00005574       ??_7HeaderPanel@vgui@@6B@  10054574     vgui_ControlConfigPanel.obj
 0002:00005794       ??_7TablePanel@vgui@@6B@   10054794     vgui_ControlConfigPanel.obj
 0002:000059e4       ??_7DataInputStream@vgui@@6BInputStream@1@@ 100549e4     vgui_ControlConfigPanel.obj
 0002:00005a00       ??_7DataInputStream@vgui@@6B01@@ 10054a00     vgui_ControlConfigPanel.obj
 0002:00005a30       ??_8DataInputStream@vgui@@7B@ 10054a30     vgui_ControlConfigPanel.obj
 0002:00005a38       ??_7CommandButton@@6B@     10054a38     vgui_CustomObjects.obj
 0002:00005ca0       ??_7CHandler_CommandButtonHighlight@@6B@ 10054ca0     vgui_CustomObjects.obj
 0002:00005ccc       ??_7CImageLabel@@6B@       10054ccc     vgui_CustomObjects.obj
 0002:00005f00       ??_7CTFScrollButton@@6B@   10054f00     vgui_CustomObjects.obj
 0002:00006168       ??_7CTFSlider@@6B@         10055168     vgui_CustomObjects.obj
 0002:000063a8       ??_7CTFScrollPanel@@6B@    100553a8     vgui_CustomObjects.obj
 0002:000065d0       ??_7CGrid@vgui@@6B@        100555d0     vgui_grid.obj
 0002:000067d0       ??_7Layout@vgui@@6B@       100557d0     vgui_int.obj
 0002:000067d4       ??_7BorderLayout@vgui@@6B@ 100557d4     vgui_int.obj
 0002:000067dc       ??_7SurfaceBase@vgui@@6B@  100557dc     vgui_int.obj
 0002:00006864       ??_7CListBox@vgui@@6B@     10055864     vgui_listbox.obj
 0002:00006a64       ??_7ListBoxSignal@CListBox@vgui@@6B@ 10055a64     vgui_listbox.obj
 0002:00006a68       ??_7IntChangeSignal@vgui@@6B@ 10055a68     vgui_listbox.obj
 0002:00006a6c       ??_7ScrollBar2@vgui@@6B@   10055a6c     vgui_listbox.obj
 0002:00006ca8       __real@4@4005aa00000000000000 10055ca8     vgui_mainmenu.obj
 0002:00006cac       __real@4@40048c00000000000000 10055cac     vgui_mainmenu.obj
 0002:00006cb0       __real@4@4002f000000000000000 10055cb0     vgui_mainmenu.obj
 0002:00006cb4       __real@4@3ffdaaaaaaaaaaaaa800 10055cb4     vgui_mainmenu.obj
 0002:00006cb8       __real@4@4006f000000000000000 10055cb8     vgui_mainmenu.obj
 0002:00006cbc       __real@4@4006dc00000000000000 10055cbc     vgui_mainmenu.obj
 0002:00006cc0       __real@4@4007b500000000000000 10055cc0     vgui_mainmenu.obj
 0002:00006cc4       ??_7CMenuHandler_StringCommand@@6B@ 10055cc4     vgui_mainmenu.obj
 0002:00006cc8       ??_7CMessageWindowPanel@@6B@ 10055cc8     vgui_mainmenu.obj
 0002:00006ee0       ??_7CBitmapMP3@@6B@        10055ee0     vgui_mp3.obj
 0002:00006f44       ??_7CMP3MenuPanel@@6B@     10055f44     vgui_mp3.obj
 0002:00007160       __real@4@bfff8000000000000000 10056160     vgui_mp3.obj
 0002:00007164       ??_7CMenuHandler_RallyMP3Command@@6B@ 10056164     vgui_mp3.obj
 0002:00007168       ??_7CHandler_ButtonHighlight@@6B@ 10056168     vgui_mp3.obj
 0002:00007194       ??_7CPlaylistItem@@6B@     10056194     vgui_mp3.obj
 0002:000073f4       ??_7CSkinnedComponent@@6B@ 100563f4     vgui_mp3.obj
 0002:000075f0       ??_7CSkinnedButton@@6B@    100565f0     vgui_mp3.obj
 0002:00007858       ??_7CSkinnedToggleButton@@6B@ 10056858     vgui_mp3.obj
 0002:00007ac0       ??_7CSkinnedSlider@@6B@    10056ac0     vgui_mp3.obj
 0002:00007d10       ??_7CSkinnedMultiBGSlider@@6B@ 10056d10     vgui_mp3.obj
 0002:00007f60       ??_7CSkinnedTime@@6B@      10056f60     vgui_mp3.obj
 0002:0000815c       ??_7CSkinnedString@@6B@    1005715c     vgui_mp3.obj
 0002:00008358       ??_7CSkinnedPlaylist@@6B@  10057358     vgui_mp3.obj
 0002:00008554       ??_7CSkinnedTiledComponent@@6B@ 10057554     vgui_mp3.obj
 0002:00008750       ??_7CSchemeManager@@6B@    10057750     vgui_SchemeManager.obj
 0002:00008754       __real@4@4003b000000000000000 10057754     vgui_ScorePanel.obj
 0002:00008758       ??_7ScorePanel@@6BCDefaultInputSignal@vgui@@@ 10057758     vgui_ScorePanel.obj
 0002:00008784       ??_7ScorePanel@@6BPanel@vgui@@@ 10057784     vgui_ScorePanel.obj
 0002:00008980       ??_7HitTestPanel@ScorePanel@@6B@ 10057980     vgui_ScorePanel.obj
 0002:00008b7c       ??_7CLabelHeader@@6B@      10057b7c     vgui_ScorePanel.obj
 0002:00008dac       ??_7CTextImage2@@6B@       10057dac     vgui_ScorePanel.obj
 0002:00008e0c       ??_7TmpTextImage@@6B@      10057e0c     vgui_ScorePanel.obj
 0002:00008e90       __real@8@3ffee666666666666800 10057e90     vgui_ScorePanel.obj
 0002:00008e98       ??_7ScrollBarButton@@6B@   10057e98     vgui_scrollbar2.obj
 0002:000090f8       ??_7FooDefaultScrollBarIntChangeSignal@?%E:\_hlr_code\game_shared\vgui_scrollbar2.cpp64188338@@6B@ 100580f8     vgui_scrollbar2.obj
 0002:000090fc       ??_7FooDefaultButtonSignal@?%E:\_hlr_code\game_shared\vgui_scrollbar2.cpp64188338@@6B@ 100580fc     vgui_scrollbar2.obj
 0002:00009100       ??_7CancelHandler@?%E:\_hlr_code\cl_dll\vgui_ServerBrowser.cpp1232626894@@6B@ 10058100     vgui_ServerBrowser.obj
 0002:00009104       ??_7StopHandler@?%E:\_hlr_code\cl_dll\vgui_ServerBrowser.cpp1232626894@@6B@ 10058104     vgui_ServerBrowser.obj
 0002:00009108       ??_7RefreshHandler@?%E:\_hlr_code\cl_dll\vgui_ServerBrowser.cpp1232626894@@6B@ 10058108     vgui_ServerBrowser.obj
 0002:0000910c       ??_7ConnectHandler@?%E:\_hlr_code\cl_dll\vgui_ServerBrowser.cpp1232626894@@6B@ 1005810c     vgui_ServerBrowser.obj
 0002:00009110       ??_7CBrowser_InputSignal@?%E:\_hlr_code\cl_dll\vgui_ServerBrowser.cpp1232626894@@6B@ 10058110     vgui_ServerBrowser.obj
 0002:0000913c       __real@4@40088e80000000000000 1005813c     vgui_ServerBrowser.obj
 0002:00009140       __real@4@4007fa00000000000000 10058140     vgui_ServerBrowser.obj
 0002:00009144       __real@4@4007c800000000000000 10058144     vgui_ServerBrowser.obj
 0002:00009148       __real@4@40039000000000000000 10058148     vgui_ServerBrowser.obj
 0002:0000914c       ??_7ServerBrowser@@6B@     1005814c     vgui_ServerBrowser.obj
 0002:00009348       ??_7ServerBrowserTablePanel@?%E:\_hlr_code\cl_dll\vgui_ServerBrowser.cpp1232626894@@6B@ 10058348     vgui_ServerBrowser.obj
 0002:00009598       ??_7CSBLabel@@6B@          10058598     vgui_ServerBrowser.obj
 0002:000097c4       ??_7LabelSortInputHandler@@6B@ 100587c4     vgui_ServerBrowser.obj
 0002:000097f0       ??_7FooDefaultSliderSignal@?%E:\_hlr_code\game_shared\vgui_slider2.cpp487812152@@6B@ 100587f0     vgui_slider2.obj
 0002:0000981c       __real@4@3ffc8000000000000000 1005881c     vgui_TeamFortressViewport.obj
 0002:00009820       __real@4@3ffcaaaaaaaaaaaaa800 10058820     vgui_TeamFortressViewport.obj
 0002:00009824       ??_7CMenuHandler_PopupSubMenuInput@@6B@ 10058824     vgui_TeamFortressViewport.obj
 0002:00009850       ??_7CCommandMenu@@6B@      10058850     vgui_TeamFortressViewport.obj
 0002:00009a4c       ??_7CViewPortInputHandler@@6B@ 10058a4c     vgui_TeamFortressViewport.obj
 0002:00009a78       ??_7TeamFortressViewport@@6B@ 10058a78     vgui_TeamFortressViewport.obj
 0002:00009c74       ??_7Surface@vgui@@6B@      10058c74     vgui_TeamFortressViewport.obj
 0002:00009d04       ??_7TeamOnlyCommandButton@@6B@ 10058d04     vgui_TeamFortressViewport.obj
 0002:00009f6c       ??_7MapButton@@6B@         10058f6c     vgui_TeamFortressViewport.obj
 0002:0000a1d4       ??_7MenuSeparator@vgui@@6B@ 100591d4     vgui_TeamFortressViewport.obj
 0002:0000a400       ??_7BuildGroup@vgui@@6B@   10059400     vgui_TeamFortressViewport.obj
 0002:0000a438       ??_7BuildButton@@6B@       10059438     vgui_TeamFortressViewport.obj
 0002:0000a6a0       ??_7DetpackButton@@6B@     100596a0     vgui_TeamFortressViewport.obj
 0002:0000a908       ??_7FeignButton@@6B@       10059908     vgui_TeamFortressViewport.obj
 0002:0000ab70       ??_7DisguiseButton@@6B@    10059b70     vgui_TeamFortressViewport.obj
 0002:0000add8       ??_7ClassButton@@6B@       10059dd8     vgui_TeamFortressViewport.obj
 0002:0000b040       ??_7SpectateButton@@6B@    1005a040     vgui_TeamFortressViewport.obj
 0002:0000b2a8       ??_7TeamButton@@6B@        1005a2a8     vgui_TeamFortressViewport.obj
 0002:0000b510       __real@4@4005d000000000000000 1005a510     vgui_TeamFortressViewport.obj
 0002:0000b514       ??_7CMenuHandler_StringCommandWatch@@6B@ 1005a514     vgui_TeamFortressViewport.obj
 0002:0000b518       ??_7CMenuHandler_StringCommandClassSelect@@6B@ 1005a518     vgui_TeamFortressViewport.obj
 0002:0000b51c       __real@4@4003c800000000000000 1005a51c     vgui_TeamFortressViewport.obj
 0002:0000b520       __real@4@4004f000000000000000 1005a520     vgui_TeamFortressViewport.obj
 0002:0000b524       __real@4@4006c400000000000000 1005a524     vgui_teammenu.obj
 0002:0000b528       __real@4@40078000000000000000 1005a528     vgui_teammenu.obj
 0002:0000b52c       __real@4@4006d800000000000000 1005a52c     vgui_teammenu.obj
 0002:0000b530       ??_7CTeamMenuPanel@@6B@    1005a530     vgui_teammenu.obj
 0002:0000b748       __real@4@40078c00000000000000 1005a748     vgui_teammenu.obj
 0002:0000b750       __real@8@bfff8000000000000000 1005a750     rally.obj
 0002:0000b758       __real@8@4005b400000000000000 1005a758     rally.obj
 0002:0000b760       __real@8@4004e52ee0d31e0fc000 1005a760     rally.obj
 0002:0000b768       __real@8@3ff98efa0366bccd7800 1005a768     rally.obj
 0002:0000b770       __real@4@40019999999999999800 1005a770     rally.obj
 0002:0000b774       __real@4@c0029000000000000000 1005a774     rally.obj
 0002:0000b778       __real@4@4004b400000000000000 1005a778     rally.obj
 0002:0000b77c       __real@4@4003c999999999999800 1005a77c     rally.obj
 0002:0000b780       __real@8@3fff9999999999999800 1005a780     rally.obj
 0002:0000b788       __real@4@3fff8cccccccccccd000 1005a788     rally.obj
 0002:0000b78c       __real@4@40069600000000000000 1005a78c     rally.obj
 0002:0000b790       __real@8@3ffdccccccccccccd000 1005a790     rally.obj
 0002:0000b798       __real@8@3ffda147ae147ae14800 1005a798     rally.obj
 0002:0000b7a0       __real@8@3ffdb333333333333000 1005a7a0     rally.obj
 0002:0000b7a8       __real@8@3ff9a3d70a3d70a3d800 1005a7a8     rally.obj
 0002:0000b7b0       __real@8@3ffeccccccccccccd000 1005a7b0     rally.obj
 0002:0000b7b8       __real@4@3ffed9999a0000000000 1005a7b8     rally.obj
 0002:0000b7bc       __real@4@3ffacccccd0000000000 1005a7bc     rally.obj
 0002:0000b7c0       __real@4@3ffa8888888888888800 1005a7c0     rally.obj
 0002:0000b7c4       __real@4@40079600000000000000 1005a7c4     rally.obj
 0002:0000b7c8       __real@4@3ff58000000000000000 1005a7c8     Rally_CryptFile.obj
 0002:0000b7ec       __real@4@c0088980000000000000 1005a7ec     Rally_Effects.obj
 0002:0000b7f0       __real@4@4006c900000000000000 1005a7f0     Rally_Effects.obj
 0002:0000b7f4       __real@4@40098980000000000000 1005a7f4     Rally_Effects.obj
 0002:0000b7f8       __real@4@4006be00000000000000 1005a7f8     Rally_Effects.obj
 0002:0000b800       __real@8@4000d000000000000000 1005a800     Rally_Effects.obj
 0002:0000b808       __real@4@400bbb80000000000000 1005a808     Rally_Effects.obj
 0002:0000b80c       __real@4@400abb80000000000000 1005a80c     Rally_Effects.obj
 0002:0000b810       __real@4@c003b000000000000000 1005a810     Rally_Effects.obj
 0002:0000b814       __real@4@4005fe00000000000000 1005a814     Rally_Effects.obj
 0002:0000b818       __real@4@c003a000000000000000 1005a818     Rally_Effects.obj
 0002:0000b820       __real@8@3ffec000000000000000 1005a820     Rally_Effects.obj
 0002:0000b828       __real@8@3fffc000000000000000 1005a828     Rally_Effects.obj
 0002:0000b830       __real@8@3ff683126e978d4fe000 1005a830     Rally_Effects.obj
 0002:0000b838       __real@4@3fff99999a0000000000 1005a838     Rally_Effects.obj
 0002:0000b83c       __real@4@3ffb8888888888888800 1005a83c     Rally_Effects.obj
 0002:0000b840       __real@8@3ffed999999999999800 1005a840     Rally_Effects.obj
 0002:0000b848       __real@4@bffaccccccccccccd000 1005a848     Rally_Effects.obj
 0002:0000b84c       __real@4@3ffaccccccccccccd000 1005a84c     Rally_Effects.obj
 0002:0000b850       __real@4@3ffbccccccccccccd000 1005a850     Rally_Effects.obj
 0002:0000b858       __real@8@3ffef851eb851eb85000 1005a858     Rally_Effects.obj
 0002:0000b860       __real@4@bffa8888888888888800 1005a860     Rally_Effects.obj
 0002:0000b868       __real@8@3fffd555555555555800 1005a868     Rally_Effects.obj
 0002:0000b870       __real@4@3fffc000000000000000 1005a870     Rally_Effects.obj
 0002:0000b874       __real@4@40029000000000000000 1005a874     Rally_Effects.obj
 0002:0000b878       __real@4@40039800000000000000 1005a878     Rally_Effects.obj
 0002:0000b87c       __real@4@3ffdcccccd0000000000 1005a87c     Rally_Effects.obj
 0002:0000b880       __real@4@400a8080000000000000 1005a880     Rally_Effects.obj
 0002:0000b884       __real@4@3ffcccccccccccccd000 1005a884     Rally_Effects.obj
 0002:0000b888       __real@4@4005c000000000000000 1005a888     Rally_Effects.obj
 0002:0000b890       __real@8@bffc9999999999999800 1005a890     Rally_Effects.obj
 0002:0000b898       __real@8@3ffc9999999999999800 1005a898     Rally_Effects.obj
 0002:0000b8a0       __real@8@bffde666666666666800 1005a8a0     Rally_Effects.obj
 0002:0000b8a8       __real@8@3ffde666666666666800 1005a8a8     Rally_Effects.obj
 0002:0000b8b0       __real@4@c001e000000000000000 1005a8b0     Rally_Effects.obj
 0002:0000b8b4       __real@4@4004e000000000000000 1005a8b4     Rally_Effects.obj
 0002:0000b8b8       __real@4@4001e000000000000000 1005a8b8     Rally_Effects.obj
 0002:0000b8bc       __real@4@c000c000000000000000 1005a8bc     Rally_Effects.obj
 0002:0000b8c0       __real@4@3fffb333330000000000 1005a8c0     Rally_Effects.obj
 0002:0000b8c8       __real@8@3ffeeb851eb851eb8800 1005a8c8     Rally_Effects.obj
 0002:0000b8d0       __real@8@3ffaf5c28f5c28f5c000 1005a8d0     Rally_Effects.obj
 0002:0000b8d8       __real@8@3ffba3d70a3d70a3d800 1005a8d8     Rally_Effects.obj
 0002:0000b8e0       __real@4@4006c300000000000000 1005a8e0     Rally_Effects.obj
 0002:0000b8e8       __real@8@4001d555555555555800 1005a8e8     Rally_Effects.obj
 0002:0000b8f0       __real@8@4003d555555555555800 1005a8f0     Rally_Effects.obj
 0002:0000b8f8       __real@4@bff783126e978d4fe000 1005a8f8     Rally_Effects.obj
 0002:0000b900       __real@8@3fffa000000000000000 1005a900     Rally_Effects.obj
 0002:0000b908       __real@8@3ffff5c28f5c28f5c000 1005a908     rally_hud_health.obj
 0002:0000b910       __real@4@3ffc9249249249249000 1005a910     rally_hud_radar.obj
 0002:0000b914       __real@4@3ffeac00000000000000 1005a914     rally_hud_radar.obj
 0002:0000b918       __real@4@3ff8c000000000000000 1005a918     rally_hud_radar.obj
 0002:0000b91c       __real@4@3ffea600000000000000 1005a91c     rally_hud_radar.obj
 0002:0000b920       __real@4@3ffa8000000000000000 1005a920     rally_hud_radar.obj
 0002:0000b924       __real@4@40069400000000000000 1005a924     rally_hud_radar.obj
 0002:0000b928       __real@4@3ff5da740da740da7800 1005a928     rally_sound.obj
 0002:0000b92c       __real@4@4009bb80000000000000 1005a92c     rally_sound.obj
 0002:0000b930       __real@4@40059600000000000000 1005a930     rally_sound.obj
 0002:0000b938       __real@8@4003a000000000000000 1005a938     ammo.obj
 0002:0000b940       __real@4@c005c800000000000000 1005a940     cdll_int.obj
 0002:0000b944       ??_7CHudRadar@@6B@         1005a944     cdll_int.obj
 0002:0000b960       ??_7CHudSpectator@@6B@     1005a960     cdll_int.obj
 0002:0000b97c       ??_7CHudStatusIcons@@6B@   1005a97c     cdll_int.obj
 0002:0000b998       ??_7CHudTextMessage@@6B@   1005a998     cdll_int.obj
 0002:0000b9b4       ??_7CHudAmmoSecondary@@6B@ 1005a9b4     cdll_int.obj
 0002:0000b9d0       ??_7CHudMenu@@6B@          1005a9d0     cdll_int.obj
 0002:0000b9ec       ??_7CHudSayText@@6B@       1005a9ec     cdll_int.obj
 0002:0000ba08       ??_7CHudDeathNotice@@6B@   1005aa08     cdll_int.obj
 0002:0000ba24       ??_7CHudStatusBar@@6B@     1005aa24     cdll_int.obj
 0002:0000ba40       ??_7CHudMessage@@6B@       1005aa40     cdll_int.obj
 0002:0000ba5c       ??_7CHudGeiger@@6B@        1005aa5c     cdll_int.obj
 0002:0000ba78       ??_7CHudRallyHealth@@6B@   1005aa78     cdll_int.obj
 0002:0000ba94       ??_7CHudRally@@6B@         1005aa94     cdll_int.obj
 0002:0000bab0       ??_7CHudHealth@@6B@        1005aab0     cdll_int.obj
 0002:0000bacc       ??_7CHudAmmo@@6B@          1005aacc     cdll_int.obj
 0002:0000bae8       __real@8@3fef8000000000000000 1005aae8     com_weapons.obj
 0002:0000baf0       __real@8@40018000000000000000 1005aaf0     entity.obj
 0002:0000baf8       __real@8@4003f000000000000000 1005aaf8     entity.obj
 0002:0000bb00       __real@8@40028000000000000000 1005ab00     entity.obj
 0002:0000bb08       __real@8@3ffeb333333333333000 1005ab08     entity.obj
 0002:0000bb10       __real@8@3ff5a3d70a3d70a3d800 1005ab10     entity.obj
 0002:0000bb18       __real@8@4001b000000000000000 1005ab18     entity.obj
 0002:0000bb20       __real@4@40058c00000000000000 1005ab20     ev_common.obj
 0002:0000bb24       ??_7CGameStudioModelRenderer@@6B@ 1005ab24     GameStudioModelRenderer.obj
 0002:0000bb84       __real@4@3ff78080808080808000 1005ab84     geiger.obj
 0002:0000bb88       ??_7IVoiceStatusHelper@@6B@ 1005ab88     hud.obj
 0002:0000bb9c       ??_7CHLVoiceStatusHelper@@6B@ 1005ab9c     hud.obj
 0002:0000bbb0       __real@4@4005b400000000000000 1005abb0     hud_redraw.obj
 0002:0000bbb8       __real@8@4008fa00000000000000 1005abb8     hud_servers.obj
 0002:0000bbc0       __real@8@40008000000000000000 1005abc0     hud_servers.obj
 0002:0000bbc8       __real@8@4001a000000000000000 1005abc8     hud_servers.obj
 0002:0000bbd0       __real@8@3ffcccccccccccccd000 1005abd0     hud_spectator.obj
 0002:0000bbd8       __real@4@400b8000000000000000 1005abd8     hud_spectator.obj
 0002:0000bbdc       __real@4@3fffaaaaab0000000000 1005abdc     hud_spectator.obj
 0002:0000bbe0       __real@4@3ff8b60b60b60b60b800 1005abe0     hud_spectator.obj
 0002:0000bbe4       __real@4@40088000000000000000 1005abe4     hud_spectator.obj
 0002:0000bbe8       __real@4@3ffea0a0a0a0a0a0a000 1005abe8     hud_spectator.obj
 0002:0000bbec       __real@4@c0058000000000000000 1005abec     hud_spectator.obj
 0002:0000bbf0       __real@4@c005b400000000000000 1005abf0     in_camera.obj
 0002:0000bbf4       __real@4@3ff7a3d70a3d70a3d800 1005abf4     in_camera.obj
 0002:0000bbf8       __real@4@40098340000000000000 1005abf8     in_camera.obj
 0002:0000bbfc       __real@4@4008d480000000000000 1005abfc     in_camera.obj
 0002:0000bc00       __real@4@3ffab851eb851eb85000 1005ac00     in_camera.obj
 0002:0000bc04       __real@4@4007e100000000000000 1005ac04     in_camera.obj
 0002:0000bc08       __real@4@4005d200000000000000 1005ac08     in_camera.obj
 0002:0000bc0c       __real@4@3ffdd999999999999800 1005ac0c     in_camera.obj
 0002:0000bc10       __real@4@3ff88888888888888800 1005ac10     in_camera.obj
 0002:0000bc14       __real@4@4003e800000000000000 1005ac14     in_camera.obj
 0002:0000bc18       __real@4@3ffbe38e38e38e38e000 1005ac18     in_camera.obj
 0002:0000bc1c       __real@4@c007b400000000000000 1005ac1c     in_camera.obj
 0002:0000bc20       __real@8@3ffc8000000000000000 1005ac20     in_camera.obj
 0002:0000bc28       __real@8@40019000000000000000 1005ac28     input.obj
 0002:0000bc30       __real@4@4006aa00000000000000 1005ac30     input.obj
 0002:0000bc38       __real@8@4001f000000000000000 1005ac38     input.obj
 0002:0000bc40       __real@4@4006a500000000000000 1005ac40     input.obj
 0002:0000bc44       __real@4@40069100000000000000 1005ac44     input.obj
 0002:0000bc48       __real@8@3ffef5c28f5c28f5c000 1005ac48     input.obj
 0002:0000bc50       __real@8@3ffea666666666666800 1005ac50     input.obj
 0002:0000bc58       __real@4@3ff8d20d20d20d20d000 1005ac58     input.obj
 0002:0000bc5c       __real@4@400c9c40000000000000 1005ac5c     input.obj
 0002:0000bc60       __real@8@3ff08000000000000000 1005ac60     inputw32.obj
 0002:0000bc68       __real@4@400cdac0000000000000 1005ac68     inputw32.obj
 0002:0000bc70       __real@8@400cdac0000000000000 1005ac70     inputw32.obj
 0002:0000bc78       __real@8@40079600000000000000 1005ac78     inputw32.obj
 0002:0000bc80       __real@8@3fffa666666666666800 1005ac80     inputw32.obj
 0002:0000bc88       __real@8@400e8000000000000000 1005ac88     inputw32.obj
 0002:0000bc90       __real@8@4006ff00000000000000 1005ac90     message.obj
 0002:0000bc98       __real@8@3ff1d1b71758e2196800 1005ac98     message.obj
 0002:0000bca0       __real@8@3fffb400000000000000 1005aca0     parsemsg.obj
 0002:0000bca8       __real@8@3ff7b400000000000000 1005aca8     parsemsg.obj
 0002:0000bcb0       __real@8@4006b60b60b60b60b800 1005acb0     pm_math.obj
 0002:0000bcb8       __real@8@3ff98efa351294e9c800 1005acb8     pm_math.obj
 0002:0000bcc0       __real@8@3ffda2f9836e4e441800 1005acc0     pm_math.obj
 0002:0000bcc8       __real@4@40078700000000000000 1005acc8     pm_math.obj
 0002:0000bcd0       __real@8@4004c800000000000000 1005acd0     pm_shared.obj
 0002:0000bcd8       __real@8@bfffb333333333333000 1005acd8     pm_shared.obj
 0002:0000bce0       __real@4@4009e100000000000000 1005ace0     pm_shared.obj
 0002:0000bce4       __real@4@40059000000000000000 1005ace4     pm_shared.obj
 0002:0000bce8       __real@4@4005e000000000000000 1005ace8     pm_shared.obj
 0002:0000bcec       __real@4@4008e100000000000000 1005acec     pm_shared.obj
 0002:0000bcf0       __real@8@3ff583126e978d4fe000 1005acf0     pm_shared.obj
 0002:0000bcf8       __real@4@bffc8000000000000000 1005acf8     pm_shared.obj
 0002:0000bd00       __real@8@3fffc90fdaa22168c000 1005ad00     studio_util.obj
 0002:0000bd08       __real@8@3feb8637bd05af6c6800 1005ad08     studio_util.obj
 0002:0000bd10       ??_7CStudioModelRenderer@@6B@ 1005ad10     StudioModelRenderer.obj
 0002:0000bd70       __real@4@3fffbdf3b60000000000 1005ad70     StudioModelRenderer.obj
 0002:0000bd78       __real@8@bff8a3d70a3d70a3d800 1005ad78     StudioModelRenderer.obj
 0002:0000bd80       __real@8@3fff8020c49ba5e35000 1005ad80     StudioModelRenderer.obj
 0002:0000bd88       __real@8@3ff78000000000000000 1005ad88     StudioModelRenderer.obj
 0002:0000bd90       __real@8@40018cccccccccccd000 1005ad90     StudioModelRenderer.obj
 0002:0000bd98       __real@4@c006ff00000000000000 1005ad98     StudioModelRenderer.obj
 0002:0000bd9c       __real@4@c006fa00000000000000 1005ad9c     StudioModelRenderer.obj
 0002:0000bda0       __real@8@4002c000000000000000 1005ada0     StudioModelRenderer.obj
 0002:0000bda8       __real@8@3ffda5294a5294a52800 1005ada8     StudioModelRenderer.obj
 0002:0000bdb0       __real@8@4003a333333333333000 1005adb0     StudioModelRenderer.obj
 0002:0000bdb8       __real@8@4002c666666666666800 1005adb8     StudioModelRenderer.obj
 0002:0000bdc0       __real@8@4000ecccccccccccd000 1005adc0     StudioModelRenderer.obj
 0002:0000bdc8       __real@4@3ff7da740da740da7800 1005adc8     StudioModelRenderer.obj
 0002:0000bdcc       __real@4@4001a000002800000000 1005adcc     StudioModelRenderer.obj
 0002:0000bdd0       __real@8@3fe08000000000000000 1005add0     StudioModelRenderer.obj
 0002:0000bdd8       __real@4@3ffdccccccccccccd000 1005add8     StudioModelRenderer.obj
 0002:0000bde0       __real@8@400cafc8000000000000 1005ade0     tri.obj
 0002:0000bde8       __real@4@40038800000000000000 1005ade8     view.obj
 0002:0000bdf0       __real@8@4002dc00000000000000 1005adf0     view.obj
 0002:0000bdf8       __real@4@c003c800000000000000 1005adf8     view.obj
 0002:0000be00       __real@8@3ffa8000000000000000 1005ae00     view.obj
 0002:0000be08       __real@8@c000c90fdaa22168c000 1005ae08     view.obj
 0002:0000be10       __real@4@4004cd00000000000000 1005ae10     view.obj
 0002:0000be14       __real@4@40049b00000000000000 1005ae14     view.obj
 0002:0000be18       __real@4@4003b400000000000000 1005ae18     view.obj
 0002:0000be20       __real@8@3ffc9d89d89d89d8a000 1005ae20     view.obj
 0002:0000be58       ??_7type_info@@6B@         1005ae58     MSVCRT:ti_inst.obj
 0002:0000be60       ??_R1A@?0A@A@type_info@@8  1005ae60     MSVCRT:ti_inst.obj
 0002:0000be78       ??_R2type_info@@8          1005ae78     MSVCRT:ti_inst.obj
 0002:0000be80       ??_R3type_info@@8          1005ae80     MSVCRT:ti_inst.obj
 0002:0000be90       ??_R4type_info@@6B@        1005ae90     MSVCRT:ti_inst.obj
 0003:00000000       ___xc_a                    10063000     MSVCRT:cinitexe.obj
 0003:00000074       ___xc_z                    10063074     MSVCRT:cinitexe.obj
 0003:00000078       ___xi_a                    10063078     MSVCRT:cinitexe.obj
 0003:0000007c       ___xi_z                    1006307c     MSVCRT:cinitexe.obj
 0003:00000080       ?g_fireAnims1@@3PAHA       10063080     ev_hldm.obj
 0003:00000090       ?g_fireAnims2@@3PAHA       10063090     ev_hldm.obj
 0003:00000094       ??_C@_0BE@DHAL@player?1pl_tile4?4wav?$AA@ 10063094     ev_hldm.obj
 0003:000000a8       ??_C@_0BE@PHNE@player?1pl_tile2?4wav?$AA@ 100630a8     ev_hldm.obj
 0003:000000bc       ??_C@_0BE@FHPB@player?1pl_tile3?4wav?$AA@ 100630bc     ev_hldm.obj
 0003:000000d0       ??_C@_0BE@BHLL@player?1pl_tile1?4wav?$AA@ 100630d0     ev_hldm.obj
 0003:000000e4       ??_C@_0BE@KCPJ@player?1pl_duct1?4wav?$AA@ 100630e4     ev_hldm.obj
 0003:000000f8       ??_C@_0BB@IAOM@debris?1wood3?4wav?$AA@ 100630f8     ev_hldm.obj
 0003:0000010c       ??_C@_0BB@CAMJ@debris?1wood2?4wav?$AA@ 1006310c     ev_hldm.obj
 0003:00000120       ??_C@_0BB@MAKG@debris?1wood1?4wav?$AA@ 10063120     ev_hldm.obj
 0003:00000134       ??_C@_0BC@NODO@debris?1glass3?4wav?$AA@ 10063134     ev_hldm.obj
 0003:00000148       ??_C@_0BC@HOBL@debris?1glass2?4wav?$AA@ 10063148     ev_hldm.obj
 0003:0000015c       ??_C@_0BC@JOHE@debris?1glass1?4wav?$AA@ 1006315c     ev_hldm.obj
 0003:00000170       ??_C@_0BE@NADP@player?1pl_step2?4wav?$AA@ 10063170     ev_hldm.obj
 0003:00000184       ??_C@_0BE@DAFA@player?1pl_step1?4wav?$AA@ 10063184     ev_hldm.obj
 0003:00000198       ??_C@_0BF@BKFO@player?1pl_slosh4?4wav?$AA@ 10063198     ev_hldm.obj
 0003:000001b0       ??_C@_0BF@NKIB@player?1pl_slosh2?4wav?$AA@ 100631b0     ev_hldm.obj
 0003:000001c8       ??_C@_0BF@HKKE@player?1pl_slosh3?4wav?$AA@ 100631c8     ev_hldm.obj
 0003:000001e0       ??_C@_0BF@DKOO@player?1pl_slosh1?4wav?$AA@ 100631e0     ev_hldm.obj
 0003:000001f8       ??_C@_0BE@MGFL@player?1pl_dirt3?4wav?$AA@ 100631f8     ev_hldm.obj
 0003:0000020c       ??_C@_0BE@GGHO@player?1pl_dirt2?4wav?$AA@ 1006320c     ev_hldm.obj
 0003:00000220       ??_C@_0BE@IGBB@player?1pl_dirt1?4wav?$AA@ 10063220     ev_hldm.obj
 0003:00000234       ??_C@_0BI@HLHD@weapons?1bullet_hit2?4wav?$AA@ 10063234     ev_hldm.obj
 0003:0000024c       ??_C@_0BI@JLBM@weapons?1bullet_hit1?4wav?$AA@ 1006324c     ev_hldm.obj
 0003:00000264       ??_C@_0BF@DEFK@player?1pl_grate4?4wav?$AA@ 10063264     ev_hldm.obj
 0003:0000027c       ??_C@_0BF@BEOK@player?1pl_grate1?4wav?$AA@ 1006327c     ev_hldm.obj
 0003:00000294       ??_C@_0BF@FBCM@player?1pl_metal2?4wav?$AA@ 10063294     ev_hldm.obj
 0003:000002ac       ??_C@_0BF@LBED@player?1pl_metal1?4wav?$AA@ 100632ac     ev_hldm.obj
 0003:000002c4       ??_C@_07LNFF@?$HLshot?$CFi?$AA@ 100632c4     ev_hldm.obj
 0003:000002cc       ??_C@_08GIMN@?$HLbproof1?$AA@ 100632cc     ev_hldm.obj
 0003:000002d8       ??_C@_08FFFG@?$HLbreak?$CFi?$AA@ 100632d8     ev_hldm.obj
 0003:000002e4       ??_C@_08HPMP@r_decals?$AA@ 100632e4     ev_hldm.obj
 0003:000002f0       ??_C@_0BB@GBNP@weapons?1ric1?4wav?$AA@ 100632f0     ev_hldm.obj
 0003:00000304       ??_C@_0BB@IBLA@weapons?1ric2?4wav?$AA@ 10063304     ev_hldm.obj
 0003:00000318       ??_C@_0BB@CBJF@weapons?1ric3?4wav?$AA@ 10063318     ev_hldm.obj
 0003:0000032c       ??_C@_0BB@EBGP@weapons?1ric4?4wav?$AA@ 1006332c     ev_hldm.obj
 0003:00000340       ??_C@_0BB@OBEK@weapons?1ric5?4wav?$AA@ 10063340     ev_hldm.obj
 0003:00000354       ??_C@_0BE@OJCM@weapons?1pl_gun3?4wav?$AA@ 10063354     ev_hldm.obj
 0003:00000368       ??_C@_0BB@GKKK@models?1shell?4mdl?$AA@ 10063368     ev_hldm.obj
 0003:0000037c       ??_C@_0BF@BJDN@weapons?1dbarrel1?4wav?$AA@ 1006337c     ev_hldm.obj
 0003:00000394       ??_C@_0BI@MEKG@models?1shotgunshell?4mdl?$AA@ 10063394     ev_hldm.obj
 0003:000003ac       ??_C@_0BF@MGAA@weapons?1sbarrel1?4wav?$AA@ 100633ac     ev_hldm.obj
 0003:000003c4       ??_C@_0BB@DFDG@weapons?1hks1?4wav?$AA@ 100633c4     ev_hldm.obj
 0003:000003d8       ??_C@_0BB@NFFJ@weapons?1hks2?4wav?$AA@ 100633d8     ev_hldm.obj
 0003:000003ec       ??_C@_0BG@BCAJ@weapons?1glauncher?4wav?$AA@ 100633ec     ev_hldm.obj
 0003:00000404       ??_C@_0BH@OIFN@weapons?1glauncher2?4wav?$AA@ 10063404     ev_hldm.obj
 0003:0000041c       ??_C@_0BG@NKIB@weapons?1357_shot1?4wav?$AA@ 1006341c     ev_hldm.obj
 0003:00000434       ??_C@_0BG@DKOO@weapons?1357_shot2?4wav?$AA@ 10063434     ev_hldm.obj
 0003:0000044c       ??_C@_0BK@OKCJ@ambience?1pulsemachine?4wav?$AA@ 1006344c     ev_hldm.obj
 0003:00000468       ??_C@_0BE@BPBK@events?1gaussspin?4sc?$AA@ 10063468     ev_hldm.obj
 0003:0000047c       ??_C@_0BD@LMIF@weapons?1gauss2?4wav?$AA@ 1006347c     ev_hldm.obj
 0003:00000490       ??_C@_0BE@LLFP@sprites?1hotglow?4spr?$AA@ 10063490     ev_hldm.obj
 0003:000004a4       ??_C@_0BC@PKLD@sprites?1smoke?4spr?$AA@ 100634a4     ev_hldm.obj
 0003:000004b8       ??_C@_0BH@LHCM@weapons?1cbar_miss1?4wav?$AA@ 100634b8     ev_hldm.obj
 0003:000004d0       ??_C@_0BJ@JNCP@models?1crossbow_bolt?4mdl?$AA@ 100634d0     ev_hldm.obj
 0003:000004ec       ??_C@_0BG@DAIM@weapons?1xbow_hit1?4wav?$AA@ 100634ec     ev_hldm.obj
 0003:00000504       ??_C@_0BJ@BHDC@weapons?1xbow_hitbod1?4wav?$AA@ 10063504     ev_hldm.obj
 0003:00000520       ??_C@_0BJ@PHFN@weapons?1xbow_hitbod2?4wav?$AA@ 10063520     ev_hldm.obj
 0003:0000053c       ??_C@_0BJ@PDEH@weapons?1xbow_reload1?4wav?$AA@ 1006353c     ev_hldm.obj
 0003:00000558       ??_C@_0BH@EOBH@weapons?1xbow_fire1?4wav?$AA@ 10063558     ev_hldm.obj
 0003:00000570       ??_C@_0BI@BOJG@weapons?1rocketfire1?4wav?$AA@ 10063570     ev_hldm.obj
 0003:00000588       ??_C@_0BD@DIAC@sprites?1xbeam1?4spr?$AA@ 10063588     ev_hldm.obj
 0003:0000059c       ??_C@_0BG@IGDL@weapons?1egon_run3?4wav?$AA@ 1006359c     ev_hldm.obj
 0003:000005b4       ??_C@_0BJ@OAJA@weapons?1egon_windup2?4wav?$AA@ 100635b4     ev_hldm.obj
 0003:000005d0       ??_C@_0BG@FKJN@weapons?1egon_off1?4wav?$AA@ 100635d0     ev_hldm.obj
 0003:000005e8       ??_C@_0BE@NPBM@agrunt?1ag_fire1?4wav?$AA@ 100635e8     ev_hldm.obj
 0003:000005fc       ??_C@_0BE@DPHD@agrunt?1ag_fire2?4wav?$AA@ 100635fc     ev_hldm.obj
 0003:00000610       ??_C@_0BE@JPFG@agrunt?1ag_fire3?4wav?$AA@ 10063610     ev_hldm.obj
 0003:00000624       ??_C@_0BC@KFKM@plats?1ttrain1?4wav?$AA@ 10063624     ev_hldm.obj
 0003:00000638       ??_C@_0BC@EFMD@plats?1ttrain2?4wav?$AA@ 10063638     ev_hldm.obj
 0003:0000064c       ??_C@_0BC@OFOG@plats?1ttrain3?4wav?$AA@ 1006364c     ev_hldm.obj
 0003:00000660       ??_C@_0BC@IFBM@plats?1ttrain4?4wav?$AA@ 10063660     ev_hldm.obj
 0003:00000674       ??_C@_0BC@MFFG@plats?1ttrain6?4wav?$AA@ 10063674     ev_hldm.obj
 0003:00000688       ??_C@_0BC@GFHD@plats?1ttrain7?4wav?$AA@ 10063688     ev_hldm.obj
 0003:0000069c       ??_C@_0BE@MMHN@events?1snarkfire?4sc?$AA@ 1006369c     hl_events.obj
 0003:000006b0       ??_C@_0BD@NEPM@events?1tripfire?4sc?$AA@ 100636b0     hl_events.obj
 0003:000006c4       ??_C@_0BF@IIL@events?1firehornet?4sc?$AA@ 100636c4     hl_events.obj
 0003:000006dc       ??_C@_0BE@IJOI@events?1egon_stop?4sc?$AA@ 100636dc     hl_events.obj
 0003:000006f0       ??_C@_0BE@GKG@events?1egon_fire?4sc?$AA@ 100636f0     hl_events.obj
 0003:00000704       ??_C@_0O@IAMG@events?1rpg?4sc?$AA@ 10063704     hl_events.obj
 0003:00000714       ??_C@_0BE@HBO@events?1crossbow2?4sc?$AA@ 10063714     hl_events.obj
 0003:00000728       ??_C@_0BE@GIOI@events?1crossbow1?4sc?$AA@ 10063728     hl_events.obj
 0003:0000073c       ??_C@_0BC@GLKO@events?1crowbar?4sc?$AA@ 1006373c     hl_events.obj
 0003:00000750       ??_C@_0BA@FBPD@events?1train?4sc?$AA@ 10063750     hl_events.obj
 0003:00000760       ??_C@_0BA@BBJB@events?1gauss?4sc?$AA@ 10063760     hl_events.obj
 0003:00000770       ??_C@_0BB@CAOG@events?1python?4sc?$AA@ 10063770     hl_events.obj
 0003:00000784       ??_C@_0P@CICE@events?1mp52?4sc?$AA@ 10063784     hl_events.obj
 0003:00000794       ??_C@_0O@NEKF@events?1mp5?4sc?$AA@ 10063794     hl_events.obj
 0003:000007a4       ??_C@_0BD@IGAN@events?1shotgun2?4sc?$AA@ 100637a4     hl_events.obj
 0003:000007b8       ??_C@_0BD@OJPL@events?1shotgun1?4sc?$AA@ 100637b8     hl_events.obj
 0003:000007cc       ??_C@_0BB@GCKA@events?1glock2?4sc?$AA@ 100637cc     hl_events.obj
 0003:000007e0       ??_C@_0BB@NFG@events?1glock1?4sc?$AA@ 100637e0     hl_events.obj
 0003:000007f4       ??_C@_05HMBL@cl?3?5?5?$AA@ 100637f4     hl_weapons.obj
 0003:000007fc       ??_C@_0BG@NHFC@weapons?1357_cock1?4wav?$AA@ 100637fc     hl_weapons.obj
 0003:00000814       ??_C@_03NGHA@?$CFi?5?$AA@  10063814     hl_weapons.obj
 0003:00000818       ??_C@_09PNNN@c?3?2hl?4log?$AA@ 10063818     hl_weapons.obj
 0003:00000824       ??_C@_05KCJ@?$CF?44f?5?$AA@ 10063824     hl_weapons.obj
 0003:0000082c       ??_C@_0BA@PKLD@CreateInterface?$AA@ 1006382c     interface.obj
 0003:0000083c       ?g_pBanMgrFilename@@3PBDB  1006383c     voice_banmgr.obj
 0003:00000840       ??_C@_0N@LNO@voice_ban?4dt?$AA@ 10063840     voice_banmgr.obj
 0003:00000850       ??_C@_02JKAF@rb?$AA@       10063850     voice_banmgr.obj
 0003:00000854       ??_C@_05LELA@?$CFs?1?$CFs?$AA@ 10063854     voice_banmgr.obj
 0003:0000085c       ??_C@_02NGAF@wb?$AA@       1006385c     voice_banmgr.obj
 0003:00000860       ??_C@_0DK@GGHL@Ban?5?$CFd?3?5?$CF2x?$CF2x?$CF2x?$CF2x?$CF2x?$CF2x?$CF2x?$CF2x@ 10063860     voice_status.obj
 0003:0000089c       ??_C@_0CA@FBEE@?9?9?9?9?9?9?9?9?9?9?9?9?9?9?9?9?9?9?9?9?9?9?9?9?9?9?9?9?9?9?6?$AA@ 1006389c     voice_status.obj
 0003:000008bc       ??_C@_0CA@PCLP@?9?9?9?9?9?9?9?5BANNED?5PLAYERS?5?9?9?9?9?9?9?9?6?$AA@ 100638bc     voice_status.obj
 0003:000008dc       ??_C@_08BBBH@ReqState?$AA@ 100638dc     voice_status.obj
 0003:000008e8       ??_C@_09MHFC@VoiceMask?$AA@ 100638e8     voice_status.obj
 0003:000008f4       ??_C@_0BB@BDNP@voice_showbanned?$AA@ 100638f4     voice_status.obj
 0003:00000908       ??_C@_0BC@KOJK@voice_clientdebug?$AA@ 10063908     voice_status.obj
 0003:0000091c       ??_C@_01PLJA@0?$AA@        1006391c     voice_status.obj
 0003:00000920       ??_C@_0BA@OCKO@voice_modenable?$AA@ 10063920     voice_status.obj
 0003:00000930       ??_C@_01FBAH@1?$AA@        10063930     voice_status.obj
 0003:00000934       ??_C@_0BG@NFOD@sprites?1voiceicon?4spr?$AA@ 10063934     voice_status.obj
 0003:0000094c       ??_C@_0BH@DOLI@scripts?1voicemodel?4txt?$AA@ 1006394c     voice_status.obj
 0003:00000964       ??_C@_0BO@HNBJ@gfx?1vgui?1640_voiceblocked?4tga?$AA@ 10063964     voice_status.obj
 0003:00000984       ??_C@_0BM@MPAA@gfx?1vgui?1icntlk_squelch?4tga?$AA@ 10063984     voice_status.obj
 0003:000009a0       ??_C@_0BK@BMBE@gfx?1vgui?1640_speaker4?4tga?$AA@ 100639a0     voice_status.obj
 0003:000009bc       ??_C@_0BK@HMOO@gfx?1vgui?1640_speaker3?4tga?$AA@ 100639bc     voice_status.obj
 0003:000009d8       ??_C@_0BK@NMML@gfx?1vgui?1640_speaker2?4tga?$AA@ 100639d8     voice_status.obj
 0003:000009f4       ??_C@_0BK@DMKE@gfx?1vgui?1640_speaker1?4tga?$AA@ 100639f4     voice_status.obj
 0003:00000a10       ??_C@_0BG@JPFP@gfx?1vgui?1speaker4?4tga?$AA@ 10063a10     voice_status.obj
 0003:00000a28       ??_C@_0BH@NOBJ@gfx?1vgui?1icntlk_sv?4tga?$AA@ 10063a28     voice_status.obj
 0003:00000a40       ??_C@_0BH@CDMM@gfx?1vgui?1icntlk_pl?4tga?$AA@ 10063a40     voice_status.obj
 0003:00000a58       ??_C@_05CFGN@?$CFs?5?5?5?$AA@ 10063a58     voice_status.obj
 0003:00000a60       ??_C@_0BC@FLDL@voice_modenable?51?$AA@ 10063a60     voice_status.obj
 0003:00000a74       ??_C@_0DI@PLOA@CVoiceStatus?3?3UpdateSpeakerStatu@ 10063a74     voice_status.obj
 0003:00000aac       ??_C@_0CM@JIKJ@CVoiceStatus?3?3UpdateServerState?3@ 10063aac     voice_status.obj
 0003:00000ad8       ??_C@_03NBGP@?5?$CFx?$AA@  10063ad8     voice_status.obj
 0003:00000adc       ??_C@_04CCOP@vban?$AA@     10063adc     voice_status.obj
 0003:00000ae4       ??_C@_0CP@OFKI@CVoiceStatus?3?3UpdateServerState?3@ 10063ae4     voice_status.obj
 0003:00000b14       ??_C@_0O@CNJA@VModEnable?5?$CFd?$AA@ 10063b14     voice_status.obj
 0003:00000b24       ??_C@_0DD@PPM@CVoiceStatus?3?3UpdateServerState?3@ 10063b24     voice_status.obj
 0003:00000b58       ??_C@_0CH@EBGF@?5?5?5?5?9?5m_ServerBannedPlayers?$FL?$CFd?$FN?5@ 10063b58     voice_status.obj
 0003:00000b80       ??_C@_0CC@ILLI@?5?5?5?5?9?5m_AudiblePlayers?$FL?$CFd?$FN?5?$DN?5?$CFlu@ 10063b80     voice_status.obj
 0003:00000ba4       ??_C@_0CC@KOIE@CVoiceStatus?3?3HandleVoiceMaskMsg@ 10063ba4     voice_status.obj
 0003:00000bc8       ??_C@_0CB@LPCN@CVoiceStatus?3?3HandleReqStateMsg?6@ 10063bc8     voice_status.obj
 0003:00000bec       ??_C@_0EC@GGDA@CVoiceStatus?3?3SetPlayerBlockedSt@ 10063bec     voice_status.obj
 0003:00000c30       ??_C@_0CM@BFAD@CVoiceStatus?3?3SetPlayerBlockedSt@ 10063c30     voice_status.obj
 0003:00000c5c       ??_C@_0CM@COPM@CVoiceStatus?3?3SetPlayerBlockedSt@ 10063c5c     voice_status.obj
 0003:00000c88       ??_C@_0BC@NNNO@?$CDVoice_Properties?$AA@ 10063c88     voice_vgui_tweakdlg.obj
 0003:00000c9c       ??_C@_08KKAM@?$CDMenu_OK?$AA@ 10063c9c     voice_vgui_tweakdlg.obj
 0003:00000ca8       ??_C@_0BJ@OKOP@Enable?5Voice?5In?5This?5Mod?$AA@ 10063ca8     voice_vgui_tweakdlg.obj
 0003:00000cc4       ??_C@_0BF@JLGH@gfx?1vgui?1checked?4tga?$AA@ 10063cc4     voice_vgui_tweakdlg.obj
 0003:00000cdc       ??_C@_0BH@GPOC@gfx?1vgui?1unchecked?4tga?$AA@ 10063cdc     voice_vgui_tweakdlg.obj
 0003:00000cf4       ??_C@_0BA@HDMO@?$CDSpeaker_Volume?$AA@ 10063cf4     voice_vgui_tweakdlg.obj
 0003:00000d04       ??_C@_0M@JDLM@?$CDMic_Volume?$AA@ 10063d04     voice_vgui_tweakdlg.obj
 0003:00000d10       ??_C@_0BC@PBKM@voice_modenable?50?$AA@ 10063d10     voice_vgui_tweakdlg.obj
 0003:00000d24       ?iScreenRes@@3PAHA         10063d24     rally_vgui.obj
 0003:00000d44       ?bResetFrames@@3_NA        10063d44     rally_vgui.obj
 0003:00000d48       ??_C@_06OOKO@?$CFs_dwn?$AA@ 10063d48     rally_vgui.obj
 0003:00000d50       ??_C@_05GNBA@?$CFs_up?$AA@ 10063d50     rally_vgui.obj
 0003:00000d58       ??_C@_09KHFB@Spectator?$AA@ 10063d58     rally_vgui.obj
 0003:00000d64       ??_C@_0BA@KCPE@gfx?1vgui?1?$CFs?4tga?$AA@ 10063d64     rally_vgui.obj
 0003:00000d74       ??_C@_0L@KIHP@hlrally?1?$CFs?$AA@ 10063d74     rally_vgui.obj
 0003:00000d80       ??_C@_06IKBO@?$CF?$CFd_?$CFs?$AA@ 10063d80     rally_vgui.obj
 0003:00000d88       ??_C@_0L@PMIN@class_bg?$CFi?$AA@ 10063d88     rally_vgui.obj
 0003:00000d94       ??_C@_0BA@NNCD@vgui?1select?4wav?$AA@ 10063d94     rally_vgui.obj
 0003:00000da4       ??_C@_0BA@CBLI@vgui?1cancel?4wav?$AA@ 10063da4     rally_vgui.obj
 0003:00000db4       ??_C@_06HLPO@Cancel?$AA@   10063db4     rally_vgui.obj
 0003:00000dbc       ??_C@_08CBNK@?$CFs?5?9?5$?$CFi?$AA@ 10063dbc     rally_vgui.obj
 0003:00000dc8       ??_C@_0L@PHEB@?$CFs_pointer?$AA@ 10063dc8     rally_vgui.obj
 0003:00000dd4       ??_C@_0L@DLHC@?$CFs_uncheck?$AA@ 10063dd4     rally_vgui.obj
 0003:00000de0       ??_C@_08LMI@?$CFs_check?$AA@ 10063de0     rally_vgui.obj
 0003:00000dec       ??_C@_0BF@GHJ@hlrally?2media?2?$CFs?4avi?$AA@ 10063dec     rally_vgui.obj
 0003:00000e0c       ??_C@_0BC@DEGF@rally_mp3playlist?$AA@ 10063e0c     rally_vguifx.obj
 0003:00000e20       ??_C@_0N@MAMI@playlist?4pls?$AA@ 10063e20     rally_vguifx.obj
 0003:00000e30       ??_C@_0O@CAAI@rally_mp3skin?$AA@ 10063e30     rally_vguifx.obj
 0003:00000e40       ??_C@_07FMEP@default?$AA@  10063e40     rally_vguifx.obj
 0003:00000e48       ??_C@_0P@JOPH@cl_2dcountdown?$AA@ 10063e48     rally_vguifx.obj
 0003:00000e58       ??_C@_04EGNP@vg_z?$AA@     10063e58     rally_vguifx.obj
 0003:00000e60       ??_C@_03FOKL@?923?$AA@     10063e60     rally_vguifx.obj
 0003:00000e64       ??_C@_04LJGG@vg_y?$AA@     10063e64     rally_vguifx.obj
 0003:00000e6c       ??_C@_01FLP@9?$AA@         10063e6c     rally_vguifx.obj
 0003:00000e70       ??_C@_04BDPB@vg_x?$AA@     10063e70     rally_vguifx.obj
 0003:00000e78       ??_C@_02DDFP@65?$AA@       10063e78     rally_vguifx.obj
 0003:00000e7c       ??_C@_0BI@FOIH@models?1player?1?$CFs?1?$CFs?4mdl?$AA@ 10063e7c     rally_vguifx.obj
 0003:00000e94       ??_C@_0BF@DGKA@sprites?1r_shadow?4spr?$AA@ 10063e94     rally_vguifx.obj
 0003:00000eac       ??_C@_0BH@MCKE@sprites?1showroom_f?4spr?$AA@ 10063eac     rally_vguifx.obj
 0003:00000ec4       ??_C@_0BG@GJNH@sprites?1vgui_back?4spr?$AA@ 10063ec4     rally_vguifx.obj
 0003:00000edc       ??_C@_09HGEA@three?4mdl?$AA@ 10063edc     rally_vguifx.obj
 0003:00000ee8       ??_C@_07BILA@two?4mdl?$AA@ 10063ee8     rally_vguifx.obj
 0003:00000ef0       ??_C@_07NFDK@one?4mdl?$AA@ 10063ef0     rally_vguifx.obj
 0003:00000ef8       ??_C@_06GGGC@go?4mdl?$AA@  10063ef8     rally_vguifx.obj
 0003:00000f00       ??_C@_04IFPO@Go?$CB?6?$AA@ 10063f00     rally_vguifx.obj
 0003:00000f08       ??_C@_03IFAG@?$CFi?6?$AA@  10063f08     rally_vguifx.obj
 0003:00000f0c       ??_C@_04OAHI@Time?$AA@     10063f0c     rally_vguifx.obj
 0003:00000f14       ??_C@_08BLKF@Position?$AA@ 10063f14     rally_vguifx.obj
 0003:00000f20       ??_C@_04JKOE@Node?$AA@     10063f20     rally_vguifx.obj
 0003:00000f28       ??_C@_05IINE@Scale?$AA@    10063f28     rally_vguifx.obj
 0003:00000f30       ??_C@_06CAAP@Length?$AA@   10063f30     rally_vguifx.obj
 0003:00000f38       ??_C@_05LMDG@Angle?$AA@    10063f38     rally_vguifx.obj
 0003:00000f40       ??_C@_06GKHB@Origin?$AA@   10063f40     rally_vguifx.obj
 0003:00000f48       ??_C@_07NDNK@General?$AA@  10063f48     rally_vguifx.obj
 0003:00000f50       ??_C@_0BA@KKFO@CustomiseButton?$AA@ 10063f50     rally_vguifx.obj
 0003:00000f60       ??_C@_0BA@MACH@CustomiseNoAnim?$AA@ 10063f60     rally_vguifx.obj
 0003:00000f70       ??_C@_07KPEB@Numbers?$AA@  10063f70     rally_vguifx.obj
 0003:00000f78       ??_C@_09HLKB@models?1?$CFs?$AA@ 10063f78     rally_vguifx.obj
 0003:00000f88       ??_C@_08FOCE@checkbox?$AA@ 10063f88     vgui_ClassMenu.obj
 0003:00000f94       ??_C@_06DMII@Manual?$AA@   10063f94     vgui_ClassMenu.obj
 0003:00000f9c       ??_C@_0L@GKKO@Gear?5Ratio?$AA@ 10063f9c     vgui_ClassMenu.obj
 0003:00000fa8       ??_C@_09BGFM@gearratio?$AA@ 10063fa8     vgui_ClassMenu.obj
 0003:00000fb4       ??_C@_0BF@OCPC@?$CDTitle_MiscCustomise?$AA@ 10063fb4     vgui_ClassMenu.obj
 0003:00000fcc       ??_C@_0BB@JEMB@customise_window?$AA@ 10063fcc     vgui_ClassMenu.obj
 0003:00000fe0       ??_C@_0N@ONAH@?$CDTitle_Model?$AA@ 10063fe0     vgui_ClassMenu.obj
 0003:00000ff0       ??_C@_0M@GOOF@?$CDTitle_Part?$AA@ 10063ff0     vgui_ClassMenu.obj
 0003:00000ffc       ??_C@_0P@CHKF@header_carmenu?$AA@ 10063ffc     vgui_ClassMenu.obj
 0003:0000100c       ??_C@_07JPGP@hlrally?$AA@  1006400c     vgui_ClassMenu.obj
 0003:00001014       ??_C@_0O@FHEG@Briefing?5Text?$AA@ 10064014     vgui_ClassMenu.obj
 0003:00001024       ??_C@_0L@BNKO@Title?5Font?$AA@ 10064024     vgui_ClassMenu.obj
 0003:00001030       ??_C@_0N@KPJI@rally_manual?$AA@ 10064030     vgui_ClassMenu.obj
 0003:00001040       ??_C@_0N@ENEP@gearratio?5?$CFi?$AA@ 10064040     vgui_ClassMenu.obj
 0003:00001050       ??_C@_0BB@BHIK@player?1?$CFs?1?$CFs?4mdl?$AA@ 10064050     vgui_ClassMenu.obj
 0003:00001064       ??_C@_09PHOO@changecar?$AA@ 10064064     vgui_ClassMenu.obj
 0003:00001070       ??_C@_07JJH@?$CFs?3?5$?$CFi?$AA@ 10064070     vgui_ClassMenu.obj
 0003:00001078       ??_C@_0N@IOE@?$CDLabel_Money?$AA@ 10064078     vgui_ClassMenu.obj
 0003:00001088       ??_C@_05KBGO@Value?$AA@    10064088     vgui_ClassMenu.obj
 0003:00001090       ??_C@_04IHF@Cost?$AA@      10064090     vgui_ClassMenu.obj
 0003:00001098       ??_C@_04DKMG@Desc?$AA@     10064098     vgui_ClassMenu.obj
 0003:000010a0       ??_C@_0O@ECFL@vgui?1move?4wav?$AA@ 100640a0     vgui_ClassMenu.obj
 0003:000010b0       ??_C@_0N@KEBB@Cost?3?5$?$CFi?400?$AA@ 100640b0     vgui_ClassMenu.obj
 0003:000010c0       ??_C@_0BA@DCEF@?$CDTitle_PartInfo?$AA@ 100640c0     vgui_ClassMenu.obj
 0003:000010d0       ??_C@_0BE@DPAB@Primary?5Button?5Text?$AA@ 100640d0     vgui_ClassMenu.obj
 0003:000010e4       ??_C@_08LPHL@buy?5?$CC?$CFs?$CC?$AA@ 100640e4     vgui_ClassMenu.obj
 0003:000010f0       ??_C@_0BD@NHLJ@Insufficient?5Funds?$AA@ 100640f0     vgui_ClassMenu.obj
 0003:00001104       ??_C@_02DILL@?$CFs?$AA@    10064104     vgui_ConsolePanel.obj
 0003:00001108       ??_C@_09GNCL@Alternate?$AA@ 10064108     vgui_ControlConfigPanel.obj
 0003:00001114       ??_C@_0N@DICO@Key?5?1?5Button?$AA@ 10064114     vgui_ControlConfigPanel.obj
 0003:00001124       ??_C@_06NMFG@Action?$AA@   10064124     vgui_ControlConfigPanel.obj
 0003:0000112c       ??_C@_0BG@DCCC@You?5are?5a?5dumb?5monkey?$AA@ 1006412c     vgui_ControlConfigPanel.obj
 0003:00001144       ??_C@_04NKMB@Goat?$AA@     10064144     vgui_ControlConfigPanel.obj
 0003:0000114c       ??_C@_0BA@NIKI@?$CC?$CF?$FL?$FO?$CC?$FN?$CC?5?$CC?$CF?$FL?$FO?$CC?$FN?$CC?$AA@ 1006414c     vgui_ControlConfigPanel.obj
 0003:0000115c       ??_C@_0N@MGK@?$CFs?5?3?5BindAlt?$AA@ 1006415c     vgui_ControlConfigPanel.obj
 0003:0000116c       ??_C@_09JDAE@?$CFs?5?3?5Bind?$AA@ 1006416c     vgui_ControlConfigPanel.obj
 0003:00001178       ?sArrowFilenames@@3PAPADA  10064178     vgui_CustomObjects.obj
 0003:00001188       ??_C@_07BHN@arrowrt?$AA@   10064188     vgui_CustomObjects.obj
 0003:00001190       ??_C@_07KJHP@arrowlt?$AA@  10064190     vgui_CustomObjects.obj
 0003:00001198       ??_C@_07LEMN@arrowdn?$AA@  10064198     vgui_CustomObjects.obj
 0003:000011a0       ??_C@_07MKHE@arrowup?$AA@  100641a0     vgui_CustomObjects.obj
 0003:000011a8       ??_C@_07LCDG@?5?5?5?5?5?$CFs?$AA@ 100641a8     vgui_CustomObjects.obj
 0003:000011b0       ??_C@_08JNPP@?5?5?$CFc?5?5?$CFs?$AA@ 100641b0     vgui_CustomObjects.obj
 0003:000011bc       ??_C@_0BC@NDKN@hud_classautokill?$AA@ 100641bc     vgui_CustomObjects.obj
 0003:000011d0       ??_C@_04CHLA@kill?$AA@     100641d0     vgui_CustomObjects.obj
 0003:000011d8       ??_C@_07ODDE@biglogo?$AA@  100641d8     vgui_mainmenu.obj
 0003:000011e0       ??_C@_08BGFA@TopSpeed?$AA@ 100641e0     vgui_mainmenu.obj
 0003:000011ec       ??_C@_08MJGF@Handling?$AA@ 100641ec     vgui_mainmenu.obj
 0003:000011f8       ??_C@_05DDDH@Accel?$AA@    100641f8     vgui_mainmenu.obj
 0003:00001200       ??_C@_0M@OCKC@parts_turbo?$AA@ 10064200     vgui_mainmenu.obj
 0003:0000120c       ??_C@_0BC@HJBN@parts_intercooler?$AA@ 1006420c     vgui_mainmenu.obj
 0003:00001220       ??_C@_0O@BODH@parts_muffler?$AA@ 10064220     vgui_mainmenu.obj
 0003:00001230       ??_C@_0M@GLLL@parts_tyres?$AA@ 10064230     vgui_mainmenu.obj
 0003:0000123c       ??_C@_09MHNO@parts_car?$AA@ 1006423c     vgui_mainmenu.obj
 0003:00001248       ??_C@_0BB@GLGO@header_partslist?$AA@ 10064248     vgui_mainmenu.obj
 0003:0000125c       ??_C@_04MHMI@race?$AA@     1006425c     vgui_mainmenu.obj
 0003:00001264       ??_C@_08CLAP@spectate?$AA@ 10064264     vgui_mainmenu.obj
 0003:00001270       ??_C@_09OOFE@spectator?$AA@ 10064270     vgui_mainmenu.obj
 0003:0000127c       ??_C@_09JAJO@customise?$AA@ 1006427c     vgui_mainmenu.obj
 0003:00001288       ??_C@_09CBKL@carselect?$AA@ 10064288     vgui_mainmenu.obj
 0003:00001294       ??_C@_0BA@DPLP@header_mainmenu?$AA@ 10064294     vgui_mainmenu.obj
 0003:000012a4       ??_C@_0P@OLNK@Team?5Info?5Text?$AA@ 100642a4     vgui_mainmenu.obj
 0003:000012b4       ??_C@_0BJ@GPC@maps?1default_mapinfo?4txt?$AA@ 100642b4     vgui_mainmenu.obj
 0003:000012d0       ??_C@_0N@NPCM@_mapinfo?4txt?$AA@ 100642d0     vgui_mainmenu.obj
 0003:000012e4       ??_C@_01FCOA@?5?$AA@       100642e4     vgui_mp3.obj
 0003:000012e8       ??_C@_0BN@FLBE@?$CCrally_mp3playlist?$CC?5is?5?$CC?$CFs?$CC?6?$AA@ 100642e8     vgui_mp3.obj
 0003:00001308       ??_C@_06MHIJ@mp3cmd?$AA@   10064308     vgui_mp3.obj
 0003:00001310       ??_C@_09LAN@mp3player?$AA@ 10064310     vgui_mp3.obj
 0003:0000131c       ??_C@_02JAFN@?$CFi?$AA@    1006431c     vgui_mp3.obj
 0003:00001320       ??_C@_07DAJE@?$CFs?5?9?5?$CFs?$AA@ 10064320     vgui_mp3.obj
 0003:00001328       ??_C@_04IHIO@TPE1?$AA@     10064328     vgui_mp3.obj
 0003:00001330       ??_C@_06DIBI@ARTIST?$AA@   10064330     vgui_mp3.obj
 0003:00001338       ??_C@_04OHPN@TIT2?$AA@     10064338     vgui_mp3.obj
 0003:00001340       ??_C@_05NMBJ@TITLE?$AA@    10064340     vgui_mp3.obj
 0003:00001348       ??_C@_07PCOP@http?3?1?1?$AA@ 10064348     vgui_mp3.obj
 0003:00001350       ??_C@_05LHJG@title?$AA@    10064350     vgui_mp3.obj
 0003:00001358       ??_C@_06OHJD@artist?$AA@   10064358     vgui_mp3.obj
 0003:00001360       ??_C@_06GLIF@repeat?$AA@   10064360     vgui_mp3.obj
 0003:00001368       ??_C@_07NOOO@shuffle?$AA@  10064368     vgui_mp3.obj
 0003:00001370       ??_C@_04HLAL@prev?$AA@     10064370     vgui_mp3.obj
 0003:00001378       ??_C@_04ICIO@next?$AA@     10064378     vgui_mp3.obj
 0003:00001380       ??_C@_04JPPJ@stop?$AA@     10064380     vgui_mp3.obj
 0003:00001388       ??_C@_05PBCN@pause?$AA@    10064388     vgui_mp3.obj
 0003:00001390       ??_C@_04HNFE@play?$AA@     10064390     vgui_mp3.obj
 0003:00001398       ??_C@_08EMNO@playlist?$AA@ 10064398     vgui_mp3.obj
 0003:000013a4       ??_C@_0FN@FMAH@Error?5loading?5skin?5from?5?8hlrally@ 100643a4     vgui_mp3.obj
 0003:00001404       ??_C@_0BM@JJAI@hlrally?1gfx?1skins?1?$CFs?1?$CFs?4bmp?$AA@ 10064404     vgui_mp3.obj
 0003:00001420       ??_C@_0DH@GFDL@Error?5loading?5skin?5from?5?8hlrally@ 10064420     vgui_mp3.obj
 0003:00001458       ??_C@_07GCHN@play?5?$CFi?$AA@ 10064458     vgui_mp3.obj
 0003:00001460       ??_C@_09MDE@?$CF?42i?3?$CF?42i?$AA@ 10064460     vgui_mp3.obj
 0003:0000146c       ??_C@_07LHKI@?$CFi?4?5?5?$CFs?$AA@ 1006446c     vgui_mp3.obj
 0003:00001474       ??_C@_0BG@BPJL@Scoreboard?5Small?5Text?$AA@ 10064474     vgui_mp3.obj
 0003:0000148c       ??_C@_0L@FLMO@SelectedBG?$AA@ 1006448c     vgui_mp3.obj
 0003:00001498       ??_C@_06BILL@Normal?$AA@   10064498     vgui_mp3.obj
 0003:000014a0       ??_C@_08CFE@NormalBG?$AA@  100644a0     vgui_mp3.obj
 0003:000014ac       ??_C@_07KJDJ@Current?$AA@  100644ac     vgui_mp3.obj
 0003:000014b4       ??_C@_0CA@NIDD@hlrally?1gfx?1skins?1?$CFs?1pledit?4txt?$AA@ 100644b4     vgui_mp3.obj
 0003:000014d4       ??_C@_0BD@PEOA@Welcome?5to?5HLRally?$AA@ 100644d4     vgui_mp3.obj
 0003:000014e8       ??_C@_04LHJL@text?$AA@     100644e8     vgui_mp3.obj
 0003:000014f0       ??_C@_06CPEA@posbar?$AA@   100644f0     vgui_mp3.obj
 0003:000014f8       ??_C@_07PKFM@nums_ex?$AA@  100644f8     vgui_mp3.obj
 0003:00001500       ??_C@_07HNPF@numbers?$AA@  10064500     vgui_mp3.obj
 0003:00001508       ??_C@_0CB@BPON@hlrally?1gfx?1skins?1?$CFs?1numbers?4bmp@ 10064508     vgui_mp3.obj
 0003:0000152c       ??_C@_07DMNA@balance?$AA@  1006452c     vgui_mp3.obj
 0003:00001534       ??_C@_06FLOP@volume?$AA@   10064534     vgui_mp3.obj
 0003:0000153c       ??_C@_08NPDK@monoster?$AA@ 1006453c     vgui_mp3.obj
 0003:00001548       ??_C@_07LNJL@shufrep?$AA@  10064548     vgui_mp3.obj
 0003:00001550       ??_C@_08PNFC@cbuttons?$AA@ 10064550     vgui_mp3.obj
 0003:0000155c       ??_C@_08JCKC@titlebar?$AA@ 1006455c     vgui_mp3.obj
 0003:00001568       ??_C@_04HBMH@main?$AA@     10064568     vgui_mp3.obj
 0003:00001570       ??_C@_05NELB@?5?5?5?$DP?$CK?$AA@ 10064570     vgui_mp3.obj
 0003:00001578       ??_C@_0CA@HBAE@0123456789?5?5?3?$CI?$CJ?9?8?$CB_?$CL?2?1?$FL?$FN?$FO?$CG?$CF?4?$DN$?$CD?$AA@ 10064578     vgui_mp3.obj
 0003:00001598       ??_C@_0CA@NBHB@abcdefghijklmnopqrstuvwxyz?$CC?$EA?5?5?5?$AA@ 10064598     vgui_mp3.obj
 0003:000015b8       ??_C@_06ODLD@pledit?$AA@   100645b8     vgui_mp3.obj
 0003:000015c0       ??_C@_03NHPF@pls?$AA@      100645c0     vgui_mp3.obj
 0003:000015c4       ??_C@_08ENCC@hlrally?1?$AA@ 100645c4     vgui_mp3.obj
 0003:000015d0       ??_C@_0CL@BPBD@WARNING?3?5Error?5reading?5playlist?3@ 100645d0     vgui_mp3.obj
 0003:000015fc       ??_C@_0CJ@GDKL@WARNING?3?5PLS?5Version?5wrong?0?5shou@ 100645fc     vgui_mp3.obj
 0003:00001628       ??_C@_07MNFD@Version?$AA@  10064628     vgui_mp3.obj
 0003:00001630       ??_C@_0BA@BBMO@NumberOfEntries?$AA@ 10064630     vgui_mp3.obj
 0003:00001640       ??_C@_05LDDM@Title?$AA@    10064640     vgui_mp3.obj
 0003:00001648       ??_C@_0O@NLBO@?$CFs?2hlrally?2?$CFs?$AA@ 10064648     vgui_mp3.obj
 0003:00001658       ??_C@_05NKLH@?$CFc?3?$CFs?$AA@ 10064658     vgui_mp3.obj
 0003:00001660       ??_C@_04OJFH@File?$AA@     10064660     vgui_mp3.obj
 0003:00001690       ??_C@_0M@GGAJ@bitmapfonts?$AA@ 10064690     vgui_SchemeManager.obj
 0003:0000169c       ??_C@_0BJ@MGD@gfx?2vgui?2fonts?2?$CFd_?$CFs?4tga?$AA@ 1006469c     vgui_SchemeManager.obj
 0003:000016b8       ??_C@_0P@KHJE@Default?5Scheme?$AA@ 100646b8     vgui_SchemeManager.obj
 0003:000016c8       ??_C@_0DG@PJNC@font?5scheme?5text?5file?5MUST?5start@ 100646c8     vgui_SchemeManager.obj
 0003:00001700       ??_C@_0FA@JEMN@error?5parsing?5font?5scheme?5text?5f@ 10064700     vgui_SchemeManager.obj
 0003:00001750       ??_C@_0EP@KAMK@error?5parsing?5font?5scheme?5text?5f@ 10064750     vgui_SchemeManager.obj
 0003:000017a0       ??_C@_0M@MMCC@BorderColor?$AA@ 100647a0     vgui_SchemeManager.obj
 0003:000017ac       ??_C@_0BB@LDDE@BgColorMousedown?$AA@ 100647ac     vgui_SchemeManager.obj
 0003:000017c0       ??_C@_0BB@DEDO@FgColorMousedown?$AA@ 100647c0     vgui_SchemeManager.obj
 0003:000017d4       ??_C@_0N@EDOD@BgColorArmed?$AA@ 100647d4     vgui_SchemeManager.obj
 0003:000017e4       ??_C@_0N@PEEJ@FgColorArmed?$AA@ 100647e4     vgui_SchemeManager.obj
 0003:000017f4       ??_C@_07LEOE@BgColor?$AA@  100647f4     vgui_SchemeManager.obj
 0003:000017fc       ??_C@_07OLC@FgColor?$AA@   100647fc     vgui_SchemeManager.obj
 0003:00001804       ??_C@_0L@MMAN@FontWeight?$AA@ 10064804     vgui_SchemeManager.obj
 0003:00001810       ??_C@_08ODBD@FontSize?$AA@ 10064810     vgui_SchemeManager.obj
 0003:0000181c       ??_C@_08LHPB@FontName?$AA@ 1006481c     vgui_SchemeManager.obj
 0003:00001828       ??_C@_05CNHG@Arial?$AA@    10064828     vgui_SchemeManager.obj
 0003:00001830       ??_C@_0L@HHIA@SchemeName?$AA@ 10064830     vgui_SchemeManager.obj
 0003:0000183c       ??_C@_01KPOD@?$DN?$AA@     1006483c     vgui_SchemeManager.obj
 0003:00001840       ??_C@_0CB@BCBH@Unable?5to?5find?5?$CK_textscheme?4txt?6@ 10064840     vgui_SchemeManager.obj
 0003:00001864       ??_C@_0BA@MLOJ@_textscheme?4txt?$AA@ 10064864     vgui_SchemeManager.obj
 0003:00001874       ??_C@_06DFCG@?$CFs?$CFd?$CFs?$AA@ 10064874     vgui_SchemeManager.obj
 0003:0000187c       ??_C@_0M@LCDJ@?$CFd?5?$CFd?5?$CFd?5?$CFd?$AA@ 1006487c     vgui_SchemeManager.obj
 0003:00001888       ?g_ColumnInfo@@3PAVSBColumnInfo@@A 10064888     vgui_ScorePanel.obj
 0003:000018e8       ??_C@_06DGMJ@?$CDVOICE?$AA@ 100648e8     vgui_ScorePanel.obj
 0003:000018f0       ??_C@_08LODN@?$CDLATENCY?$AA@ 100648f0     vgui_ScorePanel.obj
 0003:000018fc       ??_C@_06DJNF@?$CDSCORE?$AA@ 100648fc     vgui_ScorePanel.obj
 0003:00001904       ??_C@_09JOIB@?$CDBEST_LAP?$AA@ 10064904     vgui_ScorePanel.obj
 0003:00001910       ??_C@_09BJEH@?$CDPOSITION?$AA@ 10064910     vgui_ScorePanel.obj
 0003:0000191c       ??_C@_04FDLE@?$CDCAR?$AA@  1006491c     vgui_ScorePanel.obj
 0003:00001924       ??_C@_0CD@IKCF@gfx?1vgui?1640_scoreboardtracker?4t@ 10064924     vgui_ScorePanel.obj
 0003:00001948       ??_C@_0BG@GLCI@Scoreboard?5Title?5Text?$AA@ 10064948     vgui_ScorePanel.obj
 0003:00001960       ??_C@_05JKGE@?$CFs?5?$CFs?$AA@ 10064960     vgui_ScorePanel.obj
 0003:00001968       ??_C@_07FLOH@?9?3?9?9?4?9?9?$AA@ 10064968     vgui_ScorePanel.obj
 0003:00001970       ??_C@_04INME@?$CFs?5?5?$AA@ 10064970     vgui_ScorePanel.obj
 0003:00001978       ??_C@_07CMOD@?$CI?$CFd?5?$CFs?$CJ?$AA@ 10064978     vgui_ScorePanel.obj
 0003:00001980       ??_C@_0P@GLBP@?$CDPlayer_plural?$AA@ 10064980     vgui_ScorePanel.obj
 0003:00001990       ??_C@_07NIOK@?$CDPlayer?$AA@ 10064990     vgui_ScorePanel.obj
 0003:00001998       ??_C@_0M@BKNJ@Competitors?$AA@ 10064998     vgui_ScorePanel.obj
 0003:000019a4       ??_C@_0M@FMCG@?$CDSpectators?$AA@ 100649a4     vgui_ScorePanel.obj
 0003:000019b0       ??_C@_0O@CGLN@?$CF2i?3?$CF?42i?4?$CF?42i?$AA@ 100649b0     vgui_ScorePanel.obj
 0003:000019c0       ??_C@_02MECO@?$CFd?$AA@    100649c0     vgui_ScorePanel.obj
 0003:000019c4       ??_C@_0BA@IHAI@Scoreboard?5Text?$AA@ 100649c4     vgui_ScorePanel.obj
 0003:000019d4       ??_C@_0M@BFEC@?$CFc?$CK?$CK?5?$CFs?5?$CFs?6?$AA@ 100649d4     vgui_ScorePanel.obj
 0003:000019e0       ??_C@_0BM@BFKJ@?$CDNo_longer_hear_that_player?$AA@ 100649e0     vgui_ScorePanel.obj
 0003:000019fc       ??_C@_06PJBC@?$CDMuted?$AA@ 100649fc     vgui_ScorePanel.obj
 0003:00001a04       ??_C@_08MDEH@?$CFc?$CK?$CK?5?$CFs?6?$AA@ 10064a04     vgui_ScorePanel.obj
 0003:00001a10       ??_C@_08POMA@?$CDUnmuted?$AA@ 10064a10     vgui_ScorePanel.obj
 0003:00001a1c       ??_C@_0BJ@MDN@gfx?1vgui?1320_arrowrt?4tga?$AA@ 10064a1c     vgui_scrollbar2.obj
 0003:00001a38       ??_C@_0BJ@IGPO@gfx?1vgui?1320_arrowlt?4tga?$AA@ 10064a38     vgui_scrollbar2.obj
 0003:00001a54       ??_C@_0BH@FEO@gfx?1vgui?1arrowdown?4tga?$AA@ 10064a54     vgui_scrollbar2.obj
 0003:00001a6c       ??_C@_0BF@CGBN@gfx?1vgui?1arrowup?4tga?$AA@ 10064a6c     vgui_scrollbar2.obj
 0003:00001a84       ??_C@_05JIMF@Close?$AA@    10064a84     vgui_ServerBrowser.obj
 0003:00001a8c       ??_C@_04DFLL@Stop?$AA@     10064a8c     vgui_ServerBrowser.obj
 0003:00001a94       ??_C@_07HCFN@Refresh?$AA@  10064a94     vgui_ServerBrowser.obj
 0003:00001a9c       ??_C@_07OFDN@Connect?$AA@  10064a9c     vgui_ServerBrowser.obj
 0003:00001aa4       ??_C@_07LMBH@Latency?$AA@  10064aa4     vgui_ServerBrowser.obj
 0003:00001aac       ??_C@_04LBKD@ping?$AA@     10064aac     vgui_ServerBrowser.obj
 0003:00001ab4       ??_C@_07HLIN@current?$AA@  10064ab4     vgui_ServerBrowser.obj
 0003:00001abc       ??_C@_03DIFO@Map?$AA@      10064abc     vgui_ServerBrowser.obj
 0003:00001ac0       ??_C@_03HKIL@map?$AA@      10064ac0     vgui_ServerBrowser.obj
 0003:00001ac4       ??_C@_06HCAM@Server?$AA@   10064ac4     vgui_ServerBrowser.obj
 0003:00001acc       ??_C@_08NNNB@hostname?$AA@ 10064acc     vgui_ServerBrowser.obj
 0003:00001ad8       ??_C@_07DPCC@Address?$AA@  10064ad8     vgui_ServerBrowser.obj
 0003:00001ae0       ??_C@_07ONJG@address?$AA@  10064ae0     vgui_ServerBrowser.obj
 0003:00001ae8       ??_C@_0CJ@BOME@Press?5?8Refresh?8?5to?5search?5for?5se@ 10064ae8     vgui_ServerBrowser.obj
 0003:00001b14       ??_C@_0CC@NEHG@Waiting?5for?5servers?5to?5respond?4?4@ 10064b14     vgui_ServerBrowser.obj
 0003:00001b38       ??_C@_03CODD@max?$AA@      10064b38     vgui_ServerBrowser.obj
 0003:00001b3c       ??_C@_0P@KCOO@togglebrowser?6?$AA@ 10064b3c     vgui_ServerBrowser.obj
 0003:00001b4c       ??_C@_0M@HMCF@connect?5?$CFs?6?$AA@ 10064b4c     vgui_ServerBrowser.obj
 0003:00001b58       ?iNumberOfTeamColors@@3HA  10064b58     vgui_TeamFortressViewport.obj
 0003:00001b5c       ?iTeamColors@@3PAY02HA     10064b5c     vgui_TeamFortressViewport.obj
 0003:00001b98       ?sTFClasses@@3PAPADA       10064b98     vgui_TeamFortressViewport.obj
 0003:00001bc4       ?sLocalisedClasses@@3PAPADA 10064bc4     vgui_TeamFortressViewport.obj
 0003:00001bf4       ?sTFClassSelection@@3PAPADA 10064bf4     vgui_TeamFortressViewport.obj
 0003:00001c24       ?iBuildingCosts@@3PAHA     10064c24     vgui_TeamFortressViewport.obj
 0003:00001c2c       ?sTFValidClassInts@@3PAHA  10064c2c     vgui_TeamFortressViewport.obj
 0003:00001c58       ??_C@_08LKIF@randompc?$AA@ 10064c58     vgui_TeamFortressViewport.obj
 0003:00001c64       ??_C@_08PEHC@engineer?$AA@ 10064c64     vgui_TeamFortressViewport.obj
 0003:00001c70       ??_C@_03KFAP@spy?$AA@      10064c70     vgui_TeamFortressViewport.obj
 0003:00001c74       ??_C@_04EBCG@pyro?$AA@     10064c74     vgui_TeamFortressViewport.obj
 0003:00001c7c       ??_C@_05NNLD@hwguy?$AA@    10064c7c     vgui_TeamFortressViewport.obj
 0003:00001c84       ??_C@_05DJAM@medic?$AA@    10064c84     vgui_TeamFortressViewport.obj
 0003:00001c8c       ??_C@_07KIBL@demoman?$AA@  10064c8c     vgui_TeamFortressViewport.obj
 0003:00001c94       ??_C@_07KOMP@soldier?$AA@  10064c94     vgui_TeamFortressViewport.obj
 0003:00001c9c       ??_C@_06NLHN@sniper?$AA@   10064c9c     vgui_TeamFortressViewport.obj
 0003:00001ca4       ??_C@_05DKAM@scout?$AA@    10064ca4     vgui_TeamFortressViewport.obj
 0003:00001cac       ??_C@_08NNKK@civilian?$AA@ 10064cac     vgui_TeamFortressViewport.obj
 0003:00001cb8       ??_C@_07JJKB@?$CDRandom?$AA@ 10064cb8     vgui_TeamFortressViewport.obj
 0003:00001cc0       ??_C@_09POHN@?$CDEngineer?$AA@ 10064cc0     vgui_TeamFortressViewport.obj
 0003:00001ccc       ??_C@_04CCGO@?$CDSpy?$AA@  10064ccc     vgui_TeamFortressViewport.obj
 0003:00001cd4       ??_C@_05PKB@?$CDPyro?$AA@  10064cd4     vgui_TeamFortressViewport.obj
 0003:00001cdc       ??_C@_06DLGK@?$CDHWGuy?$AA@ 10064cdc     vgui_TeamFortressViewport.obj
 0003:00001ce4       ??_C@_06DHEC@?$CDMedic?$AA@ 10064ce4     vgui_TeamFortressViewport.obj
 0003:00001cec       ??_C@_08KHAO@?$CDDemoman?$AA@ 10064cec     vgui_TeamFortressViewport.obj
 0003:00001cf8       ??_C@_08KBNK@?$CDSoldier?$AA@ 10064cf8     vgui_TeamFortressViewport.obj
 0003:00001d04       ??_C@_07MOHD@?$CDSniper?$AA@ 10064d04     vgui_TeamFortressViewport.obj
 0003:00001d0c       ??_C@_06DEEC@?$CDScout?$AA@ 10064d0c     vgui_TeamFortressViewport.obj
 0003:00001d14       ??_C@_09NHKF@?$CDCivilian?$AA@ 10064d14     vgui_TeamFortressViewport.obj
 0003:00001d20       ??_C@_08NFEH@CIVILIAN?$AA@ 10064d20     vgui_TeamFortressViewport.obj
 0003:00001d2c       ??_C@_08PMJP@ENGINEER?$AA@ 10064d2c     vgui_TeamFortressViewport.obj
 0003:00001d38       ??_C@_03GAGI@SPY?$AA@      10064d38     vgui_TeamFortressViewport.obj
 0003:00001d3c       ??_C@_04COAD@PYRO?$AA@     10064d3c     vgui_TeamFortressViewport.obj
 0003:00001d44       ??_C@_05LGDM@HWGUY?$AA@    10064d44     vgui_TeamFortressViewport.obj
 0003:00001d4c       ??_C@_05FCID@MEDIC?$AA@    10064d4c     vgui_TeamFortressViewport.obj
 0003:00001d54       ??_C@_07KFCE@DEMOMAN?$AA@  10064d54     vgui_TeamFortressViewport.obj
 0003:00001d5c       ??_C@_07KDPA@SOLDIER?$AA@  10064d5c     vgui_TeamFortressViewport.obj
 0003:00001d64       ??_C@_06EPG@SNIPER?$AA@    10064d64     vgui_TeamFortressViewport.obj
 0003:00001d6c       ??_C@_05FBID@SCOUT?$AA@    10064d6c     vgui_TeamFortressViewport.obj
 0003:00001d74       ??_C@_0BD@FPGO@?$CFs?1gfx?1vgui?1?$CFs?4tga?$AA@ 10064d74     vgui_TeamFortressViewport.obj
 0003:00001d88       ??_C@_05KOOC@arrow?$AA@    10064d88     vgui_TeamFortressViewport.obj
 0003:00001d90       ??_C@_0BB@LDAE@CommandMenu?5Text?$AA@ 10064d90     vgui_TeamFortressViewport.obj
 0003:00001da4       ??_C@_0BH@JCPG@ForceCloseCommandMenu?6?$AA@ 10064da4     vgui_TeamFortressViewport.obj
 0003:00001dc0       ??_R0PAVCException@@@8     10064dc0     vgui_TeamFortressViewport.obj
 0003:00001ddc       ??_C@_0CN@NMCN@Too?5many?5menus?5in?5commandmenu?4tx@ 10064ddc     vgui_TeamFortressViewport.obj
 0003:00001e0c       ??_C@_0M@HBDC@maps?1?$CFs?4bsp?$AA@ 10064e0c     vgui_TeamFortressViewport.obj
 0003:00001e18       ??_C@_04EGLG@TEAM?$AA@     10064e18     vgui_TeamFortressViewport.obj
 0003:00001e20       ??_C@_03LPOM@MAP?$AA@      10064e20     vgui_TeamFortressViewport.obj
 0003:00001e24       ??_C@_06PAIH@CUSTOM?$AA@   10064e24     vgui_TeamFortressViewport.obj
 0003:00001e2c       ??_C@_0CL@OMPP@Error?5in?5Commandmenu?4txt?5file?5af@ 10064e2c     vgui_TeamFortressViewport.obj
 0003:00001e58       ??_C@_0L@JDPH@file?5start?$AA@ 10064e58     vgui_TeamFortressViewport.obj
 0003:00001e64       ??_C@_0BJ@KAED@?$CDDetpackSet_For50Seconds?$AA@ 10064e64     vgui_TeamFortressViewport.obj
 0003:00001e80       ??_C@_0BJ@OPLL@?$CDDetpackSet_For20Seconds?$AA@ 10064e80     vgui_TeamFortressViewport.obj
 0003:00001e9c       ??_C@_0BI@HEFM@?$CDDetpackSet_For5Seconds?$AA@ 10064e9c     vgui_TeamFortressViewport.obj
 0003:00001eb4       ??_C@_0CA@CALA@Unable?5to?5open?5commandmenu?4txt?6?$AA@ 10064eb4     vgui_TeamFortressViewport.obj
 0003:00001ed4       ??_C@_0BA@IDOE@commandmenu?4txt?$AA@ 10064ed4     vgui_TeamFortressViewport.obj
 0003:00001ee4       ??_C@_05GGPB@?$CFs?5?$CFd?$AA@ 10064ee4     vgui_TeamFortressViewport.obj
 0003:00001eec       ??_C@_05JOOB@build?$AA@    10064eec     vgui_TeamFortressViewport.obj
 0003:00001ef4       ??_C@_0L@JFAN@?$CBBUILDSTOP?$AA@ 10064ef4     vgui_TeamFortressViewport.obj
 0003:00001f00       ??_C@_09LIDM@detsentry?$AA@ 10064f00     vgui_TeamFortressViewport.obj
 0003:00001f0c       ??_C@_0BA@KMCN@?$CBDETONATESENTRY?$AA@ 10064f0c     vgui_TeamFortressViewport.obj
 0003:00001f1c       ??_C@_0N@LJHA@detdispenser?$AA@ 10064f1c     vgui_TeamFortressViewport.obj
 0003:00001f2c       ??_C@_0BD@GKMF@?$CBDETONATEDISPENSER?$AA@ 10064f2c     vgui_TeamFortressViewport.obj
 0003:00001f40       ??_C@_0M@CIE@dismantle?52?$AA@ 10064f40     vgui_TeamFortressViewport.obj
 0003:00001f4c       ??_C@_0BB@IIJG@?$CBDISMANTLESENTRY?$AA@ 10064f4c     vgui_TeamFortressViewport.obj
 0003:00001f60       ??_C@_0M@PNDN@dismantle?51?$AA@ 10064f60     vgui_TeamFortressViewport.obj
 0003:00001f6c       ??_C@_0BE@EMGK@?$CBDISMANTLEDISPENSER?$AA@ 10064f6c     vgui_TeamFortressViewport.obj
 0003:00001f80       ??_C@_0N@EEPM@rotatesentry?$AA@ 10064f80     vgui_TeamFortressViewport.obj
 0003:00001f90       ??_C@_0O@GNCE@?$CBROTATESENTRY?$AA@ 10064f90     vgui_TeamFortressViewport.obj
 0003:00001fa0       ??_C@_0BA@CJBK@rotatesentry180?$AA@ 10064fa0     vgui_TeamFortressViewport.obj
 0003:00001fb0       ??_C@_0BB@NDHJ@?$CBROTATESENTRY180?$AA@ 10064fb0     vgui_TeamFortressViewport.obj
 0003:00001fc4       ??_C@_07IJEG@build?51?$AA@ 10064fc4     vgui_TeamFortressViewport.obj
 0003:00001fcc       ??_C@_0BA@IAJE@?$CBBUILDDISPENSER?$AA@ 10064fcc     vgui_TeamFortressViewport.obj
 0003:00001fdc       ??_C@_07HGPP@build?52?$AA@ 10064fdc     vgui_TeamFortressViewport.obj
 0003:00001fe4       ??_C@_0N@NKNE@?$CBBUILDSENTRY?$AA@ 10064fe4     vgui_TeamFortressViewport.obj
 0003:00001ff4       ??_C@_06NEMK@?$CBBUILD?$AA@ 10064ff4     vgui_TeamFortressViewport.obj
 0003:00001ffc       ??_C@_07MCGA@detstop?$AA@  10064ffc     vgui_TeamFortressViewport.obj
 0003:00002004       ??_C@_0N@OKBB@?$CBDETPACKSTOP?$AA@ 10065004     vgui_TeamFortressViewport.obj
 0003:00002014       ??_C@_0M@BEOK@detstart?550?$AA@ 10065014     vgui_TeamFortressViewport.obj
 0003:00002020       ??_C@_0M@HFLP@detstart?520?$AA@ 10065020     vgui_TeamFortressViewport.obj
 0003:0000202c       ??_C@_0L@HKPI@detstart?55?$AA@ 1006502c     vgui_TeamFortressViewport.obj
 0003:00002038       ??_C@_0O@NKJB@?$CBDETPACKSTART?$AA@ 10065038     vgui_TeamFortressViewport.obj
 0003:00002048       ??_C@_0M@CHNN@disguise?5?$CFd?$AA@ 10065048     vgui_TeamFortressViewport.obj
 0003:00002054       ??_C@_08JEHK@Disguise?$AA@ 10065054     vgui_TeamFortressViewport.obj
 0003:00002060       ??_C@_09BCAI@?$CBDISGUISE?$AA@ 10065060     vgui_TeamFortressViewport.obj
 0003:0000206c       ??_C@_0BC@FCCD@disguise_friendly?$AA@ 1006506c     vgui_TeamFortressViewport.obj
 0003:00002080       ??_C@_0BC@EKML@?$CBDISGUISEFRIENDLY?$AA@ 10065080     vgui_TeamFortressViewport.obj
 0003:00002094       ??_C@_0P@KJIF@disguise_enemy?$AA@ 10065094     vgui_TeamFortressViewport.obj
 0003:000020a4       ??_C@_0P@PKMD@?$CBDISGUISEENEMY?$AA@ 100650a4     vgui_TeamFortressViewport.obj
 0003:000020b4       ??_C@_0L@EMEF@?$CBFEIGNSTOP?$AA@ 100650b4     vgui_TeamFortressViewport.obj
 0003:000020c0       ??_C@_06PMIH@sfeign?$AA@   100650c0     vgui_TeamFortressViewport.obj
 0003:000020c8       ??_C@_0N@FFAN@?$CBFEIGNSILENT?$AA@ 100650c8     vgui_TeamFortressViewport.obj
 0003:000020d8       ??_C@_05MEGI@feign?$AA@    100650d8     vgui_TeamFortressViewport.obj
 0003:000020e0       ??_C@_06IOED@?$CBFEIGN?$AA@ 100650e0     vgui_TeamFortressViewport.obj
 0003:000020e8       ??_C@_04OPHI@?$CBSPY?$AA@  100650e8     vgui_TeamFortressViewport.obj
 0003:000020f0       ??_C@_0M@PHDA@?$CBSERVERINFO?$AA@ 100650f0     vgui_TeamFortressViewport.obj
 0003:000020fc       ??_C@_0L@NKOK@?$CBCLASSDESC?$AA@ 100650fc     vgui_TeamFortressViewport.obj
 0003:00002108       ??_C@_0N@JLK@?$CBMAPBRIEFING?$AA@ 10065108     vgui_TeamFortressViewport.obj
 0003:00002118       ??_C@_0N@HCKH@?$CBCHANGECLASS?$AA@ 10065118     vgui_TeamFortressViewport.obj
 0003:00002128       ??_C@_0P@GLCM@?$CDMenu_Spectate?$AA@ 10065128     vgui_TeamFortressViewport.obj
 0003:00002138       ??_C@_0L@EJAA@jointeam?55?$AA@ 10065138     vgui_TeamFortressViewport.obj
 0003:00002144       ??_C@_0BB@MOJA@?$CDTeam_AutoAssign?$AA@ 10065144     vgui_TeamFortressViewport.obj
 0003:00002158       ??_C@_08MFGI@teamname?$AA@ 10065158     vgui_TeamFortressViewport.obj
 0003:00002164       ??_C@_0M@CKJM@jointeam?5?$CFd?$AA@ 10065164     vgui_TeamFortressViewport.obj
 0003:00002170       ??_C@_0M@MBOB@?$CBCHANGETEAM?$AA@ 10065170     vgui_TeamFortressViewport.obj
 0003:0000217c       ??_C@_08ICPM@_special?$AA@ 1006517c     vgui_TeamFortressViewport.obj
 0003:00002188       ??_C@_0N@OBH@?$CDDirected?5?$CFs?$AA@ 10065188     vgui_TeamFortressViewport.obj
 0003:00002198       ??_C@_0N@OEIM@?$CDSpec_Mode?$CFd?$AA@ 10065198     vgui_TeamFortressViewport.obj
 0003:000021a8       ??_C@_0BC@MHEB@?$CDSpec_Mode?$CFd?5?3?5?$CFs?$AA@ 100651a8     vgui_TeamFortressViewport.obj
 0003:000021bc       ??_C@_0L@JCJM@?$CDSpec_Help?$AA@ 100651bc     vgui_TeamFortressViewport.obj
 0003:000021c8       ??_C@_0BA@LPPN@?$CDSpec_Only_Help?$AA@ 100651c8     vgui_TeamFortressViewport.obj
 0003:000021d8       ??_C@_0BE@HFDA@classes?1long_?$CFs?4txt?$AA@ 100651d8     vgui_TeamFortressViewport.obj
 0003:000021ec       ??_C@_0BK@PIMB@classes?1long_civilian?4txt?$AA@ 100651ec     vgui_TeamFortressViewport.obj
 0003:00002208       ??_C@_0BA@DBE@?$CDTitle_civilian?$AA@ 10065208     vgui_TeamFortressViewport.obj
 0003:00002218       ??_C@_0P@OJFF@?$CDHelp_civilian?$AA@ 10065218     vgui_TeamFortressViewport.obj
 0003:00002228       ??_C@_0BA@CKMM@?$CDTitle_engineer?$AA@ 10065228     vgui_TeamFortressViewport.obj
 0003:00002238       ??_C@_0P@MAIN@?$CDHelp_engineer?$AA@ 10065238     vgui_TeamFortressViewport.obj
 0003:00002248       ??_C@_0L@IKBM@?$CDTitle_spy?$AA@ 10065248     vgui_TeamFortressViewport.obj
 0003:00002254       ??_C@_09PKLB@?$CDHelp_spy?$AA@ 10065254     vgui_TeamFortressViewport.obj
 0003:00002260       ??_C@_0M@HHAJ@?$CDTitle_pyro?$AA@ 10065260     vgui_TeamFortressViewport.obj
 0003:0000226c       ??_C@_0L@JKHJ@?$CDHelp_pyro?$AA@ 1006526c     vgui_TeamFortressViewport.obj
 0003:00002278       ??_C@_0N@IDIF@?$CDTitle_hwguy?$AA@ 10065278     vgui_TeamFortressViewport.obj
 0003:00002288       ??_C@_0M@KLGI@?$CDHelp_hwguy?$AA@ 10065288     vgui_TeamFortressViewport.obj
 0003:00002294       ??_C@_0N@GHDK@?$CDTitle_medic?$AA@ 10065294     vgui_TeamFortressViewport.obj
 0003:000022a4       ??_C@_0M@EPNH@?$CDHelp_medic?$AA@ 100652a4     vgui_TeamFortressViewport.obj
 0003:000022b0       ??_C@_0P@BGAG@?$CDTitle_demoman?$AA@ 100652b0     vgui_TeamFortressViewport.obj
 0003:000022c0       ??_C@_0O@FHOC@?$CDHelp_demoman?$AA@ 100652c0     vgui_TeamFortressViewport.obj
 0003:000022d0       ??_C@_0P@BANC@?$CDTitle_soldier?$AA@ 100652d0     vgui_TeamFortressViewport.obj
 0003:000022e0       ??_C@_0O@FBDG@?$CDHelp_soldier?$AA@ 100652e0     vgui_TeamFortressViewport.obj
 0003:000022f0       ??_C@_0O@MGCD@?$CDTitle_sniper?$AA@ 100652f0     vgui_TeamFortressViewport.obj
 0003:00002300       ??_C@_0N@CCAL@?$CDHelp_sniper?$AA@ 10065300     vgui_TeamFortressViewport.obj
 0003:00002310       ??_C@_0N@GEDK@?$CDTitle_scout?$AA@ 10065310     vgui_TeamFortressViewport.obj
 0003:00002320       ??_C@_0M@EMNH@?$CDHelp_scout?$AA@ 10065320     vgui_TeamFortressViewport.obj
 0003:0000232c       ??_C@_04KFHH@?4txt?$AA@    1006532c     vgui_TeamFortressViewport.obj
 0003:00002334       ??_C@_05GMPI@maps?1?$AA@   10065334     vgui_TeamFortressViewport.obj
 0003:0000233c       ??_C@_09OKKL@Half?9Life?$AA@ 1006533c     vgui_TeamFortressViewport.obj
 0003:00002348       ??_C@_0L@ODJH@jointeam?54?$AA@ 10065348     vgui_TeamFortressViewport.obj
 0003:00002354       ??_C@_0L@LGHC@jointeam?53?$AA@ 10065354     vgui_TeamFortressViewport.obj
 0003:00002360       ??_C@_0L@BMOF@jointeam?52?$AA@ 10065360     vgui_TeamFortressViewport.obj
 0003:0000236c       ??_C@_0L@ODFM@jointeam?51?$AA@ 1006536c     vgui_TeamFortressViewport.obj
 0003:00002378       ??_C@_0M@PKCM@?$CDSpec_Help2?$AA@ 10065378     vgui_TeamFortressViewport.obj
 0003:00002384       ??_C@_05FPLG@?$CLjump?$AA@ 10065384     vgui_TeamFortressViewport.obj
 0003:0000238c       ??_C@_0N@BCHG@Acceleration?$AA@ 1006538c     vgui_TeamFortressViewport.obj
 0003:0000239c       ??_C@_03JKHD@buy?$AA@      1006539c     vgui_TeamFortressViewport.obj
 0003:000023a0       ??_C@_08BEPD@jointeam?$AA@ 100653a0     vgui_TeamFortressViewport.obj
 0003:000023ac       ??_C@_0BM@FHDC@jointeam?5?$CFs?$DL?5changecar?5?$CFs?$DL?5?$AA@ 100653ac     vgui_TeamFortressViewport.obj
 0003:000023cc       ??_C@_0N@CODM@?$CDMenu_Cancel?$AA@ 100653cc     vgui_teammenu.obj
 0003:000023dc       ??_C@_0BG@OOGL@?$CDTitle_3DModel_Rotate?$AA@ 100653dc     vgui_teammenu.obj
 0003:000023f4       ??_C@_0BE@MNED@?$CDTitle_Manufacturer?$AA@ 100653f4     vgui_teammenu.obj
 0003:00002408       ??_C@_0M@NOPI@DisplayName?$AA@ 10065408     vgui_teammenu.obj
 0003:00002414       ??_C@_0BA@NAOL@HeadLightHeight?$AA@ 10065414     vgui_teammenu.obj
 0003:00002424       ??_C@_0P@OAJL@HeadLightWidth?$AA@ 10065424     vgui_teammenu.obj
 0003:00002434       ??_C@_0N@KELN@HeadLightDst?$AA@ 10065434     vgui_teammenu.obj
 0003:00002444       ??_C@_0BB@MIJA@BrakeLightHeight?$AA@ 10065444     vgui_teammenu.obj
 0003:00002458       ??_C@_0BA@JLGE@BrakeLightWidth?$AA@ 10065458     vgui_teammenu.obj
 0003:00002468       ??_C@_0O@IDIF@BrakeLightDst?$AA@ 10065468     vgui_teammenu.obj
 0003:00002478       ??_C@_07LPKN@GearBox?$AA@  10065478     vgui_teammenu.obj
 0003:00002480       ??_C@_06PDFB@Torque?$AA@   10065480     vgui_teammenu.obj
 0003:00002488       ??_C@_0L@KDPE@HorsePower?$AA@ 10065488     vgui_teammenu.obj
 0003:00002494       ??_C@_0N@KBEL@Transmission?$AA@ 10065494     vgui_teammenu.obj
 0003:000024a4       ??_C@_06EBJB@Weight?$AA@   100654a4     vgui_teammenu.obj
 0003:000024ac       ??_C@_02NECL@KG?$AA@       100654ac     vgui_teammenu.obj
 0003:000024b0       ??_C@_02DLBO@GB?$AA@       100654b0     vgui_teammenu.obj
 0003:000024b4       ??_C@_02BDEB@HP?$AA@       100654b4     vgui_teammenu.obj
 0003:000024b8       ??_C@_05ODAK@Trans?$AA@    100654b8     vgui_teammenu.obj
 0003:000024c0       ??_C@_09FJBA@TopSpeed?3?$AA@ 100654c0     vgui_teammenu.obj
 0003:000024cc       ??_C@_09IKMP@Handling?3?$AA@ 100654cc     vgui_teammenu.obj
 0003:000024d8       ??_C@_0O@PCBE@Acceleration?3?$AA@ 100654d8     vgui_teammenu.obj
 0003:000024e8       ??_C@_07NAEH@Weight?3?$AA@ 100654e8     vgui_teammenu.obj
 0003:000024f0       ??_C@_08LLLJ@GearBox?3?$AA@ 100654f0     vgui_teammenu.obj
 0003:000024fc       ??_C@_07JLPF@Torque?3?$AA@ 100654fc     vgui_teammenu.obj
 0003:00002504       ??_C@_03CPBF@HP?3?$AA@     10065504     vgui_teammenu.obj
 0003:00002508       ??_C@_0O@LPKH@Transmission?3?$AA@ 10065508     vgui_teammenu.obj
 0003:00002518       ??_C@_0BC@HABF@?$CDTitle_Statistics?$AA@ 10065518     vgui_teammenu.obj
 0003:0000252c       ??_C@_0BM@KPOE@jointeam?5?$CFs?$DL?5changecar?5?$CC?$CFs?$CC?$AA@ 1006552c     vgui_teammenu.obj
 0003:00002548       ??_C@_04BAMA@rock?$AA@     10065548     rally.obj
 0003:00002550       ??_C@_06EMFL@street?$AA@   10065550     rally.obj
 0003:00002558       ??_C@_04DMMI@road?$AA@     10065558     rally.obj
 0003:00002560       ??_C@_04NPOO@snow?$AA@     10065560     rally.obj
 0003:00002568       ??_C@_06HCOH@desert?$AA@   10065568     rally.obj
 0003:00002570       ??_C@_04LBFJ@sand?$AA@     10065570     rally.obj
 0003:00002578       ??_C@_04IOPF@gras?$AA@     10065578     rally.obj
 0003:00002580       ??_C@_03EJKE@mud?$AA@      10065580     rally.obj
 0003:00002584       ??_C@_04KCFE@dirt?$AA@     10065584     rally.obj
 0003:0000258c       ??_C@_05GGO@0?4022?$AA@    1006558c     Rally_AntiHaxor.obj
 0003:00002594       ??_C@_03DNJI@500?$AA@      10065594     Rally_AntiHaxor.obj
 0003:00002598       ??_C@_05HOGN@10000?$AA@    10065598     Rally_AntiHaxor.obj
 0003:000025a0       ??_C@_05LLLA@m_yaw?$AA@    100655a0     Rally_AntiHaxor.obj
 0003:000025a8       ??_C@_07FHKJ@m_pitch?$AA@  100655a8     Rally_AntiHaxor.obj
 0003:000025b0       ??_C@_0M@CKBA@cl_yawspeed?$AA@ 100655b0     Rally_AntiHaxor.obj
 0003:000025bc       ??_C@_0BA@GNDE@cl_forwardspeed?$AA@ 100655bc     Rally_AntiHaxor.obj
 0003:000025cc       ??_C@_06CDHA@?9right?$AA@  100655cc     Rally_AntiHaxor.obj
 0003:000025d4       ??_C@_05EFBI@?9left?$AA@   100655d4     Rally_AntiHaxor.obj
 0003:000025dc       ??_C@_05BMBD@?9back?$AA@   100655dc     Rally_AntiHaxor.obj
 0003:000025e4       ??_C@_08MLFI@?9forward?$AA@ 100655e4     Rally_AntiHaxor.obj
 0003:000025f0       ??_C@_06FOLA@?$CLright?$AA@ 100655f0     Rally_AntiHaxor.obj
 0003:000025f8       ??_C@_05IFMH@?$CLleft?$AA@ 100655f8     Rally_AntiHaxor.obj
 0003:00002600       ??_C@_05NMMM@?$CLback?$AA@ 10065600     Rally_AntiHaxor.obj
 0003:00002608       ??_C@_08HLLP@?$CLforward?$AA@ 10065608     Rally_AntiHaxor.obj
 0003:00002614       ??_C@_0M@LKCI@carinfo?4txt?$AA@ 10065614     Rally_AntiHaxor.obj
 0003:00002620       ??_C@_0L@DOFA@RallyScore?$AA@ 10065620     Rally_AntiHaxor.obj
 0003:0000262c       ??_C@_07IEDO@RaceEnd?$AA@  1006562c     Rally_AntiHaxor.obj
 0003:00002634       ??_C@_06OKHD@LapEnd?$AA@   10065634     Rally_AntiHaxor.obj
 0003:0000263c       ??_C@_0L@GJDI@Checkpoint?$AA@ 1006563c     Rally_AntiHaxor.obj
 0003:00002648       ??_C@_08BJO@FixAngle?$AA@  10065648     Rally_AntiHaxor.obj
 0003:00002654       ??_C@_08BBHE@RaceInfo?$AA@ 10065654     Rally_AntiHaxor.obj
 0003:00002660       ??_C@_08GNDB@SetTimer?$AA@ 10065660     Rally_AntiHaxor.obj
 0003:0000266c       ??_C@_0M@EOEO@VGUIClasses?$AA@ 1006566c     Rally_AntiHaxor.obj
 0003:00002678       ??_C@_08PMKA@VGUIMenu?$AA@ 10065678     Rally_AntiHaxor.obj
 0003:00002684       ??_C@_0BD@ILID@sprites?1r_skid?4spr?$AA@ 10065684     Rally_AntiHaxor.obj
 0003:00002698       ??_C@_0N@MPOK@backfire?4wav?$AA@ 10065698     Rally_AntiHaxor.obj
 0003:000026a8       ??_C@_08CLOL@horn?4wav?$AA@ 100656a8     Rally_AntiHaxor.obj
 0003:000026b4       ??_C@_0M@DJBC@voc?1321?4wav?$AA@ 100656b4     Rally_AntiHaxor.obj
 0003:000026c0       ??_C@_0BC@PBIO@voc?1warning30?4wav?$AA@ 100656c0     Rally_AntiHaxor.obj
 0003:000026d4       ??_C@_0BE@BMEM@voc?1lapcomplete?4wav?$AA@ 100656d4     Rally_AntiHaxor.obj
 0003:000026e8       ??_C@_0BB@BMF@voc?1nexttime?4wav?$AA@ 100656e8     Rally_AntiHaxor.obj
 0003:000026fc       ??_C@_0BD@DLGK@voc?1checkpoint?4wav?$AA@ 100656fc     Rally_AntiHaxor.obj
 0003:00002710       ??_C@_0BE@JJDF@sprites?1hp_bomb?4spr?$AA@ 10065710     Rally_AntiHaxor.obj
 0003:00002724       ??_C@_0BE@GPFP@sprites?1r_smoke?4spr?$AA@ 10065724     Rally_AntiHaxor.obj
 0003:00002738       ??_C@_0BE@NPPA@sprites?1r_grass?4spr?$AA@ 10065738     Rally_AntiHaxor.obj
 0003:0000274c       ??_C@_0BD@IALK@sprites?1r_snow?4spr?$AA@ 1006574c     Rally_AntiHaxor.obj
 0003:00002760       ??_C@_0BD@EKGF@sprites?1r_sand?4spr?$AA@ 10065760     Rally_AntiHaxor.obj
 0003:00002774       ??_C@_0BD@OHDO@sprites?1r_dirt?4spr?$AA@ 10065774     Rally_AntiHaxor.obj
 0003:00002788       ??_C@_0BE@DBDL@sprites?1r_rocks?4spr?$AA@ 10065788     Rally_AntiHaxor.obj
 0003:0000279c       ??_C@_02HGED@BM?$AA@       1006579c     Rally_CryptFile.obj
 0003:000027a0       ??_C@_02JBML@?$CFc?$AA@    100657a0     Rally_CryptFile.obj
 0003:000027a4       ??_C@_08EJEG@?$CFc?$CFc?$CFc?$CFc?$AA@ 100657a4     Rally_CryptFile.obj
 0003:000027b0       ??_C@_04LKNH@?$CFc?$CFc?$AA@ 100657b0     Rally_CryptFile.obj
 0003:000027b8       ??_C@_0CE@LPIH@?6Total?5?$CFlu?5byte?$CIs?$CJ?0?5in?5?$CFlu?5file?$CI@ 100657b8     Rally_CryptFile.obj
 0003:000027dc       ??_C@_0BM@KKAB@No?5files?5found?5in?5archive?$CB?6?$AA@ 100657dc     Rally_CryptFile.obj
 0003:000027f8       ??_C@_09EKOH@?$CF?918s?$CFlu?6?$AA@ 100657f8     Rally_CryptFile.obj
 0003:00002804       ??_C@_0EA@EMIJ@?6Filename?5?5?5?5?5?5?5?5?5?5Size?5?$CIbytes?$CJ?6@ 10065804     Rally_CryptFile.obj
 0003:00002844       ??_C@_0CJ@FDLJ@Freespace?5remaining?3?5?$CFlu?5byte?$CIs?$CJ@ 10065844     Rally_CryptFile.obj
 0003:00002870       ??_C@_0CG@DJOC@Total?5files?5?9?5?$CFlu?0?5using?5?$CFlu?5byt@ 10065870     Rally_CryptFile.obj
 0003:00002898       ??_C@_0DB@DDOM@?6Archive?5Found?5?9?5Capacity?5?$CFlu?5by@ 10065898     Rally_CryptFile.obj
 0003:000028cc       ??_C@_0EG@CNPB@The?5predicted?5storage?5capacity?5f@ 100658cc     Rally_CryptFile.obj
 0003:00002914       ?pszDustTextureNames@@3PAPBDA 10065914     Rally_Effects.obj
 0003:00002928       ?pszSkidTextureNames@@3PAPBDA 10065928     Rally_Effects.obj
 0003:0000293c       ??_C@_0BI@NOOO@sprites?1r_skid_snow?4spr?$AA@ 1006593c     Rally_Effects.obj
 0003:00002954       ??_C@_0BI@BEDB@sprites?1r_skid_sand?4spr?$AA@ 10065954     Rally_Effects.obj
 0003:0000296c       ??_C@_0BI@LJGK@sprites?1r_skid_dirt?4spr?$AA@ 1006596c     Rally_Effects.obj
 0003:00002984       ??_C@_0BF@NFJM@rally_hp_glowshell_b?$AA@ 10065984     Rally_Effects.obj
 0003:0000299c       ??_C@_0BF@NFFH@rally_hp_glowshell_g?$AA@ 1006599c     Rally_Effects.obj
 0003:000029b4       ??_C@_0BF@HMOM@rally_hp_glowshell_r?$AA@ 100659b4     Rally_Effects.obj
 0003:000029cc       ??_C@_03MPDC@255?$AA@      100659cc     Rally_Effects.obj
 0003:000029d0       ??_C@_0BF@HFNH@rally_vgui_partslist?$AA@ 100659d0     Rally_Effects.obj
 0003:000029e8       ??_C@_0BF@HKNH@rally_opponentlights?$AA@ 100659e8     Rally_Effects.obj
 0003:00002a00       ??_C@_0N@NJEI@rally_sparks?$AA@ 10065a00     Rally_Effects.obj
 0003:00002a10       ??_C@_09POPL@rally_fog?$AA@ 10065a10     Rally_Effects.obj
 0003:00002a1c       ??_C@_0L@LNKH@rally_dust?$AA@ 10065a1c     Rally_Effects.obj
 0003:00002a28       ??_C@_0BD@EMPH@rally_skidmarktime?$AA@ 10065a28     Rally_Effects.obj
 0003:00002a3c       ??_C@_02HPJE@30?$AA@       10065a3c     Rally_Effects.obj
 0003:00002a40       ??_C@_0BG@OGF@rally_opponentshadows?$AA@ 10065a40     Rally_Effects.obj
 0003:00002a58       ??_C@_0O@FEAO@rally_shadows?$AA@ 10065a58     Rally_Effects.obj
 0003:00002a68       ??_C@_01FBMM@4?$AA@        10065a68     Rally_Effects.obj
 0003:00002a6c       ??_C@_0L@BEEI@rally_skid?$AA@ 10065a6c     Rally_Effects.obj
 0003:00002a78       ??_C@_0BD@FCFN@sprites?1flare3?4spr?$AA@ 10065a78     Rally_Effects.obj
 0003:00002a8c       ??_C@_0BH@GADK@sprites?1hud_needle?4spr?$AA@ 10065a8c     Rally_Effects.obj
 0003:00002aa4       ??_C@_05KJAI@cliff?$AA@    10065aa4     Rally_Effects.obj
 0003:00002aac       ??_C@_0BD@MFFH@models?1hp_bomb?4mdl?$AA@ 10065aac     Rally_Effects.obj
 0003:00002ac0       ??_C@_0BA@EJHN@skid_tarmac?4wav?$AA@ 10065ac0     Rally_Effects.obj
 0003:00002ad0       ??_C@_07NCHB@3dmroad?$AA@  10065ad0     Rally_Effects.obj
 0003:00002ad8       ??_C@_04PIHG@soil?$AA@     10065ad8     Rally_Effects.obj
 0003:00002ae0       ??_C@_08JMGJ@roadgras?$AA@ 10065ae0     Rally_Effects.obj
 0003:00002aec       ??_C@_06IEHG@noskid?$AA@   10065aec     Rally_Effects.obj
 0003:00002af4       ??_C@_0BJ@FBEK@sprites?1muzzleflash3?4spr?$AA@ 10065af4     Rally_Effects.obj
 0003:00002b10       ??_C@_0BE@OIGF@_FSOUND_StopSound?$EA4?$AA@ 10065b10     rally_fmod.obj
 0003:00002b24       ??_C@_0BE@DNIM@_FSOUND_PlaySound?$EA8?$AA@ 10065b24     rally_fmod.obj
 0003:00002b38       ??_C@_0BH@LFKH@_FSOUND_Sample_Load?$EA20?$AA@ 10065b38     rally_fmod.obj
 0003:00002b50       ??_C@_0CF@JBPO@_FSOUND_3D_Listener_SetAttribute@ 10065b50     rally_fmod.obj
 0003:00002b78       ??_C@_0BM@GDHP@_FSOUND_3D_SetAttributes?$EA12?$AA@ 10065b78     rally_fmod.obj
 0003:00002b94       ??_C@_0BO@OGH@_FSOUND_3D_SetRolloffFactor?$EA4?$AA@ 10065b94     rally_fmod.obj
 0003:00002bb4       ??_C@_0BP@JOPA@_FSOUND_3D_SetDistanceFactor?$EA4?$AA@ 10065bb4     rally_fmod.obj
 0003:00002bd4       ??_C@_0BO@PHIH@_FSOUND_3D_SetDopplerFactor?$EA4?$AA@ 10065bd4     rally_fmod.obj
 0003:00002bf4       ??_C@_0CK@CHEH@_FSOUND_Stream_Net_SetMetadataCa@ 10065bf4     rally_fmod.obj
 0003:00002c20       ??_C@_0CK@HJGN@_FSOUND_Stream_Net_SetBufferProp@ 10065c20     rally_fmod.obj
 0003:00002c4c       ??_C@_0BO@ONGI@_FSOUND_Stream_GetTagField?$EA24?$AA@ 10065c4c     rally_fmod.obj
 0003:00002c6c       ??_C@_0CB@PAOM@_FSOUND_Stream_GetNumTagFields?$EA8@ 10065c6c     rally_fmod.obj
 0003:00002c90       ??_C@_0BJ@HALP@_FSOUND_Stream_GetMode?$EA4?$AA@ 10065c90     rally_fmod.obj
 0003:00002cac       ??_C@_0BO@FEEJ@_FSOUND_Stream_GetOpenState?$EA4?$AA@ 10065cac     rally_fmod.obj
 0003:00002ccc       ??_C@_0BJ@OEH@_FSOUND_Stream_SetTime?$EA8?$AA@ 10065ccc     rally_fmod.obj
 0003:00002ce8       ??_C@_0BJ@NNAB@_FSOUND_Stream_GetTime?$EA4?$AA@ 10065ce8     rally_fmod.obj
 0003:00002d04       ??_C@_0BL@DFHM@_FSOUND_Stream_GetLength?$EA4?$AA@ 10065d04     rally_fmod.obj
 0003:00002d20       ??_C@_0BN@CAEM@_FSOUND_Stream_GetLengthMs?$EA4?$AA@ 10065d20     rally_fmod.obj
 0003:00002d40       ??_C@_0BH@JEBP@_FSOUND_Stream_Close?$EA4?$AA@ 10065d40     rally_fmod.obj
 0003:00002d58       ??_C@_0BG@BBAO@_FSOUND_Stream_Stop?$EA4?$AA@ 10065d58     rally_fmod.obj
 0003:00002d70       ??_C@_0BG@GFKK@_FSOUND_Stream_Play?$EA8?$AA@ 10065d70     rally_fmod.obj
 0003:00002d88       ??_C@_0BH@HLOP@_FSOUND_Stream_Open?$EA16?$AA@ 10065d88     rally_fmod.obj
 0003:00002da0       ??_C@_0BB@OJOA@_FSOUND_SetPan?$EA8?$AA@ 10065da0     rally_fmod.obj
 0003:00002db4       ??_C@_0BE@NDLG@_FSOUND_GetPaused?$EA4?$AA@ 10065db4     rally_fmod.obj
 0003:00002dc8       ??_C@_0BE@CPJB@_FSOUND_SetPaused?$EA8?$AA@ 10065dc8     rally_fmod.obj
 0003:00002ddc       ??_C@_0BE@IJHI@_FSOUND_IsPlaying?$EA4?$AA@ 10065ddc     rally_fmod.obj
 0003:00002df0       ??_C@_0BC@KIKE@_FSOUND_SetMute?$EA8?$AA@ 10065df0     rally_fmod.obj
 0003:00002e04       ??_C@_0BH@DHDJ@_FSOUND_GetFrequency?$EA4?$AA@ 10065e04     rally_fmod.obj
 0003:00002e1c       ??_C@_0BH@ENIO@_FSOUND_SetFrequency?$EA8?$AA@ 10065e1c     rally_fmod.obj
 0003:00002e34       ??_C@_0BM@PIIE@_FSOUND_SetVolumeAbsolute?$EA8?$AA@ 10065e34     rally_fmod.obj
 0003:00002e50       ??_C@_0BE@NGFM@_FSOUND_SetVolume?$EA8?$AA@ 10065e50     rally_fmod.obj
 0003:00002e64       ??_C@_0BJ@MDPD@_FSOUND_GetMaxChannels?$EA0?$AA@ 10065e64     rally_fmod.obj
 0003:00002e80       ??_C@_0BA@DOLH@_FSOUND_Close?$EA0?$AA@ 10065e80     rally_fmod.obj
 0003:00002e90       ??_C@_0BB@PEL@_FSOUND_Update?$EA0?$AA@ 10065e90     rally_fmod.obj
 0003:00002ea4       ??_C@_0BN@IIMJ@_FSOUND_SetSFXMasterVolume?$EA4?$AA@ 10065ea4     rally_fmod.obj
 0003:00002ec4       ??_C@_0CB@IKDH@_FSOUND_SetMinHardwareChannels?$EA4@ 10065ec4     rally_fmod.obj
 0003:00002ee8       ??_C@_0BE@KFOM@_FSOUND_SetDriver?$EA4?$AA@ 10065ee8     rally_fmod.obj
 0003:00002efc       ??_C@_0BI@GLMB@_FSOUND_SetBufferSize?$EA4?$AA@ 10065efc     rally_fmod.obj
 0003:00002f14       ??_C@_0BE@LIKJ@_FSOUND_SetOutput?$EA4?$AA@ 10065f14     rally_fmod.obj
 0003:00002f28       ??_C@_0BA@IFD@_FSOUND_Init?$EA12?$AA@ 10065f28     rally_fmod.obj
 0003:00002f38       ??_C@_0M@BFLO@?$CFs?1fmod?4dll?$AA@ 10065f38     rally_fmod.obj
 0003:00002f44       ??_C@_06HFCF@back_r?$AA@   10065f44     rally_hud_health.obj
 0003:00002f4c       ??_C@_06NNAI@back_m?$AA@   10065f4c     rally_hud_health.obj
 0003:00002f54       ??_C@_06HHJP@back_l?$AA@   10065f54     rally_hud_health.obj
 0003:00002f5c       ??_C@_05ENDH@mid_r?$AA@    10065f5c     rally_hud_health.obj
 0003:00002f64       ??_C@_05OFBK@mid_m?$AA@    10065f64     rally_hud_health.obj
 0003:00002f6c       ??_C@_05EPIN@mid_l?$AA@    10065f6c     rally_hud_health.obj
 0003:00002f74       ??_C@_07OLEH@front_r?$AA@  10065f74     rally_hud_health.obj
 0003:00002f7c       ??_C@_07EDGK@front_m?$AA@  10065f7c     rally_hud_health.obj
 0003:00002f84       ??_C@_07OJPN@front_l?$AA@  10065f84     rally_hud_health.obj
 0003:00002f8c       ??_C@_0M@GNIC@rally_radar?$AA@ 10065f8c     rally_hud_radar.obj
 0003:00002f98       ??_C@_08LHMB@HudRadar?$AA@ 10065f98     rally_hud_radar.obj
 0003:00002fa4       ??_C@_0CN@MHBH@Warning?3?5Unable?5to?5open?5map?5spri@ 10065fa4     rally_hud_radar.obj
 0003:00002fd4       ??_C@_0O@BMPP@sprites?1maps?1?$AA@ 10065fd4     rally_hud_radar.obj
 0003:00002fe4       ??_C@_04FBDA@?4spr?$AA@    10065fe4     rally_hud_radar.obj
 0003:00002fec       ??_C@_0BI@COBN@sprites?1hud_numbers?4spr?$AA@ 10065fec     rally_hud_radar.obj
 0003:00003008       ??_C@_0BH@EFPA@rally_sound_3dchannels?$AA@ 10066008     rally_sound.obj
 0003:00003020       ??_C@_0BB@IKHM@rally_sound_hw3d?$AA@ 10066020     rally_sound.obj
 0003:00003034       ??_C@_0BF@CIGP@Failed?5to?5load?5FMOD?6?$AA@ 10066034     rally_sound.obj
 0003:0000304c       ??_C@_0BB@PDKP@hlrally?1sound?1?$CFs?$AA@ 1006604c     rally_sound.obj
 0003:00003060       ??_C@_0CE@PIPL@hlrally?1sound?1engine?1206_engine?4@ 10066060     rally_sound.obj
 0003:00003084       ??_C@_0CD@DHFD@hlrally?1sound?1engine?1?$CFs_engine?4w@ 10066084     rally_sound.obj
 0003:000030a8       ??_C@_0CD@PLKJ@hlrally?1sound?1engine?1?$CFs_engine?4m@ 100660a8     rally_sound.obj
 0003:000030cc       ??_C@_0CG@DFGN@hlrally?1sound?1engine?1racing_whin@ 100660cc     rally_sound.obj
 0003:000030f4       ??_C@_03HMIL@206?$AA@      100660f4     rally_sound.obj
 0003:000030f8       ??_C@_08OJLN@title?5?$CFs?$AA@ 100660f8     rally_sound.obj
 0003:00003104       ??_C@_09GOPN@artist?5?$CFs?$AA@ 10066104     rally_sound.obj
 0003:00003110       ??_C@_04DCEP@COMM?$AA@     10066110     rally_sound.obj
 0003:00003118       ??_C@_0L@BCOI@uncompress?$AA@ 10066118     rally_zlib.obj
 0003:00003124       ??_C@_09KKKM@compress2?$AA@ 10066124     rally_zlib.obj
 0003:00003130       ??_C@_0BB@GGMA@hlrally?2zlib?4dll?$AA@ 10066130     rally_zlib.obj
 0003:00003144       ?CurrentLap@@3HA           10066144     rallyhud.obj
 0003:00003148       ?CurrentCheckpoint@@3HA    10066148     rallyhud.obj
 0003:0000314c       ?CurrentPlace@@3HA         1006614c     rallyhud.obj
 0003:00003150       ?TotalLaps@@3HA            10066150     rallyhud.obj
 0003:00003154       ?TotalCheckpoints@@3HA     10066154     rallyhud.obj
 0003:00003158       ?TotalPlayers@@3HA         10066158     rallyhud.obj
 0003:0000315c       ?bestlap@@3MA              1006615c     rallyhud.obj
 0003:00003160       ?TimeExtensionSound@@3HA   10066160     rallyhud.obj
 0003:00003164       ?pers_thirdperson@@3_NA    10066164     rallyhud.obj
 0003:0000316c       ??_C@_0N@HKMJ@cam_viewmode?$AA@ 1006616c     rallyhud.obj
 0003:0000317c       ??_C@_0P@BFP@voc?1lapend?4wav?$AA@ 1006617c     rallyhud.obj
 0003:0000318c       ??_C@_0O@HNGK@voc?1third?4mp3?$AA@ 1006618c     rallyhud.obj
 0003:0000319c       ??_C@_0P@JKOA@voc?1second?4mp3?$AA@ 1006619c     rallyhud.obj
 0003:000031ac       ??_C@_0BB@CDNK@voc?1congrats?4mp3?$AA@ 100661ac     rallyhud.obj
 0003:000031c0       ??_C@_04PDFP@Horn?$AA@     100661c0     rallyhud.obj
 0003:000031c8       ??_C@_05COBC@Money?$AA@    100661c8     rallyhud.obj
 0003:000031d0       ??_C@_09MJOI@UserStats?$AA@ 100661d0     rallyhud.obj
 0003:000031dc       ??_C@_0L@PAOI@Flashlight?$AA@ 100661dc     rallyhud.obj
 0003:000031e8       ??_C@_09EAGL@Countdown?$AA@ 100661e8     rallyhud.obj
 0003:000031f4       ??_C@_06BMEB@number?$AA@   100661f4     rallyhud.obj
 0003:000031fc       ??_C@_06NOHF@origin?$AA@   100661fc     rallyhud.obj
 0003:00003204       ??_C@_0BA@JFJC@info_checkpoint?$AA@ 10066204     rallyhud.obj
 0003:00003214       ??_C@_09JDJH@classname?$AA@ 10066214     rallyhud.obj
 0003:00003220       ??_C@_0BB@GBFA@misc?1harryup?4wav?$AA@ 10066220     rallyhud.obj
 0003:00003234       ??_C@_0L@HNAD@letter_dol?$AA@ 10066234     rallyhud.obj
 0003:00003240       ??_C@_08OLEJ@intdials?$AA@ 10066240     rallyhud.obj
 0003:0000324c       ??_C@_08MAIB@letter_r?$AA@ 1006624c     rallyhud.obj
 0003:00003258       ??_C@_08JHBF@letter_n?$AA@ 10066258     rallyhud.obj
 0003:00003264       ??_C@_07BPOH@version?$AA@  10066264     rallyhud.obj
 0003:0000326c       ??_C@_09OKGA@totaltime?$AA@ 1006626c     rallyhud.obj
 0003:00003278       ??_C@_0L@LGAC@currentlap?$AA@ 10066278     rallyhud.obj
 0003:00003284       ??_C@_07MMCN@bestlap?$AA@  10066284     rallyhud.obj
 0003:0000328c       ??_C@_0N@JBNB@rightbracket?$AA@ 1006628c     rallyhud.obj
 0003:0000329c       ??_C@_0M@JDJL@leftbracket?$AA@ 1006629c     rallyhud.obj
 0003:000032a8       ??_C@_08JIBC@slash_sm?$AA@ 100662a8     rallyhud.obj
 0003:000032b4       ??_C@_05NIIB@lg_st?$AA@    100662b4     rallyhud.obj
 0003:000032bc       ??_C@_0L@DEHH@lgnumber_0?$AA@ 100662bc     rallyhud.obj
 0003:000032c8       ??_C@_09LGNP@bnumber_0?$AA@ 100662c8     rallyhud.obj
 0003:000032d4       ??_C@_08OJEB@number_0?$AA@ 100662d4     rallyhud.obj
 0003:000032e0       ??_C@_05LGIL@slash?$AA@    100662e0     rallyhud.obj
 0003:000032e8       ??_C@_05FNAM@clock?$AA@    100662e8     rallyhud.obj
 0003:000032f0       ??_C@_03CIJN@lap?$AA@      100662f0     rallyhud.obj
 0003:000032f4       ??_C@_06EOMM@hiphen?$AA@   100662f4     rallyhud.obj
 0003:000032fc       ??_C@_05CLPE@colon?$AA@    100662fc     rallyhud.obj
 0003:00003304       ??_C@_06LKAK@cdials?$AA@   10066304     rallyhud.obj
 0003:0000330c       ??_C@_05IBFI@ammo2?$AA@    1006630c     ammo.obj
 0003:00003314       ??_C@_04OGMN@ammo?$AA@     10066314     ammo.obj
 0003:0000331c       ??_C@_08PBPO@weapon_s?$AA@ 1006631c     ammo.obj
 0003:00003328       ??_C@_06IJLN@weapon?$AA@   10066328     ammo.obj
 0003:00003330       ??_C@_0N@CCNA@zoom_autoaim?$AA@ 10066330     ammo.obj
 0003:00003340       ??_C@_04CKNM@zoom?$AA@     10066340     ammo.obj
 0003:00003348       ??_C@_07FHIC@autoaim?$AA@  10066348     ammo.obj
 0003:00003350       ??_C@_0P@DMKA@sprites?1?$CFs?4spr?$AA@ 10066350     ammo.obj
 0003:00003360       ??_C@_09KOO@crosshair?$AA@ 10066360     ammo.obj
 0003:0000336c       ??_C@_0P@MIOH@sprites?1?$CFs?4txt?$AA@ 1006636c     ammo.obj
 0003:0000337c       ??_C@_0P@HMPC@hud_fastswitch?$AA@ 1006637c     ammo.obj
 0003:0000338c       ??_C@_0BF@OEEI@hud_drawhistory_time?$AA@ 1006638c     ammo.obj
 0003:000033a4       ??_C@_01PLFL@5?$AA@        100663a4     ammo.obj
 0003:000033a8       ??_C@_07JFFH@invprev?$AA@  100663a8     ammo.obj
 0003:000033b0       ??_C@_07GMNC@invnext?$AA@  100663b0     ammo.obj
 0003:000033b8       ??_C@_0N@EEJF@cancelselect?$AA@ 100663b8     ammo.obj
 0003:000033c8       ??_C@_06GGMJ@slot10?$AA@   100663c8     ammo.obj
 0003:000033d0       ??_C@_05NDL@slot9?$AA@     100663d0     ammo.obj
 0003:000033d8       ??_C@_05KHKM@slot8?$AA@    100663d8     ammo.obj
 0003:000033e0       ??_C@_05KGPB@slot7?$AA@    100663e0     ammo.obj
 0003:000033e8       ??_C@_05MGG@slot6?$AA@     100663e8     ammo.obj
 0003:000033f0       ??_C@_05PDNP@slot5?$AA@    100663f0     ammo.obj
 0003:000033f8       ??_C@_05FJEI@slot4?$AA@    100663f8     ammo.obj
 0003:00003400       ??_C@_05MKN@slot3?$AA@     10066400     ammo.obj
 0003:00003408       ??_C@_05KGDK@slot2?$AA@    10066408     ammo.obj
 0003:00003410       ??_C@_05FJID@slot1?$AA@    10066410     ammo.obj
 0003:00003418       ??_C@_05HDEE@AmmoX?$AA@    10066418     ammo.obj
 0003:00003420       ??_C@_0L@HFOM@HideWeapon?$AA@ 10066420     ammo.obj
 0003:0000342c       ??_C@_0L@KPIL@ItemPickup?$AA@ 1006642c     ammo.obj
 0003:00003438       ??_C@_0L@MCHE@WeapPickup?$AA@ 10066438     ammo.obj
 0003:00003444       ??_C@_0L@DJEN@AmmoPickup?$AA@ 10066444     ammo.obj
 0003:00003450       ??_C@_0L@KAL@WeaponList?$AA@ 10066450     ammo.obj
 0003:0000345c       ??_C@_09MOMN@CurWeapon?$AA@ 1006645c     ammo.obj
 0003:00003468       ??_C@_09FIEC@selection?$AA@ 10066468     ammo.obj
 0003:00003474       ??_C@_07PKCI@bucket1?$AA@  10066474     ammo.obj
 0003:0000347c       ??_C@_0BG@MCNG@common?1wpn_select?4wav?$AA@ 1006647c     ammo.obj
 0003:00003494       ??_C@_0BF@DDKC@common?1wpn_hudon?4wav?$AA@ 10066494     ammo.obj
 0003:000034ac       ??_C@_0BK@MLCN@common?1wpn_moveselect?4wav?$AA@ 100664ac     ammo.obj
 0003:000034c8       ??_C@_06BGAE@escape?$AA@   100664c8     ammo.obj
 0003:000034d0       ??_C@_0BG@BNOJ@common?1wpn_hudoff?4wav?$AA@ 100664d0     ammo.obj
 0003:000034e8       ??_C@_0M@IGHO@SecAmmoIcon?$AA@ 100664e8     ammo_secondary.obj
 0003:000034f4       ??_C@_0L@EJOA@SecAmmoVal?$AA@ 100664f4     ammo_secondary.obj
 0003:00003500       ?HISTORY_DRAW_TIME@@3HA    10066500     ammohistory.obj
 0003:00003504       ??_C@_0P@MHGP@temp_parse?4txt?$AA@ 10066504     carinfo.obj
 0003:00003514       ??_C@_0N@NMEM@tmp_info?4txt?$AA@ 10066514     carinfo.obj
 0003:00003524       ??_C@_0BF@EIJI@hlrally?1tmp_info?4txt?$AA@ 10066524     carinfo.obj
 0003:0000353c       ??_C@_02IAAH@wt?$AA@       1006653c     carinfo.obj
 0003:00003540       ??_C@_02MMAH@rt?$AA@       10066540     carinfo.obj
 0003:00003544       ??_C@_0L@LIFB@hlrally?2?$CFs?$AA@ 10066544     carinfo.obj
 0003:00003550       ?crashsound@@3MA           10066550     cdll_int.obj
 0003:00003554       ??_C@_0N@MOKP@hitwall2?4wav?$AA@ 10066554     cdll_int.obj
 0003:00003564       ??_C@_0N@COMA@hitwall1?4wav?$AA@ 10066564     cdll_int.obj
 0003:00003574       ??_C@_0P@OEGG@HUD_PlayerMove?$AA@ 10066574     cdll_int.obj
 0003:00003584       ??_C@_0P@HODB@TrackerUser001?$AA@ 10066584     cdll_int.obj
 0003:00003594       ??_C@_0BC@PICM@Bin?1TrackerUI?4dll?$AA@ 10066594     cdll_int.obj
 0003:000035a8       ??_C@_0P@LLDA@sound?2init?4mp3?$AA@ 100665a8     cdll_int.obj
 0003:000035b8       ??_C@_0CM@GLP@?$CK?$CK?5?6?$CK?$CK?5HL?5Rally?5could?5not?5load?5Z@ 100665b8     cdll_int.obj
 0003:000035e4       ??_C@_0L@FGFD@HUD_Redraw?$AA@ 100665e4     cdll_int.obj
 0003:000035f0       ??_C@_0BF@LGFG@HUD_UpdateClientData?$AA@ 100665f0     cdll_int.obj
 0003:00003608       ??_C@_0L@NHFD@HUD_Frame?6?$AA@ 10066608     cdll_int.obj
 0003:00003614       ?seed_table@@3PAIA         10066614     com_weapons.obj
 0003:00003a14       ??_C@_03DKJM@a?$CLt?$AA@   10066a14     com_weapons.obj
 0003:00003a18       ??_C@_0N@KML@c?3?2hllog?4txt?$AA@ 10066a18     com_weapons.obj
 0003:00003a28       ??_C@_04GILH@func?$AA@     10066a28     com_weapons.obj
 0003:00003a34       ?g_ColorBlue@@3PAMA        10066a34     death.obj
 0003:00003a40       ?g_ColorRed@@3PAMA         10066a40     death.obj
 0003:00003a4c       ?g_ColorGreen@@3PAMA       10066a4c     death.obj
 0003:00003a58       ?g_ColorYellow@@3PAMA      10066a58     death.obj
 0003:00003a64       ??_C@_0BF@IOKB@hud_deathnotice_time?$AA@ 10066a64     death.obj
 0003:00003a7c       ??_C@_01EOC@6?$AA@         10066a7c     death.obj
 0003:00003a80       ??_C@_08FJPD@DeathMsg?$AA@ 10066a80     death.obj
 0003:00003a8c       ??_C@_07ILBB@d_skull?$AA@  10066a8c     death.obj
 0003:00003a94       ??_C@_0N@NGKH@d_tau?5cannon?$AA@ 10066a94     death.obj
 0003:00003aa4       ??_C@_05MFIA@gauss?$AA@    10066aa4     death.obj
 0003:00003aac       ??_C@_0M@PHFJ@d_gluon?5gun?$AA@ 10066aac     death.obj
 0003:00003ab8       ??_C@_04MANP@egon?$AA@     10066ab8     death.obj
 0003:00003ac0       ??_C@_06BMFM@?5with?5?$AA@ 10066ac0     death.obj
 0003:00003ac8       ??_C@_08PGGB@?5killed?5?$AA@ 10066ac8     death.obj
 0003:00003ad4       ??_C@_0BG@CIED@?5killed?5his?5teammate?5?$AA@ 10066ad4     death.obj
 0003:00003aec       ??_C@_0N@JOCK@?5killed?5self?$AA@ 10066aec     death.obj
 0003:00003afc       ??_C@_05EHC@?5died?$AA@    10066afc     death.obj
 0003:00003b04       ??_C@_07HEBF@d_world?$AA@  10066b04     death.obj
 0003:00003b0c       ??_C@_01BJG@?6?$AA@        10066b0c     death.obj
 0003:00003b10       ??_C@_0L@NBPB@?5killed?5a?5?$AA@ 10066b10     death.obj
 0003:00003b1c       ??_C@_0L@LPCL@d_teammate?$AA@ 10066b1c     death.obj
 0003:00003b28       ??_C@_02CILA@d_?$AA@       10066b28     death.obj
 0003:00003b2c       ??_C@_0CF@JEKB@Unknown?5demo?5buffer?5type?0?5skippi@ 10066b2c     demo.obj
 0003:00003b54       ?g_iAlive@@3HA             10066b54     entity.obj
 0003:00003b58       ??_C@_0BI@FECA@HUD_TxferLocalOverrides?$AA@ 10066b58     entity.obj
 0003:00003b70       ??_C@_0BH@FMIA@HUD_ProcessPlayerState?$AA@ 10066b70     entity.obj
 0003:00003b88       ??_C@_0BI@NGEF@HUD_TxferPredictionData?$AA@ 10066b88     entity.obj
 0003:00003ba0       ??_C@_0BD@CLFD@HUD_CreateEntities?$AA@ 10066ba0     entity.obj
 0003:00003bb4       ??_C@_0BA@MBAO@HUD_StudioEvent?$AA@ 10066bb4     entity.obj
 0003:00003bc4       ??_C@_0BC@IOGH@HUD_TempEntUpdate?$AA@ 10066bc4     entity.obj
 0003:00003bd8       ?studio@@3Ur_studio_interface_s@@A 10066bd8     GameStudioModelRenderer.obj
 0003:00003be4       ??_C@_0BD@NPLL@R_StudioDrawPlayer?$AA@ 10066be4     GameStudioModelRenderer.obj
 0003:00003bf8       ??_C@_06BNLF@Geiger?$AA@   10066bf8     geiger.obj
 0003:00003c00       ??_C@_0BE@GIDB@player?1geiger?$CFd?4wav?$AA@ 10066c00     geiger.obj
 0003:00003c14       ?giDmgFlags@@3PAHA         10066c14     health.obj
 0003:00003c44       ??_C@_05LNCG@cl_lw?$AA@    10066c44     hud.obj
 0003:00003c4c       ??_C@_0BB@MDCH@hud_capturemouse?$AA@ 10066c4c     hud.obj
 0003:00003c60       ??_C@_0M@KCGB@default_fov?$AA@ 10066c60     hud.obj
 0003:00003c6c       ??_C@_02OHJF@90?$AA@       10066c6c     hud.obj
 0003:00003c70       ??_C@_0BH@GLOE@zoom_sensitivity_ratio?$AA@ 10066c70     hud.obj
 0003:00003c88       ??_C@_03IIOO@1?42?$AA@     10066c88     hud.obj
 0003:00003c8c       ??_C@_0P@HAKO@hud_takesshots?$AA@ 10066c8c     hud.obj
 0003:00003c9c       ??_C@_09FGOO@TextFiles?$AA@ 10066c9c     hud.obj
 0003:00003ca8       ??_C@_09MDMJ@AllowSpec?$AA@ 10066ca8     hud.obj
 0003:00003cb4       ??_C@_08DBKP@TeamInfo?$AA@ 10066cb4     hud.obj
 0003:00003cc0       ??_C@_09GODL@TeamScore?$AA@ 10066cc0     hud.obj
 0003:00003ccc       ??_C@_09HCEC@ScoreInfo?$AA@ 10066ccc     hud.obj
 0003:00003cd8       ??_C@_0L@PMLK@ServerName?$AA@ 10066cd8     hud.obj
 0003:00003ce4       ??_C@_08DIOF@RandomPC?$AA@ 10066ce4     hud.obj
 0003:00003cf0       ??_C@_07NAFI@BuildSt?$AA@  10066cf0     hud.obj
 0003:00003cf8       ??_C@_04PAEL@MOTD?$AA@     10066cf8     hud.obj
 0003:00003d00       ??_C@_07KJIL@Detpack?$AA@  10066d00     hud.obj
 0003:00003d08       ??_C@_05MAMC@Feign?$AA@    10066d08     hud.obj
 0003:00003d10       ??_C@_09POID@TeamNames?$AA@ 10066d10     hud.obj
 0003:00003d1c       ??_C@_08PFGL@ValClass?$AA@ 10066d1c     hud.obj
 0003:00003d28       ??_C@_0O@HIEL@togglebrowser?$AA@ 10066d28     hud.obj
 0003:00003d38       ??_C@_07LCAN@special?$AA@  10066d38     hud.obj
 0003:00003d40       ??_C@_0BG@GAJE@ForceCloseCommandMenu?$AA@ 10066d40     hud.obj
 0003:00003d58       ??_C@_0N@LLLM@?9commandmenu?$AA@ 10066d58     hud.obj
 0003:00003d68       ??_C@_0N@NHMD@?$CLcommandmenu?$AA@ 10066d68     hud.obj
 0003:00003d78       ??_C@_07GBJB@Concuss?$AA@  10066d78     hud.obj
 0003:00003d80       ??_C@_06HLLA@SetFOV?$AA@   10066d80     hud.obj
 0003:00003d88       ??_C@_07PHEM@InitHUD?$AA@  10066d88     hud.obj
 0003:00003d90       ??_C@_08MAFF@GameMode?$AA@ 10066d90     hud.obj
 0003:00003d9c       ??_C@_08EHIO@ResetHUD?$AA@ 10066d9c     hud.obj
 0003:00003da8       ??_C@_04OKCJ@Logo?$AA@     10066da8     hud.obj
 0003:00003db0       ??_C@_0BA@KOLH@sprites?1hud?4txt?$AA@ 10066db0     hud.obj
 0003:00003dc0       ??_C@_0M@IJBH@dmg_concuss?$AA@ 10066dc0     hud_msg.obj
 0003:00003dcc       ?grgLogoFrame@@3PAHA       10066dcc     hud_redraw.obj
 0003:00003eac       ??_C@_0BE@LLGO@sprites?1?$CFd_logo?4spr?$AA@ 10066eac     hud_redraw.obj
 0003:00003ec0       ??_C@_09FKM@snapshot?6?$AA@ 10066ec0     hud_redraw.obj
 0003:00003ecc       ??_C@_09JAOA@got?5list?6?$AA@ 10066ecc     hud_servers.obj
 0003:00003ed8       ??_C@_0M@LJKE@ping?5?$DN?$DN?5?$CFs?6?$AA@ 10066ed8     hud_servers.obj
 0003:00003ee4       ??_C@_04LOLD@?$CF?42f?$AA@ 10066ee4     hud_servers.obj
 0003:00003eec       ??_C@_09LDE@rules?5?$CFs?6?$AA@ 10066eec     hud_servers.obj
 0003:00003ef8       ??_C@_0M@PDMO@players?5?$CFs?6?$AA@ 10066ef8     hud_servers.obj
 0003:00003f04       ??_C@_05CHHA@?$CFs?3?$CFi?$AA@ 10066f04     hud_servers.obj
 0003:00003f0c       ??_C@_01PKAG@?3?$AA@       10066f0c     hud_servers.obj
 0003:00003f10       ??_C@_01KCD@?$HN?$AA@      10066f10     hud_servers.obj
 0003:00003f14       ??_C@_01PFFB@?$HL?$AA@     10066f14     hud_servers.obj
 0003:00003f18       ??_C@_06PJCF@Master?$AA@   10066f18     hud_servers.obj
 0003:00003f20       ??_C@_05HIFK@?9comm?$AA@   10066f20     hud_servers.obj
 0003:00003f28       ??_C@_0M@EKPE@woncomm?4lst?$AA@ 10066f28     hud_servers.obj
 0003:00003f34       ??_C@_0BH@PPFB@half?9life?4east?4won?4net?$AA@ 10066f34     hud_servers.obj
 0003:00003f4c       ??_C@_0DG@MEPP@SendRequest?3?5?5Unable?5to?5read?5mas@ 10066f4c     hud_servers.obj
 0003:00003f84       ??_C@_0CB@EDH@usage?3?5?5specmode?5?$DM?5modenumber?5?$DO?6@ 10066f84     hud_spectator.obj
 0003:00003fa8       ??_C@_0CH@KCGG@specmode?5only?5in?5HLTV?5mode?5avail@ 10066fa8     hud_spectator.obj
 0003:00003fd0       ??_C@_08GHIH@specmode?$AA@ 10066fd0     hud_spectator.obj
 0003:00003fdc       ??_C@_0N@JBKC@cl_drawnames?$AA@ 10066fdc     hud_spectator.obj
 0003:00003fec       ??_C@_0BC@MCPA@info_player_start?$AA@ 10066fec     hud_spectator.obj
 0003:00004000       ??_C@_0BH@CBNI@sprites?1crosshairs?4spr?$AA@ 10067000     hud_spectator.obj
 0003:00004018       ??_C@_0BD@IDOK@sprites?1camera?4spr?$AA@ 10067018     hud_spectator.obj
 0003:0000402c       ??_C@_0BG@MFBM@sprites?1laserbeam?4spr?$AA@ 1006702c     hud_spectator.obj
 0003:00004044       ??_C@_0BB@KBPC@sprites?1tile?4spr?$AA@ 10067044     hud_spectator.obj
 0003:00004058       ??_C@_0BI@KIPC@sprites?1iplayerdead?4spr?$AA@ 10067058     hud_spectator.obj
 0003:00004070       ??_C@_0BH@NGFH@sprites?1iplayerred?4spr?$AA@ 10067070     hud_spectator.obj
 0003:00004088       ??_C@_0BI@OOIK@sprites?1iplayerblue?4spr?$AA@ 10067088     hud_spectator.obj
 0003:000040a0       ??_C@_0BE@CBOF@sprites?1iplayer?4spr?$AA@ 100670a0     hud_spectator.obj
 0003:000040b4       ??_C@_0DJ@GDFO@CHudSpectator?3?3DirectorEvent?3?5un@ 100670b4     hud_spectator.obj
 0003:000040f0       ??_C@_0BJ@LGBD@Invalid?5spectator?5mode?4?6?$AA@ 100670f0     hud_spectator.obj
 0003:0000410c       ??_C@_0P@EKME@?$CFc?$CDSpec_Mode?$CFd?$AA@ 1006710c     hud_spectator.obj
 0003:0000411c       ??_C@_0BF@JNMG@?$CFc?$CDSpec_Mode_Inset?$CFd?$AA@ 1006711c     hud_spectator.obj
 0003:00004134       ??_C@_0CN@IBI@Error?5parsing?5overview?5file?5?$CFs?4?5@ 10067134     hud_spectator.obj
 0003:00004164       ??_C@_0CP@FBDL@Error?5parsing?5overview?5file?5?$CFs?4?5@ 10067164     hud_spectator.obj
 0003:00004194       ??_C@_0DF@EJOJ@Error?5parsing?5overview?5file?5?$CFs?4?5@ 10067194     hud_spectator.obj
 0003:000041cc       ??_C@_06OKPG@height?$AA@   100671cc     hud_spectator.obj
 0003:000041d4       ??_C@_05LEJM@image?$AA@    100671d4     hud_spectator.obj
 0003:000041dc       ??_C@_05ELOL@layer?$AA@    100671dc     hud_spectator.obj
 0003:000041e4       ??_C@_05HAJP@inset?$AA@    100671e4     hud_spectator.obj
 0003:000041ec       ??_C@_07MOKO@rotated?$AA@  100671ec     hud_spectator.obj
 0003:000041f4       ??_C@_06JFAO@global?$AA@   100671f4     hud_spectator.obj
 0003:000041fc       ??_C@_0DP@BMGE@Couldn?8t?5open?5file?5?$CFs?4?5Using?5def@ 100671fc     hud_spectator.obj
 0003:0000423c       ??_C@_0BB@DAON@overviews?1?$CFs?4txt?$AA@ 1006723c     hud_spectator.obj
 0003:00004250       ??_C@_09BOFG@CAM_Think?$AA@ 10067250     in_camera.obj
 0003:0000425c       ??_C@_0M@BJEK@info_camera?$AA@ 1006725c     in_camera.obj
 0003:00004268       ??_C@_06MFB@angles?$AA@    10067268     in_camera.obj
 0003:00004270       ??_C@_0BH@MKJP@info_player_deathmatch?$AA@ 10067270     in_camera.obj
 0003:00004288       ??_C@_0BA@HCOH@info_vgui_start?$AA@ 10067288     in_camera.obj
 0003:00004298       ??_C@_0M@NIDJ@cam_command?$AA@ 10067298     in_camera.obj
 0003:000042a4       ??_C@_0O@HDLK@c_mindistance?$AA@ 100672a4     in_camera.obj
 0003:000042b4       ??_C@_04BPED@30?40?$AA@    100672b4     in_camera.obj
 0003:000042bc       ??_C@_0O@KEJK@c_maxdistance?$AA@ 100672bc     in_camera.obj
 0003:000042cc       ??_C@_05DGAA@200?40?$AA@   100672cc     in_camera.obj
 0003:000042d4       ??_C@_08HEEL@c_minyaw?$AA@ 100672d4     in_camera.obj
 0003:000042e0       ??_C@_06HJPA@?9135?40?$AA@ 100672e0     in_camera.obj
 0003:000042e8       ??_C@_08PPKM@c_maxyaw?$AA@ 100672e8     in_camera.obj
 0003:000042f4       ??_C@_05KDNF@135?40?$AA@   100672f4     in_camera.obj
 0003:000042fc       ??_C@_0L@MCGD@c_minpitch?$AA@ 100672fc     in_camera.obj
 0003:00004308       ??_C@_03IPNG@0?40?$AA@     10067308     in_camera.obj
 0003:0000430c       ??_C@_0L@JBAM@c_maxpitch?$AA@ 1006730c     in_camera.obj
 0003:00004318       ??_C@_04HPHH@90?40?$AA@    10067318     in_camera.obj
 0003:00004320       ??_C@_0M@CHG@cam_contain?$AA@ 10067320     in_camera.obj
 0003:0000432c       ??_C@_0O@IIFI@cam_wishpitch?$AA@ 1006732c     in_camera.obj
 0003:0000433c       ??_C@_0M@LGFI@cam_wishyaw?$AA@ 1006733c     in_camera.obj
 0003:00004348       ??_C@_0N@JNAO@cam_wishdist?$AA@ 10067348     in_camera.obj
 0003:00004358       ??_C@_0O@KDID@cam_idealdist?$AA@ 10067358     in_camera.obj
 0003:00004368       ??_C@_02JJMI@64?$AA@       10067368     in_camera.obj
 0003:0000436c       ??_C@_0P@OFGG@cam_idealpitch?$AA@ 1006736c     in_camera.obj
 0003:0000437c       ??_C@_02GJDO@20?$AA@       1006737c     in_camera.obj
 0003:00004380       ??_C@_0N@DLGI@cam_idealyaw?$AA@ 10067380     in_camera.obj
 0003:00004390       ??_C@_0L@CHNG@cam_snapto?$AA@ 10067390     in_camera.obj
 0003:0000439c       ??_C@_06HAON@snapto?$AA@   1006739c     in_camera.obj
 0003:000043a4       ??_C@_0N@CHNA@?9camdistance?$AA@ 100673a4     in_camera.obj
 0003:000043b4       ??_C@_0N@ELKP@?$CLcamdistance?$AA@ 100673b4     in_camera.obj
 0003:000043c4       ??_C@_0O@KPOF@?9cammousemove?$AA@ 100673c4     in_camera.obj
 0003:000043d4       ??_C@_0O@EIIJ@?$CLcammousemove?$AA@ 100673d4     in_camera.obj
 0003:000043e4       ??_C@_0M@NCDD@firstperson?$AA@ 100673e4     in_camera.obj
 0003:000043f0       ??_C@_0M@PBHN@thirdperson?$AA@ 100673f0     in_camera.obj
 0003:000043fc       ??_C@_07NNFI@?9camout?$AA@ 100673fc     in_camera.obj
 0003:00004404       ??_C@_07DKCF@?$CLcamout?$AA@ 10067404     in_camera.obj
 0003:0000440c       ??_C@_06CBEE@?9camin?$AA@  1006740c     in_camera.obj
 0003:00004414       ??_C@_06FMIE@?$CLcamin?$AA@ 10067414     in_camera.obj
 0003:0000441c       ??_C@_0N@LFE@?9camyawright?$AA@ 1006741c     in_camera.obj
 0003:0000442c       ??_C@_0N@GHCL@?$CLcamyawright?$AA@ 1006742c     in_camera.obj
 0003:0000443c       ??_C@_0M@GBBA@?9camyawleft?$AA@ 1006743c     in_camera.obj
 0003:00004448       ??_C@_0M@BODA@?$CLcamyawleft?$AA@ 10067448     in_camera.obj
 0003:00004454       ??_C@_0O@FMN@?9campitchdown?$AA@ 10067454     in_camera.obj
 0003:00004464       ??_C@_0O@OCKB@?$CLcampitchdown?$AA@ 10067464     in_camera.obj
 0003:00004474       ??_C@_0M@NHJL@?9campitchup?$AA@ 10067474     in_camera.obj
 0003:00004480       ??_C@_0M@KILL@?$CLcampitchup?$AA@ 10067480     in_camera.obj
 0003:0000448c       ??_C@_0BA@FJOJ@CL_CameraOffset?$AA@ 1006748c     in_camera.obj
 0003:0000449c       ??_C@_08IHLG@in_jlook?$AA@ 1006749c     input.obj
 0003:000044a8       ??_C@_08OHEM@in_mlook?$AA@ 100674a8     input.obj
 0003:000044b4       ??_C@_08DLKC@in_graph?$AA@ 100674b4     input.obj
 0003:000044c0       ??_C@_0CO@OOGM@Three?5keys?5down?5for?5a?5button?5?8?$CFc@ 100674c0     input.obj
 0003:000044f0       ??_C@_0BK@PIEI@info_player_start_reverse?$AA@ 100674f0     input.obj
 0003:0000450c       ??_C@_0O@KLAB@CL_CreateMove?$AA@ 1006750c     input.obj
 0003:0000451c       ??_C@_0BD@LEIF@cl_steer_delta_dec?$AA@ 1006751c     input.obj
 0003:00004530       ??_C@_01KOHF@7?$AA@        10067530     input.obj
 0003:00004534       ??_C@_0BD@BNNC@cl_steer_delta_mul?$AA@ 10067534     input.obj
 0003:00004548       ??_C@_03IJHI@1?48?$AA@     10067548     input.obj
 0003:0000454c       ??_C@_0BD@NLJI@cl_steer_threshold?$AA@ 1006754c     input.obj
 0003:00004560       ??_C@_02HOP@12?$AA@        10067560     input.obj
 0003:00004564       ??_C@_0BG@FNMO@cl_steer_center_speed?$AA@ 10067564     input.obj
 0003:0000457c       ??_C@_06MLIH@m_side?$AA@   1006757c     input.obj
 0003:00004584       ??_C@_03NLGO@0?48?$AA@     10067584     input.obj
 0003:00004588       ??_C@_09NFLM@m_forward?$AA@ 10067588     input.obj
 0003:00004594       ??_C@_0O@IMI@cl_vsmoothing?$AA@ 10067594     input.obj
 0003:000045a4       ??_C@_04IFNE@0?405?$AA@    100675a4     input.obj
 0003:000045ac       ??_C@_0N@LIOC@cl_pitchdown?$AA@ 100675ac     input.obj
 0003:000045bc       ??_C@_0L@FMOC@cl_pitchup?$AA@ 100675bc     input.obj
 0003:000045c8       ??_C@_02PBA@89?$AA@        100675c8     input.obj
 0003:000045cc       ??_C@_0BA@HCFJ@cl_movespeedkey?$AA@ 100675cc     input.obj
 0003:000045dc       ??_C@_03HAGP@0?43?$AA@     100675dc     input.obj
 0003:000045e0       ??_C@_0N@DLCL@cl_sidespeed?$AA@ 100675e0     input.obj
 0003:000045f0       ??_C@_0N@IFLM@cl_backspeed?$AA@ 100675f0     input.obj
 0003:00004600       ??_C@_03GPIO@400?$AA@      10067600     input.obj
 0003:00004604       ??_C@_0L@BDND@cl_upspeed?$AA@ 10067604     input.obj
 0003:00004610       ??_C@_03PMLK@320?$AA@      10067610     input.obj
 0003:00004614       ??_C@_0O@IBII@cl_pitchspeed?$AA@ 10067614     input.obj
 0003:00004624       ??_C@_03KOGH@225?$AA@      10067624     input.obj
 0003:00004628       ??_C@_0P@DBDG@rally_rearview?$AA@ 10067628     input.obj
 0003:00004638       ??_C@_0BB@MHNK@cl_anglespeedkey?$AA@ 10067638     input.obj
 0003:0000464c       ??_C@_04KHAF@0?467?$AA@    1006764c     input.obj
 0003:00004654       ??_C@_0L@MEDB@lookspring?$AA@ 10067654     input.obj
 0003:00004660       ??_C@_0L@DEGL@lookstrafe?$AA@ 10067660     input.obj
 0003:0000466c       ??_C@_08LJCI@geardown?$AA@ 1006766c     input.obj
 0003:00004678       ??_C@_06IHIA@gearup?$AA@   10067678     input.obj
 0003:00004680       ??_C@_06JOJM@?9break?$AA@  10067680     input.obj
 0003:00004688       ??_C@_06ODFM@?$CLbreak?$AA@ 10067688     input.obj
 0003:00004690       ??_C@_06HFMM@?9graph?$AA@  10067690     input.obj
 0003:00004698       ??_C@_06IAM@?$CLgraph?$AA@ 10067698     input.obj
 0003:000046a0       ??_C@_0M@CDNF@?9showscores?$AA@ 100676a0     input.obj
 0003:000046ac       ??_C@_0M@FMPF@?$CLshowscores?$AA@ 100676ac     input.obj
 0003:000046b8       ??_C@_06ICJL@?9score?$AA@  100676b8     input.obj
 0003:000046c0       ??_C@_06PPFL@?$CLscore?$AA@ 100676c0     input.obj
 0003:000046c8       ??_C@_05PPMG@?9alt1?$AA@   100676c8     input.obj
 0003:000046d0       ??_C@_05DPBJ@?$CLalt1?$AA@ 100676d0     input.obj
 0003:000046d8       ??_C@_07COEO@?9reload?$AA@ 100676d8     input.obj
 0003:000046e0       ??_C@_07MJDD@?$CLreload?$AA@ 100676e0     input.obj
 0003:000046e8       ??_C@_05KKMP@?9duck?$AA@   100676e8     input.obj
 0003:000046f0       ??_C@_05GKBA@?$CLduck?$AA@ 100676f0     input.obj
 0003:000046f8       ??_C@_06MJNI@?9jlook?$AA@  100676f8     input.obj
 0003:00004700       ??_C@_06LEBI@?$CLjlook?$AA@ 10067700     input.obj
 0003:00004708       ??_C@_06KJCC@?9mlook?$AA@  10067708     input.obj
 0003:00004710       ??_C@_06NEOC@?$CLmlook?$AA@ 10067710     input.obj
 0003:00004718       ??_C@_06GJPN@?9klook?$AA@  10067718     input.obj
 0003:00004720       ??_C@_06BEDN@?$CLklook?$AA@ 10067720     input.obj
 0003:00004728       ??_C@_07ENEF@impulse?$AA@  10067728     input.obj
 0003:00004730       ??_C@_05JPGJ@?9jump?$AA@   10067730     input.obj
 0003:00004738       ??_C@_04BFNL@?9use?$AA@    10067738     input.obj
 0003:00004740       ??_C@_04MKDH@?$CLuse?$AA@  10067740     input.obj
 0003:00004748       ??_C@_08JPPJ@?9attack2?$AA@ 10067748     input.obj
 0003:00004754       ??_C@_08CPBO@?$CLattack2?$AA@ 10067754     input.obj
 0003:00004760       ??_C@_07EHKH@?9attack?$AA@ 10067760     input.obj
 0003:00004768       ??_C@_07KANK@?$CLattack?$AA@ 10067768     input.obj
 0003:00004770       ??_C@_06CNLP@?9speed?$AA@  10067770     input.obj
 0003:00004778       ??_C@_06FAHP@?$CLspeed?$AA@ 10067778     input.obj
 0003:00004780       ??_C@_0L@BMPO@?9moveright?$AA@ 10067780     input.obj
 0003:0000478c       ??_C@_0L@DMHD@?$CLmoveright?$AA@ 1006778c     input.obj
 0003:00004798       ??_C@_09MLIL@?9moveleft?$AA@ 10067798     input.obj
 0003:000047a4       ??_C@_09EGDL@?$CLmoveleft?$AA@ 100677a4     input.obj
 0003:000047b0       ??_C@_07OMD@?9strafe?$AA@  100677b0     input.obj
 0003:000047b8       ??_C@_07OJLO@?$CLstrafe?$AA@ 100677b8     input.obj
 0003:000047c0       ??_C@_09OKBO@?9lookdown?$AA@ 100677c0     input.obj
 0003:000047cc       ??_C@_09GHKO@?$CLlookdown?$AA@ 100677cc     input.obj
 0003:000047d8       ??_C@_07PBGO@?9lookup?$AA@ 100677d8     input.obj
 0003:000047e0       ??_C@_07BGBD@?$CLlookup?$AA@ 100677e0     input.obj
 0003:000047e8       ??_C@_09BGG@?9movedown?$AA@ 100677e8     input.obj
 0003:000047f4       ??_C@_09IMNG@?$CLmovedown?$AA@ 100677f4     input.obj
 0003:00004800       ??_C@_07ECOP@?9moveup?$AA@ 10067800     input.obj
 0003:00004808       ??_C@_07KFJC@?$CLmoveup?$AA@ 10067808     input.obj
 0003:00004820       ?dwAxisFlags@@3PAKA        10067820     inputw32.obj
 0003:00004838       ??_C@_0P@IDIM@?9noforcemparms?$AA@ 10067838     inputw32.obj
 0003:00004848       ??_C@_0P@FFN@?9noforcemaccel?$AA@ 10067848     inputw32.obj
 0003:00004858       ??_C@_0N@FJKO@?9noforcemspd?$AA@ 10067858     inputw32.obj
 0003:00004868       ??_C@_08HGMM@?9nomouse?$AA@ 10067868     inputw32.obj
 0003:00004874       ??_C@_0O@FFED@IN_MouseEvent?$AA@ 10067874     inputw32.obj
 0003:00004884       ??_C@_0BB@EAAK@joystick?5found?6?6?$AA@ 10067884     inputw32.obj
 0003:00004898       ??_C@_0DL@NLIF@joystick?5not?5found?5?9?9?5invalid?5jo@ 10067898     inputw32.obj
 0003:000048d4       ??_C@_0DA@BGGP@joystick?5not?5found?5?9?9?5no?5valid?5j@ 100678d4     inputw32.obj
 0003:00004904       ??_C@_0CL@OFOO@joystick?5not?5found?5?9?9?5driver?5not@ 10067904     inputw32.obj
 0003:00004930       ??_C@_06MAKJ@?9nojoy?$AA@  10067930     inputw32.obj
 0003:00004938       ??_C@_0BB@KOMD@?6?$CFs?5configured?6?6?$AA@ 10067938     inputw32.obj
 0003:0000494c       ??_C@_08GHPG@joystick?$AA@ 1006794c     inputw32.obj
 0003:00004958       ??_C@_0BC@OLGL@joyadvancedupdate?$AA@ 10067958     inputw32.obj
 0003:0000496c       ??_C@_0BB@GLEF@force_centerview?$AA@ 1006796c     inputw32.obj
 0003:00004980       ??_C@_0L@OKNI@joywwhack2?$AA@ 10067980     inputw32.obj
 0003:0000498c       ??_C@_0L@BFGB@joywwhack1?$AA@ 1006798c     inputw32.obj
 0003:00004998       ??_C@_0BC@ODGG@joyyawsensitivity?$AA@ 10067998     inputw32.obj
 0003:000049ac       ??_C@_0BE@BPOE@joypitchsensitivity?$AA@ 100679ac     inputw32.obj
 0003:000049c0       ??_C@_03NNMA@1?40?$AA@     100679c0     inputw32.obj
 0003:000049c4       ??_C@_0BD@NMFD@joysidesensitivity?$AA@ 100679c4     inputw32.obj
 0003:000049d8       ??_C@_0BG@JKFB@joyforwardsensitivity?$AA@ 100679d8     inputw32.obj
 0003:000049f0       ??_C@_04ONAI@?91?40?$AA@   100679f0     inputw32.obj
 0003:000049f8       ??_C@_0BA@IJLN@joyyawthreshold?$AA@ 100679f8     inputw32.obj
 0003:00004a08       ??_C@_0BC@LPHO@joypitchthreshold?$AA@ 10067a08     inputw32.obj
 0003:00004a1c       ??_C@_0BB@NEAN@joysidethreshold?$AA@ 10067a1c     inputw32.obj
 0003:00004a30       ??_C@_0BE@BIEK@joyforwardthreshold?$AA@ 10067a30     inputw32.obj
 0003:00004a44       ??_C@_04JDHO@0?415?$AA@    10067a44     inputw32.obj
 0003:00004a4c       ??_C@_0M@FDIE@joyadvaxisv?$AA@ 10067a4c     inputw32.obj
 0003:00004a58       ??_C@_0M@KMDN@joyadvaxisu?$AA@ 10067a58     inputw32.obj
 0003:00004a64       ??_C@_0M@PJNI@joyadvaxisr?$AA@ 10067a64     inputw32.obj
 0003:00004a70       ??_C@_0M@KNGA@joyadvaxisz?$AA@ 10067a70     inputw32.obj
 0003:00004a7c       ??_C@_0M@FCNJ@joyadvaxisy?$AA@ 10067a7c     inputw32.obj
 0003:00004a88       ??_C@_0M@PIEO@joyadvaxisx?$AA@ 10067a88     inputw32.obj
 0003:00004a94       ??_C@_0M@MNJ@joyadvanced?$AA@ 10067a94     inputw32.obj
 0003:00004aa0       ??_C@_07IGAI@joyname?$AA@  10067aa0     inputw32.obj
 0003:00004aa8       ??_C@_0M@CKB@sensitivity?$AA@ 10067aa8     inputw32.obj
 0003:00004ab4       ??_C@_01ECJ@3?$AA@         10067ab4     inputw32.obj
 0003:00004ab8       ??_C@_08MAF@m_filter?$AA@  10067ab8     inputw32.obj
 0003:00004ac4       ??_C@_08FEII@ShowMenu?$AA@ 10067ac4     menu.obj
 0003:00004ad0       ??_C@_0P@ECND@menuselect?5?$CFd?6?$AA@ 10067ad0     menu.obj
 0003:00004ae0       ?g_pCustomName@@3PADA      10067ae0     message.obj
 0003:00004ae4       ??_C@_06JLAI@Custom?$AA@   10067ae4     message.obj
 0003:00004aec       ??_C@_09KAAJ@GameTitle?$AA@ 10067aec     message.obj
 0003:00004af8       ??_C@_07EFI@HudText?$AA@   10067af8     message.obj
 0003:00004b00       ??_C@_0L@BLCO@title_life?$AA@ 10067b00     message.obj
 0003:00004b0c       ??_C@_0L@HJGL@title_half?$AA@ 10067b0c     message.obj
 0003:00004b18       ??_C@_09KMEO@GAMETITLE?$AA@ 10067b18     message.obj
 0003:00004b84       _nanmask                   10067b84     pm_math.obj
 0003:00004bd0       ??_C@_0BE@BFKO@sound?1materials?4txt?$AA@ 10067bd0     pm_shared.obj
 0003:00004be4       ??_C@_0CB@OPAK@Too?5many?5entities?5were?5touched?$CB?6@ 10067be4     pm_shared.obj
 0003:00004c08       ??_C@_0BM@FOHK@PM?5?5Got?5a?5NaN?5origin?5on?5?$CFi?6?$AA@ 10067c08     pm_shared.obj
 0003:00004c24       ??_C@_0BL@OHOE@PM?5?5Got?5a?5NaN?5velocity?5?$CFi?6?$AA@ 10067c24     pm_shared.obj
 0003:00004c40       ??_C@_0O@LFCP@car_lands?4wav?$AA@ 10067c40     pm_shared.obj
 0003:00004c50       ??_C@_0BE@GELK@player?1pl_wade1?4wav?$AA@ 10067c50     pm_shared.obj
 0003:00004c64       ??_C@_0DC@BOIL@Bogus?5pmove?5player?5movetype?5?$CFi?5o@ 10067c64     pm_shared.obj
 0003:00004c9c       ??_C@_0BB@IPOH@hud_saytext_time?$AA@ 10067c9c     saytext.obj
 0003:00004cb0       ??_C@_07MFFM@SayText?$AA@  10067cb0     saytext.obj
 0003:00004cb8       ??_C@_0O@DEBE@misc?1talk?4wav?$AA@ 10067cb8     saytext.obj
 0003:00004cc8       ??_C@_0L@DPCB@StatusIcon?$AA@ 10067cc8     status_icons.obj
 0003:00004cd4       ??_C@_0BC@PDJB@weapons?1timer?4wav?$AA@ 10067cd4     status_icons.obj
 0003:00004ce8       ??_C@_07HCFB@grenade?$AA@  10067ce8     status_icons.obj
 0003:00004cf0       ??_C@_0N@FFHJ@hud_centerid?$AA@ 10067cf0     statusbar.obj
 0003:00004d00       ??_C@_0M@NJMM@StatusValue?$AA@ 10067d00     statusbar.obj
 0003:00004d0c       ??_C@_0L@LPOH@StatusText?$AA@ 10067d0c     statusbar.obj
 0003:00004d18       ??_C@_06NFJB@?$CK?$CK?$CK?$CK?$CK?$CK?$AA@ 10067d18     statusbar.obj
 0003:00004d20       ?dPVSTime@@3HA             10067d20     StudioModelRenderer.obj
 0003:00004d24       ??_C@_0N@DAIM@rally_chrome?$AA@ 10067d24     StudioModelRenderer.obj
 0003:00004d34       ??_C@_0BB@FKIG@rally_physrotate?$AA@ 10067d34     StudioModelRenderer.obj
 0003:00004d48       ??_C@_0P@LECL@r_drawentities?$AA@ 10067d48     StudioModelRenderer.obj
 0003:00004d58       ??_C@_09KOCP@developer?$AA@ 10067d58     StudioModelRenderer.obj
 0003:00004d64       ??_C@_0M@FENB@cl_himodels?$AA@ 10067d64     StudioModelRenderer.obj
 0003:00004d70       ??_C@_0M@FJMP@Bip01?5Spine?$AA@ 10067d70     StudioModelRenderer.obj
 0003:00004d7c       ??_C@_0M@HDIE@loading?5?$CFs?6?$AA@ 10067d7c     StudioModelRenderer.obj
 0003:00004d88       ??_C@_0O@PJHB@SHOCK?9RghBack?$AA@ 10067d88     StudioModelRenderer.obj
 0003:00004d98       ??_C@_0O@GJEO@SHOCK?9LefBack?$AA@ 10067d98     StudioModelRenderer.obj
 0003:00004da8       ??_C@_0O@MEGC@SHOCK?9LefFron?$AA@ 10067da8     StudioModelRenderer.obj
 0003:00004db8       ??_C@_0O@FEFN@SHOCK?9RghFron?$AA@ 10067db8     StudioModelRenderer.obj
 0003:00004dc8       ??_C@_0BE@BAOI@models?1interior?4mdl?$AA@ 10067dc8     StudioModelRenderer.obj
 0003:00004ddc       ??_C@_0BP@MGIN@models?1player?1?$CFs?1?$CFs_chrome?4mdl?$AA@ 10067ddc     StudioModelRenderer.obj
 0003:00004dfc       ??_C@_0BM@KMAD@Too?5many?5attachments?5on?5?$CFs?6?$AA@ 10067dfc     StudioModelRenderer.obj
 0003:00004e18       ??_C@_0BF@OBBK@models?1?$CFs_chrome?4mdl?$AA@ 10067e18     StudioModelRenderer.obj
 0003:00004e30       ??_C@_08FKPG@interior?$AA@ 10067e30     StudioModelRenderer.obj
 0003:00004e3c       ??_C@_06MNOE@player?$AA@   10067e3c     StudioModelRenderer.obj
 0003:00004e44       ??_C@_07FKFB@TextMsg?$AA@  10067e44     text_message.obj
 0003:00004e4c       ??_C@_0BI@DPPF@HUD_DrawNormalTriangles?$AA@ 10067e4c     tri.obj
 0003:00004e64       ??_C@_0BN@KMEP@HUD_DrawTransparentTriangles?$AA@ 10067e64     tri.obj
 0003:00004e88       ?v_iyaw_cycle@@3Ucvar_s@@A 10067e88     view.obj
 0003:00004ea0       ?v_iroll_cycle@@3Ucvar_s@@A 10067ea0     view.obj
 0003:00004eb8       ?v_ipitch_cycle@@3Ucvar_s@@A 10067eb8     view.obj
 0003:00004ed0       ?v_iyaw_level@@3Ucvar_s@@A 10067ed0     view.obj
 0003:00004ee8       ?v_iroll_level@@3Ucvar_s@@A 10067ee8     view.obj
 0003:00004f00       ?v_ipitch_level@@3Ucvar_s@@A 10067f00     view.obj
 0003:00004f14       ??_C@_0P@GKIA@v_ipitch_level?$AA@ 10067f14     view.obj
 0003:00004f24       ??_C@_03CFEB@0?41?$AA@     10067f24     view.obj
 0003:00004f28       ??_C@_0O@DPLD@v_iroll_level?$AA@ 10067f28     view.obj
 0003:00004f38       ??_C@_0N@PNOG@v_iyaw_level?$AA@ 10067f38     view.obj
 0003:00004f48       ??_C@_0P@IHFO@v_ipitch_cycle?$AA@ 10067f48     view.obj
 0003:00004f58       ??_C@_03IPBN@0?45?$AA@     10067f58     view.obj
 0003:00004f5c       ??_C@_0O@NCGN@v_iroll_cycle?$AA@ 10067f5c     view.obj
 0003:00004f6c       ??_C@_01KOLO@2?$AA@        10067f6c     view.obj
 0003:00004f70       ??_C@_0N@BADI@v_iyaw_cycle?$AA@ 10067f70     view.obj
 0003:00004f80       ??_C@_08ODJH@scr_ofsz?$AA@ 10067f80     view.obj
 0003:00004f8c       ??_C@_08BMCO@scr_ofsy?$AA@ 10067f8c     view.obj
 0003:00004f98       ??_C@_08LGLJ@scr_ofsx?$AA@ 10067f98     view.obj
 0003:00004fa4       ??_C@_0N@LBEO@V_CalcRefdef?$AA@ 10067fa4     view.obj
 0003:00004fb4       ??_C@_0N@JGKA@cl_waterdist?$AA@ 10067fb4     view.obj
 0003:00004fc4       ??_C@_08BPEI@cl_bobup?$AA@ 10067fc4     view.obj
 0003:00004fd0       ??_C@_06FFIM@cl_bob?$AA@   10067fd0     view.obj
 0003:00004fd8       ??_C@_04CPII@0?401?$AA@    10067fd8     view.obj
 0003:00004fe0       ??_C@_0M@NDIF@cl_bobcycle?$AA@ 10067fe0     view.obj
 0003:00004fec       ??_C@_0O@GJCG@v_centerspeed?$AA@ 10067fec     view.obj
 0003:00004ffc       ??_C@_0N@KEFH@v_centermove?$AA@ 10067ffc     view.obj
 0003:0000500c       ??_C@_0L@EKJH@centerview?$AA@ 1006800c     view.obj
 0003:00005020       ??_R0?AVtype_info@@@8      10068020     MSVCRT:ti_inst.obj
 0003:00005038       ?pBeam2@@3PAUbeam_s@@A     10068038     ev_hldm.obj
 0003:0000503c       ?pBeam@@3PAUbeam_s@@A      1006803c     ev_hldm.obj
 0003:000050c0       ?g_iSwing@@3HA             100680c0     ev_hldm.obj
 0003:000050e4       ??_C@_00A@?$AA@            100680e4     ev_hldm.obj
 0003:000050e8       ?g_engfuncs@@3Uenginefuncs_s@@A 100680e8     hl_baseentity.obj
 0003:00005328       ?g_vecZero@@3VVector@@B    10068328     hl_baseentity.obj
 0003:00005338       ?gSkillData@@3Uskilldata_t@@A 10068338     hl_baseentity.obj
 0003:00005490       ?ItemInfoArray@CBasePlayerItem@@2PAUItemInfo@@A 10068490     hl_baseentity.obj
 0003:00005a10       ?gpGlobals@@3PAUglobalvars_t@@A 10068a10     hl_baseentity.obj
 0003:00005a14       ?gmsgWeapPickup@@3HA       10068a14     hl_baseentity.obj
 0003:00005a98       ?previousorigin@@3VVector@@A 10068a98     hl_weapons.obj
 0003:0000bb2c       ?s_pInterfaceRegs@InterfaceReg@@2PAV1@A 1006eb2c     interface.obj
 0003:0000bb30       ?g_VoiceStatus@@3VCVoiceStatus@@A 1006eb30     voice_status.obj
 0003:00024ba0       ?g_BannedPlayerPrintCount@@3HA 10087ba0     voice_status.obj
 0003:00024ba8       ?g_OKButtonSignal@@3VCVoiceTweakOKButton@@A 10087ba8     voice_vgui_tweakdlg.obj
 0003:00025600       ?g_bTweakDlgOpen@@3_NA     10088600     voice_vgui_tweakdlg.obj
 0003:00025608       ?rallyinfo@@3PAUrally_teaminfo_s@@A 10088608     rally_vgui.obj
 0003:00028bd8       ?pTGAFrames@@3PAPAVBitmapTGA@vgui@@A 1008bbd8     rally_vgui.obj
 0003:00028c54       ?iNumFrames@@3HA           1008bc54     rally_vgui.obj
 0003:00028c70       ?animpaths@@3PAUanim_paths_s@@A 1008bc70     rally_vguifx.obj
 0003:0002a0c0       ?vehicles@@3PAUmodellife_s@@A 1008d0c0     rally_vguifx.obj
 0003:0002a0c4       ?ms_pSingleton@CRallyVGUIFX@@0PAV1@A 1008d0c4     rally_vguifx.obj
 0003:0002a0d0       ?custinfo@@3PAUcust_info_s@@A 1008d0d0     vgui_ClassMenu.obj
 0003:0002c438       ?vStats@@3VVector@@A       1008f438     vgui_mainmenu.obj
 0003:0002c448       ?vUpgrades@@3PAVVector@@A  1008f448     vgui_mainmenu.obj
 0003:0002c52c       ?rally_playlist@@3PADA     1008f52c     vgui_mp3.obj
 0003:0002e488       ?g_CV_BitmapFonts@@3PAUcvar_s@@A 10091488     vgui_SchemeManager.obj
 0003:0002e490       ?g_TeamInfo@@3PAUteam_info_t@@A 10091490     vgui_ScorePanel.obj
 0003:0002efc0       ?g_PlayerInfoList@@3PAUhud_player_info_t@@A 10091fc0     vgui_ScorePanel.obj
 0003:0002f4d4       ?g_IsSpectator@@3PAHA      100924d4     vgui_ScorePanel.obj
 0003:0002f5d8       ?g_PlayerExtraInfo@@3PAUextra_player_info_t@@A 100925d8     vgui_ScorePanel.obj
 0003:0002fefc       ?g_iPlayerClass@@3HA       10092efc     vgui_TeamFortressViewport.obj
 0003:00030000       ?compressed@@3PADA         10093000     vgui_TeamFortressViewport.obj
 0003:00032800       ?g_iUser1@@3HA             10095800     vgui_TeamFortressViewport.obj
 0003:00032804       ?g_iUser3@@3HA             10095804     vgui_TeamFortressViewport.obj
 0003:00032808       ?g_iUser2@@3HA             10095808     vgui_TeamFortressViewport.obj
 0003:0003280c       ?g_iTeamNumber@@3HA        1009580c     vgui_TeamFortressViewport.obj
 0003:00032810       ?length@@3HA               10095810     vgui_TeamFortressViewport.obj
 0003:0003281c       ?pSprSkidTextures@@3PAPAUmodel_s@@A 1009581c     Rally_Effects.obj
 0003:00032830       ?rpms@@3MA                 10095830     Rally_Effects.obj
 0003:00032834       ?ms_pSingleton@CRallyEffects@@0PAV1@A 10095834     Rally_Effects.obj
 0003:00032838       ?oldrpms@@3MA              10095838     Rally_Effects.obj
 0003:0003283c       ?rpm_delta@@3MA            1009583c     Rally_Effects.obj
 0003:0003284c       ?dam_b@@3HA                1009584c     rally_hud_health.obj
 0003:00032850       ?dam_g@@3HA                10095850     rally_hud_health.obj
 0003:00032854       ?dam_x@@3HA                10095854     rally_hud_health.obj
 0003:00032858       ?dam_y@@3HA                10095858     rally_hud_health.obj
 0003:0003285c       ?m_HUD_dmg_prev_mid_m@@3HA 1009585c     rally_hud_health.obj
 0003:00032860       ?m_HUD_dmg_prev_mid_l@@3HA 10095860     rally_hud_health.obj
 0003:00032864       ?m_HUD_dmg_prev_mid_r@@3HA 10095864     rally_hud_health.obj
 0003:00032868       ?back_l@@3FA               10095868     rally_hud_health.obj
 0003:0003286a       ?back_r@@3FA               1009586a     rally_hud_health.obj
 0003:0003286c       ?hud_cary@@3HA             1009586c     rally_hud_health.obj
 0003:00032870       ?hud_carx@@3HA             10095870     rally_hud_health.obj
 0003:00032874       ?m_HUD_dmg_prev_front_m@@3HA 10095874     rally_hud_health.obj
 0003:00032878       ?m_HUD_dmg_prev_front_l@@3HA 10095878     rally_hud_health.obj
 0003:0003287c       ?m_HUD_dmg_prev_front_r@@3HA 1009587c     rally_hud_health.obj
 0003:00032880       ?m_HUD_dmg_prev_back_l@@3HA 10095880     rally_hud_health.obj
 0003:00032884       ?m_HUD_dmg_prev_back_m@@3HA 10095884     rally_hud_health.obj
 0003:00032888       ?m_HUD_dmg_prev_back_r@@3HA 10095888     rally_hud_health.obj
 0003:0003288c       ?front_r@@3FA              1009588c     rally_hud_health.obj
 0003:00032890       ?extern_dmg@@3HA           10095890     rally_hud_health.obj
 0003:00032894       ?front_l@@3FA              10095894     rally_hud_health.obj
 0003:00032898       ?m_iHealth@@3HA            10095898     rally_hud_health.obj
 0003:0003289c       ?extern_dmg_pos@@3HA       1009589c     rally_hud_health.obj
 0003:000328a0       ?mid_l@@3FA                100958a0     rally_hud_health.obj
 0003:000328a2       ?mid_r@@3FA                100958a2     rally_hud_health.obj
 0003:000328a4       ?g_fPosx@@3PAMA            100958a4     rally_hud_radar.obj
 0003:00032ca4       ?g_fPosy@@3PAMA            10095ca4     rally_hud_radar.obj
 0003:000330a4       ?g_iNumTargets@@3HA        100960a4     rally_hud_radar.obj
 0003:000330a8       ?rally_sounds@@3PAUrally_sound_s@@A 100960a8     rally_sound.obj
 0003:00033b28       ?mp3@@3Urally_channel_s@@A 10096b28     rally_sound.obj
 0003:00033b80       ?remote_channels@@3PAUrally_channel_s@@A 10096b80     rally_sound.obj
 0003:00035180       ?local_channel@@3Urally_channel_s@@A 10098180     rally_sound.obj
 0003:000351d8       ?m_cFMod@@3PAVCFModFuncs@@A 100981d8     rally_sound.obj
 0003:000351dc       ?tmp2@@3PADA               100981dc     rally_sound.obj
 0003:000359dc       ?iSndIndex@@3HA            100989dc     rally_sound.obj
 0003:000359e0       ?ZLibFuncs@@3VCZLibFuncs@@A 100989e0     rally_zlib.obj
 0003:000359f0       ?fLastLap@@3MA             100989f0     rallyhud.obj
 0003:000359f4       ?m_HUD_kmph@@3HA           100989f4     rallyhud.obj
 0003:000359f8       ?m_HUD_colon@@3HA          100989f8     rallyhud.obj
 0003:000359fc       ?gameovery@@3HA            100989fc     rallyhud.obj
 0003:00035a00       ?gameoverx@@3HA            10098a00     rallyhud.obj
 0003:00035a04       ?b@@3HA                    10098a04     rallyhud.obj
 0003:00035a08       ?g@@3HA                    10098a08     rallyhud.obj
 0003:00035a0c       ?r@@3HA                    10098a0c     rallyhud.obj
 0003:00035a10       ?bFirstFinished@@3_NA      10098a10     rallyhud.obj
 0003:00035a14       ?fRaceStart@@3MA           10098a14     rallyhud.obj
 0003:00035a18       ?m_HUD_snumbers@@3HA       10098a18     rallyhud.obj
 0003:00035a1c       ?iPlayerLap@@3PAHA         10098a1c     rallyhud.obj
 0003:00035b1c       ?m_HUD_hiphen@@3HA         10098b1c     rallyhud.obj
 0003:00035b20       ?vCheckPoints@@3PAVVector@@A 10098b20     rallyhud.obj
 0003:00035d00       ?secondx@@3HA              10098d00     rallyhud.obj
 0003:00035d04       ?money@@3IA                10098d04     rallyhud.obj
 0003:00035d08       ?fTimeLeft@@3MA            10098d08     rallyhud.obj
 0003:00035d0c       ?HealthWidth@@3HA          10098d0c     rallyhud.obj
 0003:00035d10       ?fLapStart@@3MA            10098d10     rallyhud.obj
 0003:00035d14       ?iPlayerCP@@3PAHA          10098d14     rallyhud.obj
 0003:00035e14       ?flNextDisplay@@3MA        10098e14     rallyhud.obj
 0003:00035e18       ?ab_finish@@3HA            10098e18     rallyhud.obj
 0003:00035e1c       ?TimeExtension@@3HA        10098e1c     rallyhud.obj
 0003:00035e20       ?ab_race@@3_NA             10098e20     rallyhud.obj
 0003:00035e21       ?hp_race@@3_NA             10098e21     rallyhud.obj
 0003:00035e24       ?cam_prevmode@@3MA         10098e24     rallyhud.obj
 0003:00035e28       ?gWR@@3VWeaponsResource@@A 10098e28     ammo.obj
 0003:0003883c       ?giABHeight@@3HA           1009b83c     ammo.obj
 0003:00038860       ?ghsprBuckets@@3HA         1009b860     ammo.obj
 0003:00038864       ?gpLastSel@@3PAUWEAPON@@A  1009b864     ammo.obj
 0003:00038868       ?giBucketWidth@@3HA        1009b868     ammo.obj
 0003:0003886c       ?giABWidth@@3HA            1009b86c     ammo.obj
 0003:00038870       ?gpActiveSel@@3PAUWEAPON@@A 1009b870     ammo.obj
 0003:00038874       ?giBucketHeight@@3HA       1009b874     ammo.obj
 0003:00038878       ?g_weaponselect@@3HA       1009b878     ammo.obj
 0003:00038880       ?gHR@@3VHistoryResource@@A 1009b880     ammohistory.obj
 0003:00038948       ?fPlayerAngles@@3MA        1009b948     cdll_int.obj
 0003:0003894c       ?g_time@@3MA               1009b94c     cdll_int.obj
 0003:00038950       ?gHUD@@3VCHud@@A           1009b950     cdll_int.obj
 0003:0003a0c8       _CL_CrashAmount            1009d0c8     cdll_int.obj
 0003:0003a0d0       ?gEngfuncs@@3Ucl_enginefuncs_s@@A 1009d0d0     cdll_int.obj
 0003:0003a258       ?clientConst@@3UConst_Client_s@@A 1009d258     cdll_int.obj
 0003:0003a310       ?gViewPort@@3PAVTeamFortressViewport@@A 1009d310     cdll_int.obj
 0003:0003a314       ?g_hTrackerModule@@3PAUHInterfaceModule_t@@A 1009d314     cdll_int.obj
 0003:0003a318       ?g_pTrackerUser@@3PAVITrackerUser@@A 1009d318     cdll_int.obj
 0003:0003a31c       ?RallySound@@3PAVCRallySound@@A 1009d31c     cdll_int.obj
 0003:0003a320       ?old_g_global_test@@3MA    1009d320     cdll_int.obj
 0003:0003a32c       ?g_runfuncs@@3HA           1009d32c     com_weapons.obj
 0003:0003a330       ?g_finalstate@@3PAUlocal_state_s@@A 1009d330     com_weapons.obj
 0003:0003a338       ?rgDeathNoticeList@@3PAUDeathNoticeItem@@A 1009d338     death.obj
 0003:0003a644       ?g_demozoom@@3MA           1009d644     demo.obj
 0003:0003a648       ?g_demosniperorg@@3PAMA    1009d648     demo.obj
 0003:0003a654       ?g_demosniperangles@@3PAMA 1009d654     demo.obj
 0003:0003a660       ?g_demosniper@@3HA         1009d660     demo.obj
 0003:0003a664       ?g_demosniperdamage@@3HA   1009d664     demo.obj
 0003:0003a670       ?g_StudioRenderer@@3VCGameStudioModelRenderer@@A 1009d670     GameStudioModelRenderer.obj
 0003:0003e728       ?giDmgHeight@@3HA          100a1728     health.obj
 0003:0003e72c       ?giDmgWidth@@3HA           100a172c     health.obj
 0003:0003e734       ?cl_lw@@3PAUcvar_s@@A      100a1734     hud.obj
 0003:0003e738       ?g_lastFOV@@3MA            100a1738     hud.obj
 0003:0003e858       ?in_fov@@3MA               100a1858     hud_update.obj
 0003:0003e860       ?vgui_origin@@3VVector@@A  100a1860     in_camera.obj
 0003:0003e86c       ?c_minyaw@@3PAUcvar_s@@A   100a186c     in_camera.obj
 0003:0003e870       ?cam_contain@@3PAUcvar_s@@A 100a1870     in_camera.obj
 0003:0003e874       ?cam_snapto@@3PAUcvar_s@@A 100a1874     in_camera.obj
 0003:0003e878       ?cam_mousemove@@3HA        100a1878     in_camera.obj
 0003:0003e87c       ?cam_old_mouse_y@@3HA      100a187c     in_camera.obj
 0003:0003e880       ?cam_old_mouse_x@@3HA      100a1880     in_camera.obj
 0003:0003e884       ?cam_anglesz@@3MA          100a1884     in_camera.obj
 0003:0003e888       ?cam_anglesy@@3MA          100a1888     in_camera.obj
 0003:0003e88c       ?cam_anglesx@@3MA          100a188c     in_camera.obj
 0003:0003e890       ?cam_origin@@3VVector@@A   100a1890     in_camera.obj
 0003:0003e8ac       ?cam_wishyaw@@3PAUcvar_s@@A 100a18ac     in_camera.obj
 0003:0003e8b0       ?cam_idealyaw@@3PAUcvar_s@@A 100a18b0     in_camera.obj
 0003:0003e8b4       ?c_maxdistance@@3PAUcvar_s@@A 100a18b4     in_camera.obj
 0003:0003e908       ?cam_wishpitch@@3PAUcvar_s@@A 100a1908     in_camera.obj
 0003:0003e90c       ?c_minpitch@@3PAUcvar_s@@A 100a190c     in_camera.obj
 0003:0003e960       ?cam_idealdist@@3PAUcvar_s@@A 100a1960     in_camera.obj
 0003:0003e968       ?cam_mouse@@3UtagPOINT@@A  100a1968     in_camera.obj
 0003:0003e970       ?c_maxyaw@@3PAUcvar_s@@A   100a1970     in_camera.obj
 0003:0003e9c8       ?cam_ofs@@3VVector@@A      100a19c8     in_camera.obj
 0003:0003e9d4       ?c_maxpitch@@3PAUcvar_s@@A 100a19d4     in_camera.obj
 0003:0003e9d8       ?vgui_angles@@3VVector@@A  100a19d8     in_camera.obj
 0003:0003ea14       ?cam_distancemove@@3HA     100a1a14     in_camera.obj
 0003:0003ea18       ?cam_angles@@3VVector@@A   100a1a18     in_camera.obj
 0003:0003ea34       ?cam_viewmode@@3PAUcvar_s@@A 100a1a34     in_camera.obj
 0003:0003ea38       ?cam_idealpitch@@3PAUcvar_s@@A 100a1a38     in_camera.obj
 0003:0003ea3c       ?iNumCams@@3HA             100a1a3c     in_camera.obj
 0003:0003ea40       ?cam_command@@3PAUcvar_s@@A 100a1a40     in_camera.obj
 0003:0003ea64       ?cam_originy@@3MA          100a1a64     in_camera.obj
 0003:0003ea68       ?cam_originz@@3MA          100a1a68     in_camera.obj
 0003:0003ea6c       ?cam_originx@@3MA          100a1a6c     in_camera.obj
 0003:0003ea70       ?cam_origins@@3PAVVector@@A 100a1a70     in_camera.obj
 0003:0003f178       ?cam_wishdist@@3PAUcvar_s@@A 100a2178     in_camera.obj
 0003:0003f17c       ?c_mindistance@@3PAUcvar_s@@A 100a217c     in_camera.obj
 0003:0003f180       ?cam_thirdperson@@3HA      100a2180     in_camera.obj
 0003:0003f184       ?iMouseInUse@@3HA          100a2184     in_camera.obj
 0003:0003f188       ?old_iuser1@@3HA           100a2188     in_camera.obj
 0003:0003f190       ?in_attack2@@3Ukbutton_s@@A 100a2190     input.obj
 0003:0003f19c       ?cl_steer_threshold@@3PAUcvar_s@@A 100a219c     input.obj
 0003:0003f1a0       ?cl_steer_delta_mul@@3PAUcvar_s@@A 100a21a0     input.obj
 0003:0003f1a8       ?in_lookdown@@3Ukbutton_s@@A 100a21a8     input.obj
 0003:0003f1b8       ?in_graph@@3Ukbutton_s@@A  100a21b8     input.obj
 0003:0003f1c4       ?m_pitch@@3PAUcvar_s@@A    100a21c4     input.obj
 0003:0003f1c8       ?in_speed@@3Ukbutton_s@@A  100a21c8     input.obj
 0003:0003f1d4       ?cl_steer_delta_dec@@3PAUcvar_s@@A 100a21d4     input.obj
 0003:0003f1d8       ?cl_movespeedkey@@3PAUcvar_s@@A 100a21d8     input.obj
 0003:0003f1e0       ?in_attack@@3Ukbutton_s@@A 100a21e0     input.obj
 0003:0003f1f0       ?in_up@@3Ukbutton_s@@A     100a21f0     input.obj
 0003:0003f200       ?in_use@@3Ukbutton_s@@A    100a2200     input.obj
 0003:0003f20c       ?cl_pitchdown@@3PAUcvar_s@@A 100a220c     input.obj
 0003:0003f210       ?cl_forwardspeed@@3PAUcvar_s@@A 100a2210     input.obj
 0003:0003f218       ?in_down@@3Ukbutton_s@@A   100a2218     input.obj
 0003:0003f224       ?cl_vsmoothing@@3PAUcvar_s@@A 100a2224     input.obj
 0003:0003f228       ?lookspring@@3PAUcvar_s@@A 100a2228     input.obj
 0003:0003f230       ?in_duck@@3Ukbutton_s@@A   100a2230     input.obj
 0003:0003f23c       ?cl_yawspeed@@3PAUcvar_s@@A 100a223c     input.obj
 0003:0003f240       ?lookstrafe@@3PAUcvar_s@@A 100a2240     input.obj
 0003:0003f248       ?in_mlook@@3Ukbutton_s@@A  100a2248     input.obj
 0003:0003f254       ?cl_pitchup@@3PAUcvar_s@@A 100a2254     input.obj
 0003:0003f258       ?in_reload@@3Ukbutton_s@@A 100a2258     input.obj
 0003:0003f268       ?in_forward@@3Ukbutton_s@@A 100a2268     input.obj
 0003:0003f274       ?m_side@@3PAUcvar_s@@A     100a2274     input.obj
 0003:0003f278       ?in_left@@3Ukbutton_s@@A   100a2278     input.obj
 0003:0003f288       ?in_right@@3Ukbutton_s@@A  100a2288     input.obj
 0003:0003f298       ?in_score@@3Ukbutton_s@@A  100a2298     input.obj
 0003:0003f2a4       ?cl_steer_center_speed@@3PAUcvar_s@@A 100a22a4     input.obj
 0003:0003f2a8       ?m_yaw@@3PAUcvar_s@@A      100a22a8     input.obj
 0003:0003f2ac       ?rally_rearview@@3PAUcvar_s@@A 100a22ac     input.obj
 0003:0003f2c0       ?in_moveleft@@3Ukbutton_s@@A 100a22c0     input.obj
 0003:0003f2d0       ?in_lookup@@3Ukbutton_s@@A 100a22d0     input.obj
 0003:0003f2dc       ?m_forward@@3PAUcvar_s@@A  100a22dc     input.obj
 0003:0003f2e0       ?fixangle@@3_NA            100a22e0     input.obj
 0003:0003f2e8       ?in_jump@@3Ukbutton_s@@A   100a22e8     input.obj
 0003:0003f2f8       ?in_jlook@@3Ukbutton_s@@A  100a22f8     input.obj
 0003:0003f308       ?in_strafe@@3Ukbutton_s@@A 100a2308     input.obj
 0003:0003f318       ?in_moveright@@3Ukbutton_s@@A 100a2318     input.obj
 0003:0003f324       ?cl_sidespeed@@3PAUcvar_s@@A 100a2324     input.obj
 0003:0003f328       ?RallyYaw@@3MA             100a2328     input.obj
 0003:0003f330       ?in_break@@3Ukbutton_s@@A  100a2330     input.obj
 0003:0003f340       ?in_back@@3Ukbutton_s@@A   100a2340     input.obj
 0003:0003f34c       ?gear@@3HA                 100a234c     input.obj
 0003:0003f350       ?cl_backspeed@@3PAUcvar_s@@A 100a2350     input.obj
 0003:0003f358       ?in_alt1@@3Ukbutton_s@@A   100a2358     input.obj
 0003:0003f364       ?cl_upspeed@@3PAUcvar_s@@A 100a2364     input.obj
 0003:0003f368       ?cl_pitchspeed@@3PAUcvar_s@@A 100a2368     input.obj
 0003:0003f36c       ?cl_anglespeedkey@@3PAUcvar_s@@A 100a236c     input.obj
 0003:0003f370       ?in_klook@@3Ukbutton_s@@A  100a2370     input.obj
 0003:0003f37c       ?in_impulse@@3HA           100a237c     input.obj
 0003:0003f380       ?in_cancel@@3HA            100a2380     input.obj
 0003:0003f384       ?g_accelerating@@3MA       100a2384     input.obj
 0003:0003f388       ?g_braking@@3MA            100a2388     input.obj
 0003:0003f38c       ?g_reversing@@3MA          100a238c     input.obj
 0003:0003f390       ?g_handbraking@@3MA        100a2390     input.obj
 0003:0003f394       ?g_tractionloss@@3MA       100a2394     input.obj
 0003:0003f398       ?g_backfire@@3HA           100a2398     input.obj
 0003:0003f39c       ?JoyMoved@@3MA             100a239c     input.obj
 0003:0003f3a0       ?g_kbkeys@@3PAUkblist_s@@A 100a23a0     input.obj
 0003:0003f3a4       ?steer_delta@@3MA          100a23a4     input.obj
 0003:0003f3ac       ?steer_delta_accel@@3MA    100a23ac     input.obj
 0003:0003f3b0       ?steer_wheel_angle@@3MA    100a23b0     input.obj
 0003:0003f3b8       ?mouseinitialized@@3HA     100a23b8     inputw32.obj
 0003:0003f3bc       ?dwControlMap@@3PAKA       100a23bc     inputw32.obj
 0003:0003f3d4       ?dwAxisMap@@3PAKA          100a23d4     inputw32.obj
 0003:0003f3ec       ?pdwRawValue@@3PAPAKA      100a23ec     inputw32.obj
 0003:0003f404       ?joy_numbuttons@@3KA       100a2404     inputw32.obj
 0003:0003f408       ?in_joystick@@3PAUcvar_s@@A 100a2408     inputw32.obj
 0003:0003f40c       ?mouse_y@@3HA              100a240c     inputw32.obj
 0003:0003f410       ?joy_avail@@3HA            100a2410     inputw32.obj
 0003:0003f414       ?mouse_x@@3HA              100a2414     inputw32.obj
 0003:0003f418       ?joy_name@@3PAUcvar_s@@A   100a2418     inputw32.obj
 0003:0003f41c       ?joy_oldpovstate@@3KA      100a241c     inputw32.obj
 0003:0003f420       ?my_accum@@3HA             100a2420     inputw32.obj
 0003:0003f428       ?joy_advaxisr@@3PAUcvar_s@@A 100a2428     inputw32.obj
 0003:0003f42c       ?joy_advaxisv@@3PAUcvar_s@@A 100a242c     inputw32.obj
 0003:0003f430       ?m_filter@@3PAUcvar_s@@A   100a2430     inputw32.obj
 0003:0003f434       ?joy_advaxisu@@3PAUcvar_s@@A 100a2434     inputw32.obj
 0003:0003f438       ?joy_advaxisz@@3PAUcvar_s@@A 100a2438     inputw32.obj
 0003:0003f43c       ?joy_advaxisy@@3PAUcvar_s@@A 100a243c     inputw32.obj
 0003:0003f440       ?joy_advaxisx@@3PAUcvar_s@@A 100a2440     inputw32.obj
 0003:0003f444       ?joy_wwhack2@@3PAUcvar_s@@A 100a2444     inputw32.obj
 0003:0003f448       ?joy_wwhack1@@3PAUcvar_s@@A 100a2448     inputw32.obj
 0003:0003f458       ?old_mouse_y@@3HA          100a2458     inputw32.obj
 0003:0003f45c       ?old_mouse_x@@3HA          100a245c     inputw32.obj
 0003:0003f460       ?joy_oldbuttonstate@@3KA   100a2460     inputw32.obj
 0003:0003f464       ?joy_sidesensitivity@@3PAUcvar_s@@A 100a2464     inputw32.obj
 0003:0003f468       ?joy_yawsensitivity@@3PAUcvar_s@@A 100a2468     inputw32.obj
 0003:0003f46c       ?joy_forwardthreshold@@3PAUcvar_s@@A 100a246c     inputw32.obj
 0003:0003f470       ?joy_advanced@@3PAUcvar_s@@A 100a2470     inputw32.obj
 0003:0003f474       ?joy_forwardsensitivity@@3PAUcvar_s@@A 100a2474     inputw32.obj
 0003:0003f478       ?joy_yawthreshold@@3PAUcvar_s@@A 100a2478     inputw32.obj
 0003:0003f480       ?current_pos@@3UtagPOINT@@A 100a2480     inputw32.obj
 0003:0003f488       ?joy_advancedinit@@3HA     100a2488     inputw32.obj
 0003:0003f48c       ?joy_sidethreshold@@3PAUcvar_s@@A 100a248c     inputw32.obj
 0003:0003f4c4       ?joy_pitchthreshold@@3PAUcvar_s@@A 100a24c4     inputw32.obj
 0003:0003f4c8       ?joy_id@@3HA               100a24c8     inputw32.obj
 0003:0003f4d0       ?mouse_oldbuttonstate@@3HA 100a24d0     inputw32.obj
 0003:0003f4d4       ?mouse_buttons@@3HA        100a24d4     inputw32.obj
 0003:0003f4d8       ?joy_flags@@3KA            100a24d8     inputw32.obj
 0003:0003f4e0       ?joy_pitchsensitivity@@3PAUcvar_s@@A 100a24e0     inputw32.obj
 0003:0003f4e4       ?sensitivity@@3PAUcvar_s@@A 100a24e4     inputw32.obj
 0003:0003f4e8       ?mx_accum@@3HA             100a24e8     inputw32.obj
 0003:0003f4ec       ?joy_haspov@@3HA           100a24ec     inputw32.obj
 0003:0003f4f0       ?g_iVisibleMouse@@3HA      100a24f0     inputw32.obj
 0003:0003f4f4       ?g_szPrelocalisedMenuString@@3PADA 100a24f4     menu.obj
 0003:0003f6f4       ?g_szMenuString@@3PADA     100a26f4     menu.obj
 0003:0003f8f8       ?g_pCustomMessage@@3Uclient_textmessage_t@@A 100a28f8     message.obj
 0003:0003f924       ?g_pCustomText@@3PADA      100a2924     message.obj
 0003:00040534       _vec3_origin               100a3534     pm_math.obj
 0003:000425cc       _pmove                     100a55cc     pm_shared.obj
 0003:000425d4       _g_onladder                100a55d4     pm_shared.obj
 0003:000425d8       _g_global_test             100a55d8     pm_shared.obj
 0003:00042c90       ?g_TraceDist@@3MA          100a5c90     StudioModelRenderer.obj
 0003:00043a98       ?frontLeft@@3MA            100a6a98     StudioModelRenderer.obj
 0003:0004489c       ?backLeft@@3MA             100a789c     StudioModelRenderer.obj
 0003:00044ea0       ?iWasInPVS@@3PAY0EA@_NA    100a7ea0     StudioModelRenderer.obj
 0003:00044f20       ?view_roll@@3MA            100a7f20     StudioModelRenderer.obj
 0003:00044f28       ?currentspeed@@3MA         100a7f28     StudioModelRenderer.obj
 0003:00044f2c       ?frontRight@@3MA           100a7f2c     StudioModelRenderer.obj
 0003:00045730       ?view_pitch@@3MA           100a8730     StudioModelRenderer.obj
 0003:00046534       ?backRight@@3MA            100a9534     StudioModelRenderer.obj
 0003:00047b40       ?IEngineStudio@@3Uengine_studio_api_s@@A 100aab40     StudioModelRenderer.obj
 0003:00048208       ?iPVSIndex@@3HA            100ab208     StudioModelRenderer.obj
 0003:00048a10       ?vec3_origin@@3VVector@@A  100aba10     util.obj
 0003:00048a20       ?v_origin@@3VVector@@A     100aba20     view.obj
 0003:00048a38       ?realvieworg@@3VVector@@A  100aba38     view.obj
 0003:00048a5c       _vecNewViewAngles          100aba5c     view.obj
 0003:00049280       _vecNewViewOrigin          100ac280     view.obj
 0003:0004928c       ?v_centermove@@3PAUcvar_s@@A 100ac28c     view.obj
 0003:00049294       ?v_idlescale@@3MA          100ac294     view.obj
 0003:000492b0       ?ev_punchangle@@3VVector@@A 100ac2b0     view.obj
 0003:000492bc       ?cl_bobcycle@@3PAUcvar_s@@A 100ac2bc     view.obj
 0003:000492c0       _iHasNewViewAngles         100ac2c0     view.obj
 0003:000492e0       ?v_angles@@3VVector@@A     100ac2e0     view.obj
 0003:000492f0       ?cl_waterdist@@3PAUcvar_s@@A 100ac2f0     view.obj
 0003:000492f4       _iIsSpectator              100ac2f4     view.obj
 0003:000492f8       _iHasNewViewOrigin         100ac2f8     view.obj
 0003:000492fc       ?v_centerspeed@@3PAUcvar_s@@A 100ac2fc     view.obj
 0003:00049b08       ?vLocalAngles@@3VVector@@A 100acb08     view.obj
 0003:00049b14       ?cl_bob@@3PAUcvar_s@@A     100acb14     view.obj
 0003:00049b18       ?scr_ofsx@@3PAUcvar_s@@A   100acb18     view.obj
 0003:00049b1c       ?scr_ofsz@@3PAUcvar_s@@A   100acb1c     view.obj
 0003:00049b20       ?scr_ofsy@@3PAUcvar_s@@A   100acb20     view.obj
 0003:00049b24       ?cl_bobup@@3PAUcvar_s@@A   100acb24     view.obj
 0003:00049b30       _iJumpSpectator            100acb30     <common>
 0003:00049b40       _carstats                  100acb40     <common>
 0003:00049cc0       _DebugDraw                 100accc0     <common>
 0003:00049cc4       _uiDirectorFlags           100accc4     <common>
 0003:00049cd0       _g_rv                      100accd0     <common>
 0003:00049ce0       _vJumpAngles               100acce0     <common>
 0003:00049cf0       _vJumpOrigin               100accf0     <common>
 0003:00049d00       _pAngles                   100acd00     <common>
 0003:00049d0c       __adjust_fdiv              100acd0c     <common>
 0003:00049d10       __pRawDllMain              100acd10     <common>
 0003:00049d14       ___onexitend               100acd14     <common>
 0003:00049d18       ___onexitbegin             100acd18     <common>
 0004:00000000       __IMPORT_DESCRIPTOR_KERNEL32 100ad000     kernel32:KERNEL32.dll
 0004:00000014       __IMPORT_DESCRIPTOR_USER32 100ad014     user32:USER32.dll
 0004:00000028       __IMPORT_DESCRIPTOR_WINMM  100ad028     winmm:WINMM.dll
 0004:0000003c       __IMPORT_DESCRIPTOR_vgui   100ad03c     vgui:vgui.dll
 0004:00000050       __IMPORT_DESCRIPTOR_WSOCK32 100ad050     wsock32:WSOCK32.dll
 0004:00000064       __IMPORT_DESCRIPTOR_AVIFIL32 100ad064     vfw32:AVIFIL32.dll
 0004:00000078       __IMPORT_DESCRIPTOR_MSVCRT 100ad078     MSVCRT:MSVCRT.dll
 0004:0000008c       __NULL_IMPORT_DESCRIPTOR   100ad08c     kernel32:KERNEL32.dll
 0004:00000af0       __imp__AVIFileOpenA@16     100adaf0     vfw32:AVIFIL32.dll
 0004:00000af4       __imp__AVIStreamGetFrameClose@4 100adaf4     vfw32:AVIFIL32.dll
 0004:00000af8       __imp__AVIStreamGetFrame@8 100adaf8     vfw32:AVIFIL32.dll
 0004:00000afc       __imp__AVIStreamSampleToTime@8 100adafc     vfw32:AVIFIL32.dll
 0004:00000b00       __imp__AVIStreamTimeToSample@8 100adb00     vfw32:AVIFIL32.dll
 0004:00000b04       __imp__AVIFileRelease@4    100adb04     vfw32:AVIFIL32.dll
 0004:00000b08       __imp__AVIStreamLength@4   100adb08     vfw32:AVIFIL32.dll
 0004:00000b0c       __imp__AVIFileGetStream@16 100adb0c     vfw32:AVIFIL32.dll
 0004:00000b10       __imp__AVIStreamGetFrameOpen@8 100adb10     vfw32:AVIFIL32.dll
 0004:00000b14       __imp__AVIStreamRelease@4  100adb14     vfw32:AVIFIL32.dll
 0004:00000b18       \177AVIFIL32_NULL_THUNK_DATA 100adb18     vfw32:AVIFIL32.dll
 0004:00000b1c       __imp__DisableThreadLibraryCalls@4 100adb1c     kernel32:KERNEL32.dll
 0004:00000b20       __imp__GetProcAddress@8    100adb20     kernel32:KERNEL32.dll
 0004:00000b24       __imp__FreeLibrary@4       100adb24     kernel32:KERNEL32.dll
 0004:00000b28       __imp__LoadLibraryA@4      100adb28     kernel32:KERNEL32.dll
 0004:00000b2c       \177KERNEL32_NULL_THUNK_DATA 100adb2c     kernel32:KERNEL32.dll
 0004:00000b30       __imp__strcmpi             100adb30     MSVCRT:MSVCRT.dll
 0004:00000b30       __imp___strcmpi            100adb30     MSVCRT:MSVCRT.dll
 0004:00000b34       __imp__strupr              100adb34     MSVCRT:MSVCRT.dll
 0004:00000b34       __imp___strupr             100adb34     MSVCRT:MSVCRT.dll
 0004:00000b38       __imp___getdcwd            100adb38     MSVCRT:MSVCRT.dll
 0004:00000b3c       __imp___adjust_fdiv        100adb3c     MSVCRT:MSVCRT.dll
 0004:00000b40       __imp___initterm           100adb40     MSVCRT:MSVCRT.dll
 0004:00000b44       __imp_??1type_info@@UAE@XZ 100adb44     MSVCRT:MSVCRT.dll
 0004:00000b48       __imp_?terminate@@YAXXZ    100adb48     MSVCRT:MSVCRT.dll
 0004:00000b4c       __imp___except_handler3    100adb4c     MSVCRT:MSVCRT.dll
 0004:00000b50       __imp___onexit             100adb50     MSVCRT:MSVCRT.dll
 0004:00000b54       __imp____dllonexit         100adb54     MSVCRT:MSVCRT.dll
 0004:00000b58       __imp___isctype            100adb58     MSVCRT:MSVCRT.dll
 0004:00000b5c       __imp____mb_cur_max        100adb5c     MSVCRT:MSVCRT.dll
 0004:00000b60       __imp___pctype             100adb60     MSVCRT:MSVCRT.dll
 0004:00000b64       __imp__toupper             100adb64     MSVCRT:MSVCRT.dll
 0004:00000b68       __imp__acos                100adb68     MSVCRT:MSVCRT.dll
 0004:00000b6c       __imp__pow                 100adb6c     MSVCRT:MSVCRT.dll
 0004:00000b70       __imp__isalnum             100adb70     MSVCRT:MSVCRT.dll
 0004:00000b74       __imp__qsort               100adb74     MSVCRT:MSVCRT.dll
 0004:00000b78       __imp__rand                100adb78     MSVCRT:MSVCRT.dll
 0004:00000b7c       __imp__time                100adb7c     MSVCRT:MSVCRT.dll
 0004:00000b80       __imp__srand               100adb80     MSVCRT:MSVCRT.dll
 0004:00000b84       __imp__tolower             100adb84     MSVCRT:MSVCRT.dll
 0004:00000b88       __imp__printf              100adb88     MSVCRT:MSVCRT.dll
 0004:00000b8c       __imp__abs                 100adb8c     MSVCRT:MSVCRT.dll
 0004:00000b90       __imp__fprintf             100adb90     MSVCRT:MSVCRT.dll
 0004:00000b94       __imp__fscanf              100adb94     MSVCRT:MSVCRT.dll
 0004:00000b98       __imp__calloc              100adb98     MSVCRT:MSVCRT.dll
 0004:00000b9c       __imp___filelength         100adb9c     MSVCRT:MSVCRT.dll
 0004:00000ba0       __imp__fabs                100adba0     MSVCRT:MSVCRT.dll
 0004:00000ba4       __imp__strstr              100adba4     MSVCRT:MSVCRT.dll
 0004:00000ba8       __imp__sqrt                100adba8     MSVCRT:MSVCRT.dll
 0004:00000bac       __imp__atan2               100adbac     MSVCRT:MSVCRT.dll
 0004:00000bb0       __imp__strncat             100adbb0     MSVCRT:MSVCRT.dll
 0004:00000bb4       __imp__strchr              100adbb4     MSVCRT:MSVCRT.dll
 0004:00000bb8       __imp__memmove             100adbb8     MSVCRT:MSVCRT.dll
 0004:00000bbc       __imp__isspace             100adbbc     MSVCRT:MSVCRT.dll
 0004:00000bc0       __imp___getdrive           100adbc0     MSVCRT:MSVCRT.dll
 0004:00000bc4       __imp__strnicmp            100adbc4     MSVCRT:MSVCRT.dll
 0004:00000bc4       __imp___strnicmp           100adbc4     MSVCRT:MSVCRT.dll
 0004:00000bc8       __imp__sscanf              100adbc8     MSVCRT:MSVCRT.dll
 0004:00000bcc       __imp__strncpy             100adbcc     MSVCRT:MSVCRT.dll
 0004:00000bd0       __imp__atoi                100adbd0     MSVCRT:MSVCRT.dll
 0004:00000bd4       __imp___vsnprintf          100adbd4     MSVCRT:MSVCRT.dll
 0004:00000bd8       __imp__strlen              100adbd8     MSVCRT:MSVCRT.dll
 0004:00000bdc       __imp__strncmp             100adbdc     MSVCRT:MSVCRT.dll
 0004:00000be0       __imp__cos                 100adbe0     MSVCRT:MSVCRT.dll
 0004:00000be4       __imp__sin                 100adbe4     MSVCRT:MSVCRT.dll
 0004:00000be8       __imp__free                100adbe8     MSVCRT:MSVCRT.dll
 0004:00000bec       __imp__malloc              100adbec     MSVCRT:MSVCRT.dll
 0004:00000bf0       __imp__getc                100adbf0     MSVCRT:MSVCRT.dll
 0004:00000bf4       __imp__fgetc               100adbf4     MSVCRT:MSVCRT.dll
 0004:00000bf8       __imp__fmod                100adbf8     MSVCRT:MSVCRT.dll
 0004:00000bfc       __imp__strcat              100adbfc     MSVCRT:MSVCRT.dll
 0004:00000c00       __imp__atof                100adc00     MSVCRT:MSVCRT.dll
 0004:00000c04       __imp____CxxFrameHandler   100adc04     MSVCRT:MSVCRT.dll
 0004:00000c08       __imp__memcpy              100adc08     MSVCRT:MSVCRT.dll
 0004:00000c0c       __imp__memcmp              100adc0c     MSVCRT:MSVCRT.dll
 0004:00000c10       __imp__fwrite              100adc10     MSVCRT:MSVCRT.dll
 0004:00000c14       __imp___snprintf           100adc14     MSVCRT:MSVCRT.dll
 0004:00000c18       __imp__fopen               100adc18     MSVCRT:MSVCRT.dll
 0004:00000c1c       __imp__fread               100adc1c     MSVCRT:MSVCRT.dll
 0004:00000c20       __imp__fseek               100adc20     MSVCRT:MSVCRT.dll
 0004:00000c24       __imp__ftell               100adc24     MSVCRT:MSVCRT.dll
 0004:00000c28       __imp__fclose              100adc28     MSVCRT:MSVCRT.dll
 0004:00000c2c       __imp__strcmp              100adc2c     MSVCRT:MSVCRT.dll
 0004:00000c30       __imp__vsprintf            100adc30     MSVCRT:MSVCRT.dll
 0004:00000c34       __imp_??2@YAPAXI@Z         100adc34     MSVCRT:MSVCRT.dll
 0004:00000c38       __imp__exit                100adc38     MSVCRT:MSVCRT.dll
 0004:00000c3c       __imp__memset              100adc3c     MSVCRT:MSVCRT.dll
 0004:00000c40       __imp_??3@YAXPAX@Z         100adc40     MSVCRT:MSVCRT.dll
 0004:00000c44       __imp___ftol               100adc44     MSVCRT:MSVCRT.dll
 0004:00000c48       __imp___purecall           100adc48     MSVCRT:MSVCRT.dll
 0004:00000c4c       __imp__sprintf             100adc4c     MSVCRT:MSVCRT.dll
 0004:00000c50       __imp__strcpy              100adc50     MSVCRT:MSVCRT.dll
 0004:00000c54       __imp__stricmp             100adc54     MSVCRT:MSVCRT.dll
 0004:00000c54       __imp___stricmp            100adc54     MSVCRT:MSVCRT.dll
 0004:00000c58       \177MSVCRT_NULL_THUNK_DATA 100adc58     MSVCRT:MSVCRT.dll
 0004:00000c5c       __imp__GetCursorPos@4      100adc5c     user32:USER32.dll
 0004:00000c60       __imp__SetCursorPos@8      100adc60     user32:USER32.dll
 0004:00000c64       __imp__SystemParametersInfoA@16 100adc64     user32:USER32.dll
 0004:00000c68       \177USER32_NULL_THUNK_DATA 100adc68     user32:USER32.dll
 0004:00000c6c       __imp__joyGetDevCapsA@12   100adc6c     winmm:WINMM.dll
 0004:00000c70       __imp__joyGetPosEx@8       100adc70     winmm:WINMM.dll
 0004:00000c74       __imp__joyGetNumDevs@0     100adc74     winmm:WINMM.dll
 0004:00000c78       \177WINMM_NULL_THUNK_DATA  100adc78     winmm:WINMM.dll
 0004:00000c7c       __imp__htons@4             100adc7c     wsock32:WSOCK32.dll
 0004:00000c80       \177WSOCK32_NULL_THUNK_DATA 100adc80     wsock32:WSOCK32.dll
 0004:00000c84       __imp_?requestFocusPrev@Panel@vgui@@UAEXXZ 100adc84     vgui:vgui.dll
 0004:00000c88       __imp_?setFocusNavGroup@Panel@vgui@@UAEXPAVFocusNavGroup@2@@Z 100adc88     vgui:vgui.dll
 0004:00000c8c       __imp_?invalidateLayout@Panel@vgui@@UAEX_N@Z 100adc8c     vgui:vgui.dll
 0004:00000c90       __imp_?setLayout@Panel@vgui@@UAEXPAVLayout@2@@Z 100adc90     vgui:vgui.dll
 0004:00000c94       __imp_?getChild@Panel@vgui@@UAEPAV12@H@Z 100adc94     vgui:vgui.dll
 0004:00000c98       __imp_?requestFocusNext@Panel@vgui@@UAEXXZ 100adc98     vgui:vgui.dll
 0004:00000c9c       __imp_?getChildCount@Panel@vgui@@UAEHXZ 100adc9c     vgui:vgui.dll
 0004:00000ca0       __imp_?hasFocus@Panel@vgui@@UAE_NXZ 100adca0     vgui:vgui.dll
 0004:00000ca4       __imp_?requestFocus@Panel@vgui@@UAEXXZ 100adca4     vgui:vgui.dll
 0004:00000ca8       __imp_?getMinimumSize@Panel@vgui@@UAEXAAH0@Z 100adca8     vgui:vgui.dll
 0004:00000cac       __imp_?setMinimumSize@Panel@vgui@@UAEXHH@Z 100adcac     vgui:vgui.dll
 0004:00000cb0       __imp_?getCursor@Panel@vgui@@UAEPAVCursor@2@XZ 100adcb0     vgui:vgui.dll
 0004:00000cb4       __imp_?setCursor@Panel@vgui@@UAEXPAVCursor@2@@Z 100adcb4     vgui:vgui.dll
 0004:00000cb8       __imp_?setCursor@Panel@vgui@@UAEXW4SchemeCursor@Scheme@2@@Z 100adcb8     vgui:vgui.dll
 0004:00000cbc       __imp_?screenToLocal@Panel@vgui@@UAEXAAH0@Z 100adcbc     vgui:vgui.dll
 0004:00000cc0       __imp_?localToScreen@Panel@vgui@@UAEXAAH0@Z 100adcc0     vgui:vgui.dll
 0004:00000cc4       __imp_?isWithinTraverse@Panel@vgui@@UAEPAV12@HH@Z 100adcc4     vgui:vgui.dll
 0004:00000cc8       __imp_?isWithin@Panel@vgui@@UAE_NHH@Z 100adcc8     vgui:vgui.dll
 0004:00000ccc       __imp_?removeRepaintSignal@Panel@vgui@@UAEXPAVRepaintSignal@2@@Z 100adccc     vgui:vgui.dll
 0004:00000cd0       __imp_?addRepaintSignal@Panel@vgui@@UAEXPAVRepaintSignal@2@@Z 100adcd0     vgui:vgui.dll
 0004:00000cd4       __imp_?removeInputSignal@Panel@vgui@@UAEXPAVInputSignal@2@@Z 100adcd4     vgui:vgui.dll
 0004:00000cd8       __imp_?addInputSignal@Panel@vgui@@UAEXPAVInputSignal@2@@Z 100adcd8     vgui:vgui.dll
 0004:00000cdc       __imp_?wasKeyReleased@Panel@vgui@@UAE_NW4KeyCode@2@@Z 100adcdc     vgui:vgui.dll
 0004:00000ce0       __imp_?wasKeyTyped@Panel@vgui@@UAE_NW4KeyCode@2@@Z 100adce0     vgui:vgui.dll
 0004:00000ce4       __imp_?isKeyDown@Panel@vgui@@UAE_NW4KeyCode@2@@Z 100adce4     vgui:vgui.dll
 0004:00000ce8       __imp_?wasKeyPressed@Panel@vgui@@UAE_NW4KeyCode@2@@Z 100adce8     vgui:vgui.dll
 0004:00000cec       __imp_?wasMouseReleased@Panel@vgui@@UAE_NW4MouseCode@2@@Z 100adcec     vgui:vgui.dll
 0004:00000cf0       __imp_?isMouseDown@Panel@vgui@@UAE_NW4MouseCode@2@@Z 100adcf0     vgui:vgui.dll
 0004:00000cf4       __imp_?wasMouseDoublePressed@Panel@vgui@@UAE_NW4MouseCode@2@@Z 100adcf4     vgui:vgui.dll
 0004:00000cf8       __imp_?wasMousePressed@Panel@vgui@@UAE_NW4MouseCode@2@@Z 100adcf8     vgui:vgui.dll
 0004:00000cfc       __imp_?removeChild@Panel@vgui@@UAEXPAV12@@Z 100adcfc     vgui:vgui.dll
 0004:00000d00       __imp_?insertChildAt@Panel@vgui@@UAEXPAV12@H@Z 100add00     vgui:vgui.dll
 0004:00000d04       __imp_?addChild@Panel@vgui@@UAEXPAV12@@Z 100add04     vgui:vgui.dll
 0004:00000d08       __imp_?setParent@Panel@vgui@@UAEXPAV12@@Z 100add08     vgui:vgui.dll
 0004:00000d0c       __imp_?getClipRect@Panel@vgui@@UAEXAAH000@Z 100add0c     vgui:vgui.dll
 0004:00000d10       __imp_?getAbsExtents@Panel@vgui@@UAEXAAH000@Z 100add10     vgui:vgui.dll
 0004:00000d14       __imp_?repaintAll@Panel@vgui@@UAEXXZ 100add14     vgui:vgui.dll
 0004:00000d18       __imp_?repaint@Panel@vgui@@UAEXXZ 100add18     vgui:vgui.dll
 0004:00000d1c       __imp_?isVisibleUp@Panel@vgui@@UAE_NXZ 100add1c     vgui:vgui.dll
 0004:00000d20       __imp_?isVisible@Panel@vgui@@UAE_NXZ 100add20     vgui:vgui.dll
 0004:00000d24       __imp_?setVisible@Panel@vgui@@UAEX_N@Z 100add24     vgui:vgui.dll
 0004:00000d28       __imp_?getParent@Panel@vgui@@UAEPAV12@XZ 100add28     vgui:vgui.dll
 0004:00000d2c       __imp_?getTall@Panel@vgui@@UAEHXZ 100add2c     vgui:vgui.dll
 0004:00000d30       __imp_?getWide@Panel@vgui@@UAEHXZ 100add30     vgui:vgui.dll
 0004:00000d34       __imp_?getBounds@Panel@vgui@@UAEXAAH000@Z 100add34     vgui:vgui.dll
 0004:00000d38       __imp_?setBounds@Panel@vgui@@UAEXHHHH@Z 100add38     vgui:vgui.dll
 0004:00000d3c       __imp_?getSize@Panel@vgui@@UAEXAAH0@Z 100add3c     vgui:vgui.dll
 0004:00000d40       __imp_?setSize@Panel@vgui@@UAEXHH@Z 100add40     vgui:vgui.dll
 0004:00000d44       __imp_?getPos@Panel@vgui@@UAEXAAH0@Z 100add44     vgui:vgui.dll
 0004:00000d48       __imp_?setPos@Panel@vgui@@UAEXHH@Z 100add48     vgui:vgui.dll
 0004:00000d4c       __imp_?recomputeMinimumSize@Label@vgui@@MAEXXZ 100add4c     vgui:vgui.dll
 0004:00000d50       __imp_?computeAlignment@Label@vgui@@MAEXAAH00000000000@Z 100add50     vgui:vgui.dll
 0004:00000d54       __imp_?setContentFitted@Label@vgui@@UAEX_N@Z 100add54     vgui:vgui.dll
 0004:00000d58       __imp_?setContentAlignment@Label@vgui@@UAEXW4Alignment@12@@Z 100add58     vgui:vgui.dll
 0004:00000d5c       __imp_?setTextAlignment@Label@vgui@@UAEXW4Alignment@12@@Z 100add5c     vgui:vgui.dll
 0004:00000d60       __imp_?getContentSize@Label@vgui@@UAEXAAH0@Z 100add60     vgui:vgui.dll
 0004:00000d64       __imp_?getTextSize@Label@vgui@@UAEXAAH0@Z 100add64     vgui:vgui.dll
 0004:00000d68       __imp_?setFont@Label@vgui@@UAEXW4SchemeFont@Scheme@2@@Z 100add68     vgui:vgui.dll
 0004:00000d6c       __imp_?setFont@Label@vgui@@UAEXPAVFont@2@@Z 100add6c     vgui:vgui.dll
 0004:00000d70       __imp_?setText@Label@vgui@@UAEXHPBD@Z 100add70     vgui:vgui.dll
 0004:00000d74       __imp_?setText@Label@vgui@@UAAXPBDZZ 100add74     vgui:vgui.dll
 0004:00000d78       __imp_?setImage@Label@vgui@@UAEXPAVImage@2@@Z 100add78     vgui:vgui.dll
 0004:00000d7c       __imp_?paint@Label@vgui@@MAEXXZ 100add7c     vgui:vgui.dll
 0004:00000d80       __imp_?setFgColor@Label@vgui@@UAEXW4SchemeColor@Scheme@2@@Z 100add80     vgui:vgui.dll
 0004:00000d84       __imp_?setFgColor@Label@vgui@@UAEXHHHH@Z 100add84     vgui:vgui.dll
 0004:00000d88       __imp_?createPropertyPanel@Label@vgui@@UAEPAVPanel@2@XZ 100add88     vgui:vgui.dll
 0004:00000d8c       __imp_?init@Label@vgui@@AAEXHPBD_N@Z 100add8c     vgui:vgui.dll
 0004:00000d90       __imp_??0Panel@vgui@@QAE@HHHH@Z 100add90     vgui:vgui.dll
 0004:00000d94       __imp_?doPaint@Image@vgui@@UAEXPAVPanel@2@@Z 100add94     vgui:vgui.dll
 0004:00000d98       __imp_?paint@Image@vgui@@MAEXPAVPanel@2@@Z 100add98     vgui:vgui.dll
 0004:00000d9c       __imp_?drawTexturedRect@Image@vgui@@MAEXHHHH@Z 100add9c     vgui:vgui.dll
 0004:00000da0       __imp_?drawSetTexture@Image@vgui@@MAEXH@Z 100adda0     vgui:vgui.dll
 0004:00000da4       __imp_?drawSetTextureRGBA@Image@vgui@@MAEXHPBDHH@Z 100adda4     vgui:vgui.dll
 0004:00000da8       __imp_?drawPrintChar@Image@vgui@@MAEXD@Z 100adda8     vgui:vgui.dll
 0004:00000dac       __imp_?drawPrintChar@Image@vgui@@MAEXHHD@Z 100addac     vgui:vgui.dll
 0004:00000db0       __imp_?drawPrintText@Image@vgui@@MAEXPBDH@Z 100addb0     vgui:vgui.dll
 0004:00000db4       __imp_?drawPrintText@Image@vgui@@MAEXHHPBDH@Z 100addb4     vgui:vgui.dll
 0004:00000db8       __imp_?drawSetTextPos@Image@vgui@@MAEXHH@Z 100addb8     vgui:vgui.dll
 0004:00000dbc       __imp_?drawSetTextColor@Image@vgui@@MAEXW4SchemeColor@Scheme@2@@Z 100addbc     vgui:vgui.dll
 0004:00000dc0       __imp_?drawSetTextColor@Image@vgui@@MAEXHHHH@Z 100addc0     vgui:vgui.dll
 0004:00000dc4       __imp_?drawSetTextFont@Image@vgui@@MAEXW4SchemeFont@Scheme@2@@Z 100addc4     vgui:vgui.dll
 0004:00000dc8       __imp_?drawSetTextFont@Image@vgui@@MAEXPAVFont@2@@Z 100addc8     vgui:vgui.dll
 0004:00000dcc       __imp_?drawOutlinedRect@Image@vgui@@MAEXHHHH@Z 100addcc     vgui:vgui.dll
 0004:00000dd0       __imp_?drawFilledRect@Image@vgui@@MAEXHHHH@Z 100addd0     vgui:vgui.dll
 0004:00000dd4       __imp_?drawSetColor@Image@vgui@@MAEXW4SchemeColor@Scheme@2@@Z 100addd4     vgui:vgui.dll
 0004:00000dd8       __imp_?drawSetColor@Image@vgui@@MAEXHHHH@Z 100addd8     vgui:vgui.dll
 0004:00000ddc       __imp_?setSize@Image@vgui@@MAEXHH@Z 100adddc     vgui:vgui.dll
 0004:00000de0       __imp_?getColor@Image@vgui@@UAEXAAVColor@2@@Z 100adde0     vgui:vgui.dll
 0004:00000de4       __imp_?setColor@Image@vgui@@UAEXVColor@2@@Z 100adde4     vgui:vgui.dll
 0004:00000de8       __imp_?getSize@Image@vgui@@UAEXAAH0@Z 100adde8     vgui:vgui.dll
 0004:00000dec       __imp_?getPos@Image@vgui@@UAEXAAH0@Z 100addec     vgui:vgui.dll
 0004:00000df0       __imp_?setPos@Image@vgui@@UAEXHH@Z 100addf0     vgui:vgui.dll
 0004:00000df4       __imp_?getInset@Border@vgui@@UAEXAAH000@Z 100addf4     vgui:vgui.dll
 0004:00000df8       __imp_?setInset@Border@vgui@@UAEXHHHH@Z 100addf8     vgui:vgui.dll
 0004:00000dfc       __imp_?drawPrintChar@Border@vgui@@MAEXHHD@Z 100addfc     vgui:vgui.dll
 0004:00000e00       __imp_?drawPrintText@Border@vgui@@MAEXHHPBDH@Z 100ade00     vgui:vgui.dll
 0004:00000e04       __imp_?drawSetTextPos@Border@vgui@@MAEXHH@Z 100ade04     vgui:vgui.dll
 0004:00000e08       __imp_?drawOutlinedRect@Border@vgui@@MAEXHHHH@Z 100ade08     vgui:vgui.dll
 0004:00000e0c       __imp_?drawFilledRect@Border@vgui@@MAEXHHHH@Z 100ade0c     vgui:vgui.dll
 0004:00000e10       __imp_??0Color@vgui@@QAE@HHHH@Z 100ade10     vgui:vgui.dll
 0004:00000e14       __imp_?init@LineBorder@vgui@@EAEXHVColor@2@@Z 100ade14     vgui:vgui.dll
 0004:00000e18       __imp_?paint@LineBorder@vgui@@MAEXPAVPanel@2@@Z 100ade18     vgui:vgui.dll
 0004:00000e1c       __imp_?setImage@ImagePanel@vgui@@UAEXPAVImage@2@@Z 100ade1c     vgui:vgui.dll
 0004:00000e20       __imp_?paintBackground@ImagePanel@vgui@@MAEXXZ 100ade20     vgui:vgui.dll
 0004:00000e24       __imp_??0Panel@vgui@@QAE@XZ 100ade24     vgui:vgui.dll
 0004:00000e28       __imp_?setRGBA@Bitmap@vgui@@MAEXHHEEEE@Z 100ade28     vgui:vgui.dll
 0004:00000e2c       __imp_?paint@Bitmap@vgui@@UAEXPAVPanel@2@@Z 100ade2c     vgui:vgui.dll
 0004:00000e30       __imp_?setSize@Bitmap@vgui@@MAEXHH@Z 100ade30     vgui:vgui.dll
 0004:00000e34       __imp_?loadTGA@BitmapTGA@vgui@@EAE_NPAVInputStream@2@_N@Z 100ade34     vgui:vgui.dll
 0004:00000e38       __imp_?setButtonController@Button@vgui@@MAEXPAVButtonController@2@@Z 100ade38     vgui:vgui.dll
 0004:00000e3c       __imp_?fireActionSignal@Button@vgui@@UAEXXZ 100ade3c     vgui:vgui.dll
 0004:00000e40       __imp_?isMouseClickEnabled@Button@vgui@@UAE_NW4MouseCode@2@@Z 100ade40     vgui:vgui.dll
 0004:00000e44       __imp_?setMouseClickEnabled@Button@vgui@@UAEXW4MouseCode@2@_N@Z 100ade44     vgui:vgui.dll
 0004:00000e48       __imp_?setButtonBorderEnabled@Button@vgui@@UAEX_N@Z 100ade48     vgui:vgui.dll
 0004:00000e4c       __imp_?isArmed@Button@vgui@@UAE_NXZ 100ade4c     vgui:vgui.dll
 0004:00000e50       __imp_?isAutoFocusNavEnabled@Panel@vgui@@UAE_NXZ 100ade50     vgui:vgui.dll
 0004:00000e54       __imp_?addFocusChangeSignal@Panel@vgui@@UAEXPAVFocusChangeSignal@2@@Z 100ade54     vgui:vgui.dll
 0004:00000e58       __imp_?doClick@Button@vgui@@UAEXXZ 100ade58     vgui:vgui.dll
 0004:00000e5c       __imp_?isSelected@Button@vgui@@UAE_NXZ 100ade5c     vgui:vgui.dll
 0004:00000e60       __imp_?setArmed@Button@vgui@@UAEX_N@Z 100ade60     vgui:vgui.dll
 0004:00000e64       __imp_?setSelectedDirect@Button@vgui@@UAEX_N@Z 100ade64     vgui:vgui.dll
 0004:00000e68       __imp_?setSelected@Button@vgui@@UAEX_N@Z 100ade68     vgui:vgui.dll
 0004:00000e6c       __imp_?paintBackground@Button@vgui@@MAEXXZ 100ade6c     vgui:vgui.dll
 0004:00000e70       __imp_?createPropertyPanel@Button@vgui@@UAEPAVPanel@2@XZ 100ade70     vgui:vgui.dll
 0004:00000e74       __imp_??0ImagePanel@vgui@@QAE@PAVImage@1@@Z 100ade74     vgui:vgui.dll
 0004:00000e78       __imp_??0Label@vgui@@QAE@PBD@Z 100ade78     vgui:vgui.dll
 0004:00000e7c       __imp_?setFont@TextImage@vgui@@UAEXW4SchemeFont@Scheme@2@@Z 100ade7c     vgui:vgui.dll
 0004:00000e80       __imp_?setFont@TextImage@vgui@@UAEXPAVFont@2@@Z 100ade80     vgui:vgui.dll
 0004:00000e84       __imp_?setText@TextImage@vgui@@UAEXHPBD@Z 100ade84     vgui:vgui.dll
 0004:00000e88       __imp_?setText@TextImage@vgui@@UAEXPBD@Z 100ade88     vgui:vgui.dll
 0004:00000e8c       __imp_?getFont@TextImage@vgui@@UAEPAVFont@2@XZ 100ade8c     vgui:vgui.dll
 0004:00000e90       __imp_?getTextSizeWrapped@TextImage@vgui@@UAEXAAH0@Z 100ade90     vgui:vgui.dll
 0004:00000e94       __imp_?getTextSize@TextImage@vgui@@UAEXAAH0@Z 100ade94     vgui:vgui.dll
 0004:00000e98       __imp_?init@TextImage@vgui@@EAEXHPBD@Z 100ade98     vgui:vgui.dll
 0004:00000e9c       __imp_?paint@TextImage@vgui@@MAEXPAVPanel@2@@Z 100ade9c     vgui:vgui.dll
 0004:00000ea0       __imp_?setSize@TextImage@vgui@@UAEXHH@Z 100adea0     vgui:vgui.dll
 0004:00000ea4       __imp_??0Slider@vgui@@QAE@HHHH_N@Z 100adea4     vgui:vgui.dll
 0004:00000ea8       __imp_??0ScrollBar@vgui@@QAE@HHHH_N@Z 100adea8     vgui:vgui.dll
 0004:00000eac       __imp_??0Button@vgui@@QAE@PBDHH@Z 100adeac     vgui:vgui.dll
 0004:00000eb0       __imp_?fireMinimizingSignal@Frame@vgui@@UAEXXZ 100adeb0     vgui:vgui.dll
 0004:00000eb4       __imp_?fireClosingSignal@Frame@vgui@@UAEXXZ 100adeb4     vgui:vgui.dll
 0004:00000eb8       __imp_?setCloseButtonVisible@Frame@vgui@@UAEX_N@Z 100adeb8     vgui:vgui.dll
 0004:00000ebc       __imp_?setMaximizeButtonVisible@Frame@vgui@@UAEX_N@Z 100adebc     vgui:vgui.dll
 0004:00000ec0       __imp_?setMinimizeButtonVisible@Frame@vgui@@UAEX_N@Z 100adec0     vgui:vgui.dll
 0004:00000ec4       __imp_?setTrayButtonVisible@Frame@vgui@@UAEX_N@Z 100adec4     vgui:vgui.dll
 0004:00000ec8       __imp_?setMenuButtonVisible@Frame@vgui@@UAEX_N@Z 100adec8     vgui:vgui.dll
 0004:00000ecc       __imp_?addFrameSignal@Frame@vgui@@UAEXPAVFrameSignal@2@@Z 100adecc     vgui:vgui.dll
 0004:00000ed0       __imp_?isSizeable@Frame@vgui@@UAE_NXZ 100aded0     vgui:vgui.dll
 0004:00000ed4       __imp_?isMoveable@Frame@vgui@@UAE_NXZ 100aded4     vgui:vgui.dll
 0004:00000ed8       __imp_?setSizeable@Frame@vgui@@UAEX_N@Z 100aded8     vgui:vgui.dll
 0004:00000edc       __imp_?setMoveable@Frame@vgui@@UAEX_N@Z 100adedc     vgui:vgui.dll
 0004:00000ee0       __imp_?getTitle@Frame@vgui@@UAEXPADH@Z 100adee0     vgui:vgui.dll
 0004:00000ee4       __imp_?setTitle@Frame@vgui@@UAEXPBD@Z 100adee4     vgui:vgui.dll
 0004:00000ee8       __imp_?getClient@Frame@vgui@@UAEPAVPanel@2@XZ 100adee8     vgui:vgui.dll
 0004:00000eec       __imp_?isInternal@Frame@vgui@@UAE_NXZ 100adeec     vgui:vgui.dll
 0004:00000ef0       __imp_?setInternal@Frame@vgui@@UAEX_N@Z 100adef0     vgui:vgui.dll
 0004:00000ef4       __imp_?paintBackground@Frame@vgui@@UAEXXZ 100adef4     vgui:vgui.dll
 0004:00000ef8       __imp_?setVisible@Frame@vgui@@UAEX_N@Z 100adef8     vgui:vgui.dll
 0004:00000efc       __imp_?setSize@Frame@vgui@@UAEXHH@Z 100adefc     vgui:vgui.dll
 0004:00000f00       __imp_?getTextImage@TextPanel@vgui@@UAEPAVTextImage@2@XZ 100adf00     vgui:vgui.dll
 0004:00000f04       __imp_?setFont@TextPanel@vgui@@UAEXW4SchemeFont@Scheme@2@@Z 100adf04     vgui:vgui.dll
 0004:00000f08       __imp_?setFont@TextPanel@vgui@@UAEXPAVFont@2@@Z 100adf08     vgui:vgui.dll
 0004:00000f0c       __imp_?setText@TextPanel@vgui@@UAEXPBD@Z 100adf0c     vgui:vgui.dll
 0004:00000f10       __imp_?paint@TextPanel@vgui@@MAEXXZ 100adf10     vgui:vgui.dll
 0004:00000f14       __imp_?setFgColor@TextPanel@vgui@@UAEXW4SchemeColor@Scheme@2@@Z 100adf14     vgui:vgui.dll
 0004:00000f18       __imp_?setFgColor@TextPanel@vgui@@UAEXHHHH@Z 100adf18     vgui:vgui.dll
 0004:00000f1c       __imp_?setSize@TextPanel@vgui@@UAEXHH@Z 100adf1c     vgui:vgui.dll
 0004:00000f20       __imp_?close@FileInputStream@vgui@@UAEXXZ 100adf20     vgui:vgui.dll
 0004:00000f24       __imp_?close@FileInputStream@vgui@@UAEXAA_N@Z 100adf24     vgui:vgui.dll
 0004:00000f28       __imp_?readUChar@FileInputStream@vgui@@UAEEAA_N@Z 100adf28     vgui:vgui.dll
 0004:00000f2c       __imp_?readUChar@FileInputStream@vgui@@UAEXPAEHAA_N@Z 100adf2c     vgui:vgui.dll
 0004:00000f30       __imp_?getAvailable@FileInputStream@vgui@@UAEHAA_N@Z 100adf30     vgui:vgui.dll
 0004:00000f34       __imp_?seekEnd@FileInputStream@vgui@@UAEXAA_N@Z 100adf34     vgui:vgui.dll
 0004:00000f38       __imp_?seekRelative@FileInputStream@vgui@@UAEXHAA_N@Z 100adf38     vgui:vgui.dll
 0004:00000f3c       __imp_?seekStart@FileInputStream@vgui@@UAEXAA_N@Z 100adf3c     vgui:vgui.dll
 0004:00000f40       __imp_?getMiniApp@DesktopIcon@vgui@@UAEPAVMiniApp@2@XZ 100adf40     vgui:vgui.dll
 0004:00000f44       __imp_?setDesktop@DesktopIcon@vgui@@UAEXPAVDesktop@2@@Z 100adf44     vgui:vgui.dll
 0004:00000f48       __imp_?setImage@DesktopIcon@vgui@@UAEXPAVImage@2@@Z 100adf48     vgui:vgui.dll
 0004:00000f4c       __imp_?doActivate@DesktopIcon@vgui@@UAEXXZ 100adf4c     vgui:vgui.dll
 0004:00000f50       __imp_?paintBackground@DesktopIcon@vgui@@MAEXXZ 100adf50     vgui:vgui.dll
 0004:00000f54       __imp_?getDefaultCursor@Cursor@vgui@@UAE?AW4DefaultCursor@12@XZ 100adf54     vgui:vgui.dll
 0004:00000f58       __imp_?getBitmap@Cursor@vgui@@UAEPAVBitmap@2@XZ 100adf58     vgui:vgui.dll
 0004:00000f5c       __imp_?privateInit@Cursor@vgui@@EAEXPAVBitmap@2@HH@Z 100adf5c     vgui:vgui.dll
 0004:00000f60       __imp_?getHotspot@Cursor@vgui@@UAEXAAH0@Z 100adf60     vgui:vgui.dll
 0004:00000f64       __imp_?internalTick@App@vgui@@MAEXXZ 100adf64     vgui:vgui.dll
 0004:00000f68       __imp_?platTick@App@vgui@@MAEXXZ 100adf68     vgui:vgui.dll
 0004:00000f6c       __imp_?surfaceBaseDeleted@App@vgui@@MAEXPAVSurfaceBase@2@@Z 100adf6c     vgui:vgui.dll
 0004:00000f70       __imp_?surfaceBaseCreated@App@vgui@@MAEXPAVSurfaceBase@2@@Z 100adf70     vgui:vgui.dll
 0004:00000f74       __imp_?setMouseFocus@App@vgui@@EAEXPAVPanel@2@@Z 100adf74     vgui:vgui.dll
 0004:00000f78       __imp_?updateMouseFocus@App@vgui@@EAEXHHPAVSurfaceBase@2@@Z 100adf78     vgui:vgui.dll
 0004:00000f7c       __imp_?init@App@vgui@@EAEXXZ 100adf7c     vgui:vgui.dll
 0004:00000f80       __imp_?internalKeyReleased@App@vgui@@UAEXW4KeyCode@2@PAVSurfaceBase@2@@Z 100adf80     vgui:vgui.dll
 0004:00000f84       __imp_?internalKeyTyped@App@vgui@@UAEXW4KeyCode@2@PAVSurfaceBase@2@@Z 100adf84     vgui:vgui.dll
 0004:00000f88       __imp_?internalKeyPressed@App@vgui@@UAEXW4KeyCode@2@PAVSurfaceBase@2@@Z 100adf88     vgui:vgui.dll
 0004:00000f8c       __imp_?internalMouseWheeled@App@vgui@@UAEXHPAVSurfaceBase@2@@Z 100adf8c     vgui:vgui.dll
 0004:00000f90       __imp_?internalMouseReleased@App@vgui@@UAEXW4MouseCode@2@PAVSurfaceBase@2@@Z 100adf90     vgui:vgui.dll
 0004:00000f94       __imp_?internalMouseDoublePressed@App@vgui@@UAEXW4MouseCode@2@PAVSurfaceBase@2@@Z 100adf94     vgui:vgui.dll
 0004:00000f98       __imp_?internalMousePressed@App@vgui@@UAEXW4MouseCode@2@PAVSurfaceBase@2@@Z 100adf98     vgui:vgui.dll
 0004:00000f9c       __imp_?internalCursorMoved@App@vgui@@UAEXHHPAVSurfaceBase@2@@Z 100adf9c     vgui:vgui.dll
 0004:00000fa0       __imp_?run@App@vgui@@UAEXXZ 100adfa0     vgui:vgui.dll
 0004:00000fa4       __imp_?setMinimumTickMillisInterval@App@vgui@@UAEXH@Z 100adfa4     vgui:vgui.dll
 0004:00000fa8       __imp_?getCursorOveride@App@vgui@@UAEPAVCursor@2@XZ 100adfa8     vgui:vgui.dll
 0004:00000fac       __imp_?setCursorOveride@App@vgui@@UAEXPAVCursor@2@@Z 100adfac     vgui:vgui.dll
 0004:00000fb0       __imp_?getRegistryInteger@App@vgui@@UAE_NPBDAAH@Z 100adfb0     vgui:vgui.dll
 0004:00000fb4       __imp_?setRegistryInteger@App@vgui@@UAE_NPBDH@Z 100adfb4     vgui:vgui.dll
 0004:00000fb8       __imp_?getRegistryString@App@vgui@@UAE_NPBDPADH@Z 100adfb8     vgui:vgui.dll
 0004:00000fbc       __imp_?setRegistryString@App@vgui@@UAE_NPBD0@Z 100adfbc     vgui:vgui.dll
 0004:00000fc0       __imp_?internalSetMouseArena@App@vgui@@UAEXHHHH_N@Z 100adfc0     vgui:vgui.dll
 0004:00000fc4       __imp_?reset@App@vgui@@UAEXXZ 100adfc4     vgui:vgui.dll
 0004:00000fc8       __imp_?getClipboardText@App@vgui@@UAEHHPADH@Z 100adfc8     vgui:vgui.dll
 0004:00000fcc       __imp_?setClipboardText@App@vgui@@UAEXPBDH@Z 100adfcc     vgui:vgui.dll
 0004:00000fd0       __imp_?getClipboardTextCount@App@vgui@@UAEHXZ 100adfd0     vgui:vgui.dll
 0004:00000fd4       __imp_?getKeyCodeText@App@vgui@@UAEXW4KeyCode@2@PADH@Z 100adfd4     vgui:vgui.dll
 0004:00000fd8       __imp_?getKeyCodeChar@App@vgui@@UAEDW4KeyCode@2@_N@Z 100adfd8     vgui:vgui.dll
 0004:00000fdc       __imp_?getTimeMillis@App@vgui@@UAEJXZ 100adfdc     vgui:vgui.dll
 0004:00000fe0       __imp_?enableBuildMode@App@vgui@@UAEXXZ 100adfe0     vgui:vgui.dll
 0004:00000fe4       __imp_?getScheme@App@vgui@@UAEPAVScheme@2@XZ 100adfe4     vgui:vgui.dll
 0004:00000fe8       __imp_?setScheme@App@vgui@@UAEXPAVScheme@2@@Z 100adfe8     vgui:vgui.dll
 0004:00000fec       __imp_?repaintAll@App@vgui@@UAEXXZ 100adfec     vgui:vgui.dll
 0004:00000ff0       __imp_?getFocus@App@vgui@@UAEPAVPanel@2@XZ 100adff0     vgui:vgui.dll
 0004:00000ff4       __imp_?requestFocus@App@vgui@@UAEXPAVPanel@2@@Z 100adff4     vgui:vgui.dll
 0004:00000ff8       __imp_?setMouseArena@App@vgui@@UAEXHHHH_N@Z 100adff8     vgui:vgui.dll
 0004:00000ffc       __imp_?setMouseArena@App@vgui@@UAEXPAVPanel@2@@Z 100adffc     vgui:vgui.dll
 0004:00001000       __imp_?setMouseCapture@App@vgui@@UAEXPAVPanel@2@@Z 100ae000     vgui:vgui.dll
 0004:00001004       __imp_?getCursorPos@App@vgui@@UAEXAAH0@Z 100ae004     vgui:vgui.dll
 0004:00001008       __imp_?setCursorPos@App@vgui@@UAEXHH@Z 100ae008     vgui:vgui.dll
 0004:0000100c       __imp_?addTickSignal@App@vgui@@UAEXPAVTickSignal@2@@Z 100ae00c     vgui:vgui.dll
 0004:00001010       __imp_?wasKeyReleased@App@vgui@@UAE_NW4KeyCode@2@PAVPanel@2@@Z 100ae010     vgui:vgui.dll
 0004:00001014       __imp_?setPreferredSize@Panel@vgui@@UAEXHH@Z 100ae014     vgui:vgui.dll
 0004:00001018       __imp_?getColor@Scheme@vgui@@UAEXW4SchemeColor@12@AAH111@Z 100ae018     vgui:vgui.dll
 0004:0000101c       __imp_?wasKeyPressed@App@vgui@@UAE_NW4KeyCode@2@PAVPanel@2@@Z 100ae01c     vgui:vgui.dll
 0004:00001020       __imp_?wasMouseReleased@App@vgui@@UAE_NW4MouseCode@2@PAVPanel@2@@Z 100ae020     vgui:vgui.dll
 0004:00001024       __imp_?isMouseDown@App@vgui@@UAE_NW4MouseCode@2@PAVPanel@2@@Z 100ae024     vgui:vgui.dll
 0004:00001028       __imp_?setButtonGroup@Button@vgui@@UAEXPAVButtonGroup@2@@Z 100ae028     vgui:vgui.dll
 0004:0000102c       __imp_?addActionSignal@Button@vgui@@UAEXPAVActionSignal@2@@Z 100ae02c     vgui:vgui.dll
 0004:00001030       __imp_??AColor@vgui@@UAEHH@Z 100ae030     vgui:vgui.dll
 0004:00001034       __imp_?wasMouseDoublePressed@App@vgui@@UAE_NW4MouseCode@2@PAVPanel@2@@Z 100ae034     vgui:vgui.dll
 0004:00001038       __imp_?setAutoFocusNavEnabled@Panel@vgui@@UAEX_N@Z 100ae038     vgui:vgui.dll
 0004:0000103c       __imp_?setName@MiniApp@vgui@@MAEXPBD@Z 100ae03c     vgui:vgui.dll
 0004:00001040       __imp_?getName@MiniApp@vgui@@UAEXPADH@Z 100ae040     vgui:vgui.dll
 0004:00001044       __imp_?recomputeScroll@ScrollPanel@vgui@@UAEXXZ 100ae044     vgui:vgui.dll
 0004:00001048       __imp_?validate@ScrollPanel@vgui@@UAEXXZ 100ae048     vgui:vgui.dll
 0004:0000104c       __imp_?getVerticalScrollBar@ScrollPanel@vgui@@UAEPAVScrollBar@2@XZ 100ae04c     vgui:vgui.dll
 0004:00001050       __imp_?getHorizontalScrollBar@ScrollPanel@vgui@@UAEPAVScrollBar@2@XZ 100ae050     vgui:vgui.dll
 0004:00001054       __imp_?recomputeClientSize@ScrollPanel@vgui@@UAEXXZ 100ae054     vgui:vgui.dll
 0004:00001058       __imp_?getScrollValue@ScrollPanel@vgui@@UAEXAAH0@Z 100ae058     vgui:vgui.dll
 0004:0000105c       __imp_?setScrollValue@ScrollPanel@vgui@@UAEXHH@Z 100ae05c     vgui:vgui.dll
 0004:00001060       __imp_?getClientClip@ScrollPanel@vgui@@UAEPAVPanel@2@XZ 100ae060     vgui:vgui.dll
 0004:00001064       __imp_?getClient@ScrollPanel@vgui@@UAEPAVPanel@2@XZ 100ae064     vgui:vgui.dll
 0004:00001068       __imp_?setScrollBarAutoVisible@ScrollPanel@vgui@@UAEX_N0@Z 100ae068     vgui:vgui.dll
 0004:0000106c       __imp_?setScrollBarVisible@ScrollPanel@vgui@@UAEX_N0@Z 100ae06c     vgui:vgui.dll
 0004:00001070       __imp_?setSize@ScrollPanel@vgui@@MAEXHH@Z 100ae070     vgui:vgui.dll
 0004:00001074       __imp_?fireIntChangeSignal@ScrollBar@vgui@@UAEXXZ 100ae074     vgui:vgui.dll
 0004:00001078       __imp_?validate@ScrollBar@vgui@@UAEXXZ 100ae078     vgui:vgui.dll
 0004:0000107c       __imp_?setButtonPressedScrollValue@ScrollBar@vgui@@UAEXH@Z 100ae07c     vgui:vgui.dll
 0004:00001080       __imp_?doButtonPressed@ScrollBar@vgui@@UAEXH@Z 100ae080     vgui:vgui.dll
 0004:00001084       __imp_?getSlider@ScrollBar@vgui@@UAEPAVSlider@2@XZ 100ae084     vgui:vgui.dll
 0004:00001088       __imp_?setSlider@ScrollBar@vgui@@UAEXPAVSlider@2@@Z 100ae088     vgui:vgui.dll
 0004:0000108c       __imp_?getButton@ScrollBar@vgui@@UAEPAVButton@2@H@Z 100ae08c     vgui:vgui.dll
 0004:00001090       __imp_?setButton@ScrollBar@vgui@@UAEXPAVButton@2@H@Z 100ae090     vgui:vgui.dll
 0004:00001094       __imp_?hasFullRange@ScrollBar@vgui@@UAE_NXZ 100ae094     vgui:vgui.dll
 0004:00001098       __imp_?isVertical@ScrollBar@vgui@@UAE_NXZ 100ae098     vgui:vgui.dll
 0004:0000109c       __imp_?setRangeWindowEnabled@ScrollBar@vgui@@UAEX_N@Z 100ae09c     vgui:vgui.dll
 0004:000010a0       __imp_?setRangeWindow@ScrollBar@vgui@@UAEXH@Z 100ae0a0     vgui:vgui.dll
 0004:000010a4       __imp_?setRange@ScrollBar@vgui@@UAEXHH@Z 100ae0a4     vgui:vgui.dll
 0004:000010a8       __imp_?addIntChangeSignal@ScrollBar@vgui@@UAEXPAVIntChangeSignal@2@@Z 100ae0a8     vgui:vgui.dll
 0004:000010ac       __imp_?getValue@ScrollBar@vgui@@UAEHXZ 100ae0ac     vgui:vgui.dll
 0004:000010b0       __imp_?setValue@ScrollBar@vgui@@UAEXH@Z 100ae0b0     vgui:vgui.dll
 0004:000010b4       __imp_?performLayout@ScrollBar@vgui@@MAEXXZ 100ae0b4     vgui:vgui.dll
 0004:000010b8       __imp_?setSize@ScrollBar@vgui@@UAEXHH@Z 100ae0b8     vgui:vgui.dll
 0004:000010bc       __imp_?fireIntChangeSignal@Slider@vgui@@MAEXXZ 100ae0bc     vgui:vgui.dll
 0004:000010c0       __imp_?privateMouseReleased@Slider@vgui@@UAEXW4MouseCode@2@PAVPanel@2@@Z 100ae0c0     vgui:vgui.dll
 0004:000010c4       __imp_?getPaintSize@Panel@vgui@@UAEXAAH0@Z 100ae0c4     vgui:vgui.dll
 0004:000010c8       __imp_?privateCursorMoved@Slider@vgui@@UAEXHHPAVPanel@2@@Z 100ae0c8     vgui:vgui.dll
 0004:000010cc       __imp_?recomputeValueFromNobPos@Slider@vgui@@EAEXXZ 100ae0cc     vgui:vgui.dll
 0004:000010d0       __imp_?recomputeNobPosFromValue@Slider@vgui@@EAEXXZ 100ae0d0     vgui:vgui.dll
 0004:000010d4       __imp_?setButtonOffset@Slider@vgui@@UAEXH@Z 100ae0d4     vgui:vgui.dll
 0004:000010d8       __imp_?hasFullRange@Slider@vgui@@UAE_NXZ 100ae0d8     vgui:vgui.dll
 0004:000010dc       __imp_?getNobPos@Slider@vgui@@UAEXAAH0@Z 100ae0dc     vgui:vgui.dll
 0004:000010e0       __imp_?setRangeWindowEnabled@Slider@vgui@@UAEX_N@Z 100ae0e0     vgui:vgui.dll
 0004:000010e4       __imp_?setRangeWindow@Slider@vgui@@UAEXH@Z 100ae0e4     vgui:vgui.dll
 0004:000010e8       __imp_?getRange@Slider@vgui@@UAEXAAH0@Z 100ae0e8     vgui:vgui.dll
 0004:000010ec       __imp_?setRange@Slider@vgui@@UAEXHH@Z 100ae0ec     vgui:vgui.dll
 0004:000010f0       __imp_?addIntChangeSignal@Slider@vgui@@UAEXPAVIntChangeSignal@2@@Z 100ae0f0     vgui:vgui.dll
 0004:000010f4       __imp_?isVertical@Slider@vgui@@UAE_NXZ 100ae0f4     vgui:vgui.dll
 0004:000010f8       __imp_?getValue@Slider@vgui@@UAEHXZ 100ae0f8     vgui:vgui.dll
 0004:000010fc       __imp_?setValue@Slider@vgui@@UAEXH@Z 100ae0fc     vgui:vgui.dll
 0004:00001100       __imp_?paintBackground@Slider@vgui@@MAEXXZ 100ae100     vgui:vgui.dll
 0004:00001104       __imp_?setSize@Slider@vgui@@UAEXHH@Z 100ae104     vgui:vgui.dll
 0004:00001108       __imp_?getId@Font@vgui@@UAEHXZ 100ae108     vgui:vgui.dll
 0004:0000110c       __imp_?getTall@Font@vgui@@UAEHXZ 100ae10c     vgui:vgui.dll
 0004:00001110       __imp_?getTextSize@Font@vgui@@UAEXPBDAAH1@Z 100ae110     vgui:vgui.dll
 0004:00001114       __imp_?getCharABCwide@Font@vgui@@UAEXHAAH00@Z 100ae114     vgui:vgui.dll
 0004:00001118       __imp_?getCharRGBA@Font@vgui@@UAEXHHHHHPAE@Z 100ae118     vgui:vgui.dll
 0004:0000111c       __imp_?init@Font@vgui@@EAEXPBDPAXHHHMH_N222@Z 100ae11c     vgui:vgui.dll
 0004:00001120       __imp_??0BitmapTGA@vgui@@QAE@PAVInputStream@1@_N@Z 100ae120     vgui:vgui.dll
 0004:00001124       __imp_??0ToggleButton@vgui@@QAE@PBDHH@Z 100ae124     vgui:vgui.dll
 0004:00001128       __imp_??0Bitmap@vgui@@QAE@XZ 100ae128     vgui:vgui.dll
 0004:0000112c       __imp_??0Label@vgui@@QAE@PBDHH@Z 100ae12c     vgui:vgui.dll
 0004:00001130       __imp_??0TextPanel@vgui@@QAE@PBDHHHH@Z 100ae130     vgui:vgui.dll
 0004:00001134       __imp_??0TextEntry@vgui@@QAE@PBDHHHH@Z 100ae134     vgui:vgui.dll
 0004:00001138       __imp_??0LoweredBorder@vgui@@QAE@XZ 100ae138     vgui:vgui.dll
 0004:0000113c       __imp_??0TextGrid@vgui@@QAE@HHHHHH@Z 100ae13c     vgui:vgui.dll
 0004:00001140       __imp_??0EtchedBorder@vgui@@QAE@XZ 100ae140     vgui:vgui.dll
 0004:00001144       __imp_?printf@TextGrid@vgui@@UAAHPBDZZ 100ae144     vgui:vgui.dll
 0004:00001148       __imp_?vprintf@TextGrid@vgui@@UAEHPBDPAD@Z 100ae148     vgui:vgui.dll
 0004:0000114c       __imp_?setXY@TextGrid@vgui@@UAEXHH@Z 100ae14c     vgui:vgui.dll
 0004:00001150       __imp_?newLine@TextGrid@vgui@@UAEXXZ 100ae150     vgui:vgui.dll
 0004:00001154       __imp_?setGridSize@TextGrid@vgui@@UAEXHH@Z 100ae154     vgui:vgui.dll
 0004:00001158       __imp_?paintBackground@TextGrid@vgui@@MAEXXZ 100ae158     vgui:vgui.dll
 0004:0000115c       __imp_?keyFocusTicked@TextEntry@vgui@@MAEXPAVPanel@2@@Z 100ae15c     vgui:vgui.dll
 0004:00001160       __imp_?keyReleased@TextEntry@vgui@@MAEXW4KeyCode@2@PAVPanel@2@@Z 100ae160     vgui:vgui.dll
 0004:00001164       __imp_?keyTyped@TextEntry@vgui@@MAEXW4KeyCode@2@PAVPanel@2@@Z 100ae164     vgui:vgui.dll
 0004:00001168       __imp_?keyPressed@TextEntry@vgui@@MAEXW4KeyCode@2@PAVPanel@2@@Z 100ae168     vgui:vgui.dll
 0004:0000116c       __imp_?mouseWheeled@TextEntry@vgui@@MAEXHPAVPanel@2@@Z 100ae16c     vgui:vgui.dll
 0004:00001170       __imp_?mouseReleased@TextEntry@vgui@@MAEXW4MouseCode@2@PAVPanel@2@@Z 100ae170     vgui:vgui.dll
 0004:00001174       __imp_?mouseDoublePressed@TextEntry@vgui@@MAEXW4MouseCode@2@PAVPanel@2@@Z 100ae174     vgui:vgui.dll
 0004:00001178       __imp_?mousePressed@TextEntry@vgui@@MAEXW4MouseCode@2@PAVPanel@2@@Z 100ae178     vgui:vgui.dll
 0004:0000117c       __imp_?cursorExited@TextEntry@vgui@@MAEXPAVPanel@2@@Z 100ae17c     vgui:vgui.dll
 0004:00001180       __imp_?cursorEntered@TextEntry@vgui@@MAEXPAVPanel@2@@Z 100ae180     vgui:vgui.dll
 0004:00001184       __imp_?cursorMoved@TextEntry@vgui@@MAEXHHPAVPanel@2@@Z 100ae184     vgui:vgui.dll
 0004:00001188       __imp_?selectCheck@TextEntry@vgui@@MAEXXZ 100ae188     vgui:vgui.dll
 0004:0000118c       __imp_?cursorToPixelSpace@TextEntry@vgui@@MAEHH@Z 100ae18c     vgui:vgui.dll
 0004:00001190       __imp_?getSelectedPixelRange@TextEntry@vgui@@MAE_NAAH0@Z 100ae190     vgui:vgui.dll
 0004:00001194       __imp_?getSelectedRange@TextEntry@vgui@@MAE_NAAH0@Z 100ae194     vgui:vgui.dll
 0004:00001198       __imp_?fireActionSignal@TextEntry@vgui@@MAEXXZ 100ae198     vgui:vgui.dll
 0004:0000119c       __imp_?setCharAt@TextEntry@vgui@@MAEXDH@Z 100ae19c     vgui:vgui.dll
 0004:000011a0       __imp_?setTextHidden@TextEntry@vgui@@UAEX_N@Z 100ae1a0     vgui:vgui.dll
 0004:000011a4       __imp_?setFont@TextEntry@vgui@@UAEXPAVFont@2@@Z 100ae1a4     vgui:vgui.dll
 0004:000011a8       __imp_?addActionSignal@TextEntry@vgui@@UAEXPAVActionSignal@2@@Z 100ae1a8     vgui:vgui.dll
 0004:000011ac       __imp_?doDeleteSelected@TextEntry@vgui@@UAEXXZ 100ae1ac     vgui:vgui.dll
 0004:000011b0       __imp_?doPasteSelected@TextEntry@vgui@@UAEXXZ 100ae1b0     vgui:vgui.dll
 0004:000011b4       __imp_?doPaste@TextEntry@vgui@@UAEXXZ 100ae1b4     vgui:vgui.dll
 0004:000011b8       __imp_?doCopySelected@TextEntry@vgui@@UAEXXZ 100ae1b8     vgui:vgui.dll
 0004:000011bc       __imp_?doSelectNone@TextEntry@vgui@@UAEXXZ 100ae1bc     vgui:vgui.dll
 0004:000011c0       __imp_?doDelete@TextEntry@vgui@@UAEXXZ 100ae1c0     vgui:vgui.dll
 0004:000011c4       __imp_?doBackspace@TextEntry@vgui@@UAEXXZ 100ae1c4     vgui:vgui.dll
 0004:000011c8       __imp_?doInsertChar@TextEntry@vgui@@UAEXD@Z 100ae1c8     vgui:vgui.dll
 0004:000011cc       __imp_?doGotoEndOfLine@TextEntry@vgui@@UAEXXZ 100ae1cc     vgui:vgui.dll
 0004:000011d0       __imp_?doGotoFirstOfLine@TextEntry@vgui@@UAEXXZ 100ae1d0     vgui:vgui.dll
 0004:000011d4       __imp_?doGotoRight@TextEntry@vgui@@UAEXXZ 100ae1d4     vgui:vgui.dll
 0004:000011d8       __imp_?doGotoLeft@TextEntry@vgui@@UAEXXZ 100ae1d8     vgui:vgui.dll
 0004:000011dc       __imp_?resetCursorBlink@TextEntry@vgui@@UAEXXZ 100ae1dc     vgui:vgui.dll
 0004:000011e0       __imp_?getText@TextEntry@vgui@@UAEXHPADH@Z 100ae1e0     vgui:vgui.dll
 0004:000011e4       __imp_?setText@TextEntry@vgui@@UAEXPBDH@Z 100ae1e4     vgui:vgui.dll
 0004:000011e8       __imp_?paintBackground@TextEntry@vgui@@MAEXXZ 100ae1e8     vgui:vgui.dll
 0004:000011ec       __imp_?paint@EtchedBorder@vgui@@MAEXPAVPanel@2@@Z 100ae1ec     vgui:vgui.dll
 0004:000011f0       __imp_?paint@LoweredBorder@vgui@@MAEXPAVPanel@2@@Z 100ae1f0     vgui:vgui.dll
 0004:000011f4       __imp_??0Color@vgui@@QAE@W4SchemeColor@Scheme@1@@Z 100ae1f4     vgui:vgui.dll
 0004:000011f8       __imp_??0ScrollPanel@vgui@@QAE@HHHH@Z 100ae1f8     vgui:vgui.dll
 0004:000011fc       __imp_??0HeaderPanel@vgui@@QAE@HHHH@Z 100ae1fc     vgui:vgui.dll
 0004:00001200       __imp_?privateKeyTyped@TablePanel@vgui@@EAEXW4KeyCode@2@PAVPanel@2@@Z 100ae200     vgui:vgui.dll
 0004:00001204       __imp_?privateMouseDoublePressed@TablePanel@vgui@@EAEXW4MouseCode@2@PAVPanel@2@@Z 100ae204     vgui:vgui.dll
 0004:00001208       __imp_?privateMousePressed@TablePanel@vgui@@EAEXW4MouseCode@2@PAVPanel@2@@Z 100ae208     vgui:vgui.dll
 0004:0000120c       __imp_?stopCellEditing@TablePanel@vgui@@UAEXXZ 100ae20c     vgui:vgui.dll
 0004:00001210       __imp_?setEditableCell@TablePanel@vgui@@UAEXHH@Z 100ae210     vgui:vgui.dll
 0004:00001214       __imp_?setCellSectionEnabled@TablePanel@vgui@@UAEX_N@Z 100ae214     vgui:vgui.dll
 0004:00001218       __imp_?setRowSelectionEnabled@TablePanel@vgui@@UAEX_N@Z 100ae218     vgui:vgui.dll
 0004:0000121c       __imp_?setColumnSelectionEnabled@TablePanel@vgui@@UAEX_N@Z 100ae21c     vgui:vgui.dll
 0004:00001220       __imp_?setHeaderPanel@TablePanel@vgui@@UAEXPAVHeaderPanel@2@@Z 100ae220     vgui:vgui.dll
 0004:00001224       __imp_?getSelectedCell@TablePanel@vgui@@UAEXAAH0@Z 100ae224     vgui:vgui.dll
 0004:00001228       __imp_?setSelectedCell@TablePanel@vgui@@UAEXHH@Z 100ae228     vgui:vgui.dll
 0004:0000122c       __imp_?setColumnExtents@TablePanel@vgui@@UAEXHHH@Z 100ae22c     vgui:vgui.dll
 0004:00001230       __imp_?getColumnCount@TablePanel@vgui@@UAEHXZ 100ae230     vgui:vgui.dll
 0004:00001234       __imp_?setGridSize@TablePanel@vgui@@UAEXHH@Z 100ae234     vgui:vgui.dll
 0004:00001238       __imp_?setGridVisible@TablePanel@vgui@@UAEX_N0@Z 100ae238     vgui:vgui.dll
 0004:0000123c       __imp_?setColumnCount@TablePanel@vgui@@UAEXH@Z 100ae23c     vgui:vgui.dll
 0004:00001240       __imp_?setCellEditingEnabled@TablePanel@vgui@@UAEX_N@Z 100ae240     vgui:vgui.dll
 0004:00001244       __imp_?paint@TablePanel@vgui@@MAEXXZ 100ae244     vgui:vgui.dll
 0004:00001248       __imp_?getVirtualSize@TablePanel@vgui@@UAEXAAH0@Z 100ae248     vgui:vgui.dll
 0004:0000124c       __imp_?isWithinTraverse@TablePanel@vgui@@MAEPAVPanel@2@HH@Z 100ae24c     vgui:vgui.dll
 0004:00001250       __imp_??0Label@vgui@@QAE@PBDHHHH@Z 100ae250     vgui:vgui.dll
 0004:00001254       __imp_??0TablePanel@vgui@@QAE@HHHHH@Z 100ae254     vgui:vgui.dll
 0004:00001258       __imp_?vgui_strdup@vgui@@YAPADPBD@Z 100ae258     vgui:vgui.dll
 0004:0000125c       __imp_?vgui_strcpy@vgui@@YAXPADHPBD@Z 100ae25c     vgui:vgui.dll
 0004:00001260       __imp_?readLine@DataInputStream@vgui@@UAEXPADHAA_N@Z 100ae260     vgui:vgui.dll
 0004:00001264       __imp_??0DataInputStream@vgui@@QAE@PAVInputStream@1@@Z 100ae264     vgui:vgui.dll
 0004:00001268       __imp_?privateMouseReleased@HeaderPanel@vgui@@UAEXW4MouseCode@2@PAVPanel@2@@Z 100ae268     vgui:vgui.dll
 0004:0000126c       __imp_?privateMousePressed@HeaderPanel@vgui@@UAEXW4MouseCode@2@PAVPanel@2@@Z 100ae26c     vgui:vgui.dll
 0004:00001270       __imp_?privateCursorMoved@HeaderPanel@vgui@@UAEXHHPAVPanel@2@@Z 100ae270     vgui:vgui.dll
 0004:00001274       __imp_?fireChangeSignal@HeaderPanel@vgui@@UAEXXZ 100ae274     vgui:vgui.dll
 0004:00001278       __imp_?addChangeSignal@HeaderPanel@vgui@@UAEXPAVChangeSignal@2@@Z 100ae278     vgui:vgui.dll
 0004:0000127c       __imp_?getSectionExtents@HeaderPanel@vgui@@UAEXHAAH0@Z 100ae27c     vgui:vgui.dll
 0004:00001280       __imp_?getSectionCount@HeaderPanel@vgui@@UAEHXZ 100ae280     vgui:vgui.dll
 0004:00001284       __imp_?setSliderPos@HeaderPanel@vgui@@UAEXHH@Z 100ae284     vgui:vgui.dll
 0004:00001288       __imp_?addSectionPanel@HeaderPanel@vgui@@UAEXPAVPanel@2@@Z 100ae288     vgui:vgui.dll
 0004:0000128c       __imp_?performLayout@HeaderPanel@vgui@@MAEXXZ 100ae28c     vgui:vgui.dll
 0004:00001290       __imp_?readDouble@DataInputStream@vgui@@UAENAA_N@Z 100ae290     vgui:vgui.dll
 0004:00001294       __imp_?readFloat@DataInputStream@vgui@@UAEMAA_N@Z 100ae294     vgui:vgui.dll
 0004:00001298       __imp_?readULong@DataInputStream@vgui@@UAEKAA_N@Z 100ae298     vgui:vgui.dll
 0004:0000129c       __imp_?readLong@DataInputStream@vgui@@UAEJAA_N@Z 100ae29c     vgui:vgui.dll
 0004:000012a0       __imp_?readUInt@DataInputStream@vgui@@UAEIAA_N@Z 100ae2a0     vgui:vgui.dll
 0004:000012a4       __imp_?readInt@DataInputStream@vgui@@UAEHAA_N@Z 100ae2a4     vgui:vgui.dll
 0004:000012a8       __imp_?readUShort@DataInputStream@vgui@@UAEGAA_N@Z 100ae2a8     vgui:vgui.dll
 0004:000012ac       __imp_?readShort@DataInputStream@vgui@@UAEFAA_N@Z 100ae2ac     vgui:vgui.dll
 0004:000012b0       __imp_?readChar@DataInputStream@vgui@@UAEDAA_N@Z 100ae2b0     vgui:vgui.dll
 0004:000012b4       __imp_?readBool@DataInputStream@vgui@@UAE_NAA_N@Z 100ae2b4     vgui:vgui.dll
 0004:000012b8       __imp_?close@DataInputStream@vgui@@UAEXXZ 100ae2b8     vgui:vgui.dll
 0004:000012bc       __imp_?seekStart@DataInputStream@vgui@@UAEXAA_N@Z 100ae2bc     vgui:vgui.dll
 0004:000012c0       __imp_?seekRelative@DataInputStream@vgui@@UAEXHAA_N@Z 100ae2c0     vgui:vgui.dll
 0004:000012c4       __imp_?seekEnd@DataInputStream@vgui@@UAEXAA_N@Z 100ae2c4     vgui:vgui.dll
 0004:000012c8       __imp_?getAvailable@DataInputStream@vgui@@UAEHAA_N@Z 100ae2c8     vgui:vgui.dll
 0004:000012cc       __imp_?readUChar@DataInputStream@vgui@@UAEXPAEHAA_N@Z 100ae2cc     vgui:vgui.dll
 0004:000012d0       __imp_?readUChar@DataInputStream@vgui@@UAEEAA_N@Z 100ae2d0     vgui:vgui.dll
 0004:000012d4       __imp_?close@DataInputStream@vgui@@UAEXAA_N@Z 100ae2d4     vgui:vgui.dll
 0004:000012d8       __imp_??0Button@vgui@@QAE@PBDHHHH@Z 100ae2d8     vgui:vgui.dll
 0004:000012dc       __imp_?performLayout@Layout@vgui@@UAEXPAVPanel@2@@Z 100ae2dc     vgui:vgui.dll
 0004:000012e0       __imp_?createLayoutInfo@BorderLayout@vgui@@UAEPAVLayoutInfo@2@W4Alignment@12@@Z 100ae2e0     vgui:vgui.dll
 0004:000012e4       __imp_?performLayout@BorderLayout@vgui@@UAEXPAVPanel@2@@Z 100ae2e4     vgui:vgui.dll
 0004:000012e8       __imp_?addModeInfo@SurfaceBase@vgui@@MAEXHHH@Z 100ae2e8     vgui:vgui.dll
 0004:000012ec       __imp_?setEmulatedCursorPos@SurfaceBase@vgui@@UAEXHH@Z 100ae2ec     vgui:vgui.dll
 0004:000012f0       __imp_?setEmulatedCursorVisible@SurfaceBase@vgui@@UAEX_N@Z 100ae2f0     vgui:vgui.dll
 0004:000012f4       __imp_?getApp@SurfaceBase@vgui@@UAEPAVApp@2@XZ 100ae2f4     vgui:vgui.dll
 0004:000012f8       __imp_?getModeInfo@SurfaceBase@vgui@@UAE_NHAAH00@Z 100ae2f8     vgui:vgui.dll
 0004:000012fc       __imp_?getModeInfoCount@SurfaceBase@vgui@@UAEHXZ 100ae2fc     vgui:vgui.dll
 0004:00001300       __imp_?resetModeInfo@SurfaceBase@vgui@@UAEXXZ 100ae300     vgui:vgui.dll
 0004:00001304       __imp_?requestSwap@SurfaceBase@vgui@@UAEXXZ 100ae304     vgui:vgui.dll
 0004:00001308       __imp_?getPanel@SurfaceBase@vgui@@UAEPAVPanel@2@XZ 100ae308     vgui:vgui.dll
 0004:0000130c       __imp_??0LineBorder@vgui@@QAE@VColor@1@@Z 100ae30c     vgui:vgui.dll
 0004:00001310       __imp_??0FileInputStream@vgui@@QAE@PBD_N@Z 100ae310     vgui:vgui.dll
 0004:00001314       __imp_??0TextImage@vgui@@QAE@PBD@Z 100ae314     vgui:vgui.dll
 0004:00001318       __imp_??0Color@vgui@@QAE@XZ 100ae318     vgui:vgui.dll
